 paste

 Timestamp is 5bfc179c (Mon Nov 26 16:56:12 2018)

 Preferred load address is 10000000

 Start         Length     Name                   Class
 0001:00000000 000193d0H .text$di                CODE
 0001:000193d0 000b1620H .text$mn                CODE
 0001:000ca9f0 000065f0H .text$x                 CODE
 0001:000d0fe0 000007d4H .text$yd                CODE
 0002:00000000 00000384H .idata$5                DATA
 0002:00000384 00000004H .00cfg                  DATA
 0002:00000388 00000004H .CRT$XCA                DATA
 0002:0000038c 00000004H .CRT$XCL                DATA
 0002:00000390 0000010cH .CRT$XCU                DATA
 0002:0000049c 00000004H .CRT$XCZ                DATA
 0002:000004a0 00000004H .CRT$XIA                DATA
 0002:000004a4 00000004H .CRT$XIC                DATA
 0002:000004a8 00000004H .CRT$XIZ                DATA
 0002:000004ac 00000004H .CRT$XLA                DATA
 0002:000004b0 00000004H .CRT$XLZ                DATA
 0002:000004b4 00000004H .CRT$XPA                DATA
 0002:000004b8 00000004H .CRT$XPZ                DATA
 0002:000004bc 00000004H .CRT$XTA                DATA
 0002:000004c0 00000010H .CRT$XTZ                DATA
 0002:000004c4 00000000H .gfids$y                DATA
 0002:000004d0 000beed8H .rdata                  DATA
 0002:000bf3a8 00000018H .rdata$T                DATA
 0002:000bf3c0 00000938H .rdata$r                DATA
 0002:000bfcf8 00000384H .rdata$zzzdbg           DATA
 0002:000c007c 00000004H .rtc$IAA                DATA
 0002:000c0080 00000004H .rtc$IZZ                DATA
 0002:000c0084 00000004H .rtc$TAA                DATA
 0002:000c0088 00000004H .rtc$TZZ                DATA
 0002:000c008c 00000004H .tls                    DATA
 0002:000c0090 00000004H .tls$                   DATA
 0002:000c0094 00000004H .tls$ZZZ                DATA
 0002:000c0098 00006ad0H .xdata$x                DATA
 0002:000c6b68 00000000H .edata                  DATA
 0002:000c6b68 00000154H .idata$2                DATA
 0002:000c6cbc 00000014H .idata$3                DATA
 0002:000c6cd0 00000384H .idata$4                DATA
 0002:000c7054 00001694H .idata$6                DATA
 0003:00000000 001b5c38H .data                   DATA
 0003:001b5c38 00000568H .data$r                 DATA
 0003:001b61a0 00443964H .bss                    DATA
 0004:00000000 000007e0H _RDATA                  DATA
 0005:00000000 00000060H .rsrc$01                DATA
 0005:00000060 00000180H .rsrc$02                DATA

  Address         Publics by Value              Rva+Base       Lib:Object

 0000:00000000       ___guard_iat_count         00000000     <absolute>
 0000:00000000       ___safe_se_handler_table   00000000     <absolute>
 0000:00000000       ___guard_fids_table        00000000     <absolute>
 0000:00000000       ___dynamic_value_reloc_table 00000000     <absolute>
 0000:00000000       ___guard_longjmp_count     00000000     <absolute>
 0000:00000000       ___volatile_metadata       00000000     <absolute>
 0000:00000000       ___guard_fids_count        00000000     <absolute>
 0000:00000000       ___guard_longjmp_table     00000000     <absolute>
 0000:00000000       ___enclave_config          00000000     <absolute>
 0000:00000000       ___hybrid_code_map_count   00000000     <absolute>
 0000:00000000       ___guard_iat_table         00000000     <absolute>
 0000:00000000       ___safe_se_handler_count   00000000     <absolute>
 0000:00000000       ___hybrid_auxiliary_iat    00000000     <absolute>
 0000:00000000       ___hybrid_code_map         00000000     <absolute>
 0000:0000002c       __tls_array                0000002c     <absolute>
 0000:00000100       ___guard_flags             00000100     <absolute>
 0000:00000000       ___ImageBase               10000000     <linker-defined>
 0001:000193d0       ??0Color2@@QAE@XZ          1001a3d0 f   Color2.obj
 0001:000193e0       ??0Color2@@QAE@HHH@Z       1001a3e0 f   Color2.obj
 0001:00019400       ??0Color2@@QAE@HHHH@Z      1001a400 f   Color2.obj
 0001:00019420       ?SetRawColor@Color2@@QAEXH@Z 1001a420 f   Color2.obj
 0001:00019430       ?GetRawColor@Color2@@QBEHXZ 1001a430 f   Color2.obj
 0001:00019440       ?SetColor@Color2@@QAEXPAM@Z 1001a440 f   Color2.obj
 0001:00019480       ?GetColor@Color2@@QBEXAAH000@Z 1001a480 f   Color2.obj
 0001:000194b0       ??8Color2@@QBE_NABV0@@Z    1001a4b0 f   Color2.obj
 0001:000194d0       ??9Color2@@QBE_NABV0@@Z    1001a4d0 f   Color2.obj
 0001:000194f0       ??4Color2@@QAEAAV0@ABV0@@Z 1001a4f0 f   Color2.obj
 0001:00019500       ?InitPath@Cvar@CSX@@YAXPBD@Z 1001a500 f   CSX_Cvar.obj
 0001:00019540       ?LoadCvar@Cvar@CSX@@YAHPAD0H@Z 1001a540 f   CSX_Cvar.obj
 0001:00019640       ?LoadCvar@Cvar@CSX@@YA?AV?$basic_string@DU?$char_traits@D@std@@V?$allocator@D@2@@std@@PAD0V34@@Z 1001a640 f   CSX_Cvar.obj
 0001:00019750       ?LoadCvar@Cvar@CSX@@YAMPAD0M@Z 1001a750 f   CSX_Cvar.obj
 0001:00019870       ?SaveCvar@Cvar@CSX@@YAXPAD0H@Z 1001a870 f   CSX_Cvar.obj
 0001:00019950       ?SaveCvar@Cvar@CSX@@YAXPAD0M@Z 1001a950 f   CSX_Cvar.obj
 0001:00019a40       ?SaveCvar@Cvar@CSX@@YAXPAD0V?$basic_string@DU?$char_traits@D@std@@V?$allocator@D@2@@std@@@Z 1001aa40 f   CSX_Cvar.obj
 0001:00019ac0       ?IniFileED@Cvar@CSX@@YAXXZ 1001aac0 f   CSX_Cvar.obj
 0001:00019b00       ??$_UIntegral_to_buff@DI@std@@YAPADPADI@Z 1001ab00 f i CSX_Cvar.obj
 0001:00019b40       ??0?$basic_string@DU?$char_traits@D@std@@V?$allocator@D@2@@std@@QAE@ID@Z 1001ab40 f i CSX_Cvar.obj
 0001:00019c50       ??1?$basic_string@DU?$char_traits@D@std@@V?$allocator@D@2@@std@@QAE@XZ 1001ac50 f i CSX_Cvar.obj
 0001:00019c50       ?_Tidy_deallocate@?$basic_string@DU?$char_traits@D@std@@V?$allocator@D@2@@std@@QAEXXZ 1001ac50 f i SkinParser.obj
 0001:00019ca0       ?_Xlen@?$basic_string@DU?$char_traits@D@std@@V?$allocator@D@2@@std@@SAXXZ 1001aca0 f i CSX_Cvar.obj
 0001:00019cb0       ?allocate@?$allocator@D@std@@QAEPADI@Z 1001acb0 f i CSX_Cvar.obj
 0001:00019d10       ?assign@?$basic_string@DU?$char_traits@D@std@@V?$allocator@D@2@@std@@QAEAAV12@QBDI@Z 1001ad10 f i CSX_Cvar.obj
 0001:00019e00       ___local_stdio_printf_options 1001ae00 f i CSX_Cvar.obj
 0001:00019e10       __scprintf                 1001ae10 f i CSX_Cvar.obj
 0001:00019e50       _sprintf_s                 1001ae50 f i CSX_Cvar.obj
 0001:00019e80       ?_Lock@?$basic_filebuf@DU?$char_traits@D@std@@@std@@UAEXXZ 1001ae80 f i CSX_Log.obj
 0001:00019e90       ?_Unlock@?$basic_filebuf@DU?$char_traits@D@std@@@std@@UAEXXZ 1001ae90 f i CSX_Log.obj
 0001:00019ea0       ?overflow@?$basic_filebuf@DU?$char_traits@D@std@@@std@@MAEHH@Z 1001aea0 f i CSX_Log.obj
 0001:0001a010       ?pbackfail@?$basic_filebuf@DU?$char_traits@D@std@@@std@@MAEHH@Z 1001b010 f i CSX_Log.obj
 0001:0001a0c0       ?underflow@?$basic_filebuf@DU?$char_traits@D@std@@@std@@MAEHXZ 1001b0c0 f i CSX_Log.obj
 0001:0001a100       ?uflow@?$basic_filebuf@DU?$char_traits@D@std@@@std@@MAEHXZ 1001b100 f i CSX_Log.obj
 0001:0001a320       ?xsgetn@?$basic_filebuf@DU?$char_traits@D@std@@@std@@MAE_JPAD_J@Z 1001b320 f i CSX_Log.obj
 0001:0001a410       ?xsputn@?$basic_filebuf@DU?$char_traits@D@std@@@std@@MAE_JPBD_J@Z 1001b410 f i CSX_Log.obj
 0001:0001a4f0       ?seekoff@?$basic_filebuf@DU?$char_traits@D@std@@@std@@MAE?AV?$fpos@U_Mbstatet@@@2@_JHH@Z 1001b4f0 f i CSX_Log.obj
 0001:0001a5d0       ?seekpos@?$basic_filebuf@DU?$char_traits@D@std@@@std@@MAE?AV?$fpos@U_Mbstatet@@@2@V32@H@Z 1001b5d0 f i CSX_Log.obj
 0001:0001a6a0       ?setbuf@?$basic_filebuf@DU?$char_traits@D@std@@@std@@MAEPAV?$basic_streambuf@DU?$char_traits@D@std@@@2@PAD_J@Z 1001b6a0 f i CSX_Log.obj
 0001:0001a6f0       ?sync@?$basic_filebuf@DU?$char_traits@D@std@@@std@@MAEHXZ 1001b6f0 f i CSX_Log.obj
 0001:0001a720       ?imbue@?$basic_filebuf@DU?$char_traits@D@std@@@std@@MAEXABVlocale@2@@Z 1001b720 f i CSX_Log.obj
 0001:0001a760       ??_E?$basic_filebuf@DU?$char_traits@D@std@@@std@@UAEPAXI@Z 1001b760 f i CSX_Log.obj
 0001:0001a760       ??_G?$basic_filebuf@DU?$char_traits@D@std@@@std@@UAEPAXI@Z 1001b760 f i CSX_Log.obj
 0001:0001a7f2       ??_E?$basic_ofstream@DU?$char_traits@D@std@@@std@@$4PPPPPPPM@A@AEPAXI@Z 1001b7f2 f i CSX_Log.obj
 0001:0001a800       ?Add@Log@CSX@@SAXPBDZZ     1001b800 f   CSX_Log.obj
 0001:0001a8d0       ?Add@Log@CSX@@SAXABV?$basic_string@DU?$char_traits@D@std@@V?$allocator@D@2@@std@@@Z 1001b8d0 f   CSX_Log.obj
 0001:0001a950       ??$?6U?$char_traits@D@std@@@std@@YAAAV?$basic_ostream@DU?$char_traits@D@std@@@0@AAV10@PBD@Z 1001b950 f i CSX_Log.obj
 0001:0001aba0       ??$_Fputc@D@std@@YA_NDPAU_iobuf@@@Z 1001bba0 f i CSX_Log.obj
 0001:0001abc0       ??$_Insert_string@DU?$char_traits@D@std@@I@std@@YAAAV?$basic_ostream@DU?$char_traits@D@std@@@0@AAV10@QBDI@Z 1001bbc0 f i CSX_Log.obj
 0001:0001add0       ??$endl@DU?$char_traits@D@std@@@std@@YAAAV?$basic_ostream@DU?$char_traits@D@std@@@0@AAV10@@Z 1001bdd0 f i CSX_Log.obj
 0001:0001ae00       ??$use_facet@V?$codecvt@DDU_Mbstatet@@@std@@@std@@YAABV?$codecvt@DDU_Mbstatet@@@0@ABVlocale@0@@Z 1001be00 f i CSX_Log.obj
 0001:0001af00       ??0bad_cast@std@@QAE@ABV01@@Z 1001bf00 f i CSX_Log.obj
 0001:0001af40       ??0bad_cast@std@@QAE@XZ    1001bf40 f i CSX_Log.obj
 0001:0001af60       ??0exception@std@@QAE@ABV01@@Z 1001bf60 f i CSX_Log.obj
 0001:0001af90       ??1?$unique_ptr@V_Facet_base@std@@U?$default_delete@V_Facet_base@std@@@2@@std@@QAE@XZ 1001bf90 f i CSX_Log.obj
 0001:0001afa0       ??1_Sentry_base@?$basic_ostream@DU?$char_traits@D@std@@@std@@QAE@XZ 1001bfa0 f i CSX_Log.obj
 0001:0001aff0       ??1bad_alloc@std@@UAE@XZ   1001bff0 f i MSVCRT:throw_bad_alloc.obj
 0001:0001aff0       ??1bad_cast@std@@UAE@XZ    1001bff0 f i CSX_Log.obj
 0001:0001aff0       ??1range_error@std@@UAE@XZ 1001bff0 f i SkinChanger.obj
 0001:0001aff0       ??1bad_array_new_length@std@@UAE@XZ 1001bff0 f i MSVCRT:throw_bad_alloc.obj
 0001:0001b010       ??1locale@std@@QAE@XZ      1001c010 f i CSX_Log.obj
 0001:0001b060       ??1sentry@?$basic_ostream@DU?$char_traits@D@std@@@std@@QAE@XZ 1001c060 f i CSX_Log.obj
 0001:0001b0d0       ??_D?$basic_ofstream@DU?$char_traits@D@std@@@std@@QAEXXZ 1001c0d0 f i CSX_Log.obj
 0001:0001b180       ??_G?$basic_ofstream@DU?$char_traits@D@std@@@std@@UAEPAXI@Z 1001c180 f i CSX_Log.obj
 0001:0001b180       ??_E?$basic_ofstream@DU?$char_traits@D@std@@@std@@UAEPAXI@Z 1001c180 f i CSX_Log.obj
 0001:0001b1b0       ??_Ebad_cast@std@@UAEPAXI@Z 1001c1b0 f i CSX_Log.obj
 0001:0001b1b0       ??_Gbad_cast@std@@UAEPAXI@Z 1001c1b0 f i CSX_Log.obj
 0001:0001b1b0       ??_Eruntime_error@std@@UAEPAXI@Z 1001c1b0 f i SkinChanger.obj
 0001:0001b1b0       ??_Gexception@std@@UAEPAXI@Z 1001c1b0 f i CSX_Log.obj
 0001:0001b1b0       ??_Gruntime_error@std@@UAEPAXI@Z 1001c1b0 f i SkinChanger.obj
 0001:0001b1b0       ??_Eexception@std@@UAEPAXI@Z 1001c1b0 f i CSX_Log.obj
 0001:0001b1b0       ??_Erange_error@std@@UAEPAXI@Z 1001c1b0 f i SkinChanger.obj
 0001:0001b1b0       ??_Grange_error@std@@UAEPAXI@Z 1001c1b0 f i SkinChanger.obj
 0001:0001b1e0       ?_Endwrite@?$basic_filebuf@DU?$char_traits@D@std@@@std@@IAE_NXZ 1001c1e0 f i CSX_Log.obj
 0001:0001b2a0       ?_Init@?$basic_filebuf@DU?$char_traits@D@std@@@std@@IAEXPAU_iobuf@@W4_Initfl@12@@Z 1001c2a0 f i CSX_Log.obj
 0001:0001b330       ?_Reset_back@?$basic_filebuf@DU?$char_traits@D@std@@@std@@AAEXXZ 1001c330 f i CSX_Log.obj
 0001:0001b360       ?close@?$basic_filebuf@DU?$char_traits@D@std@@@std@@QAEPAV12@XZ 1001c360 f i CSX_Log.obj
 0001:0001b3d0       ?open@?$basic_ofstream@DU?$char_traits@D@std@@@std@@QAEXPBDHH@Z 1001c3d0 f i CSX_Log.obj
 0001:0001b4e0       ?push_back@?$basic_string@DU?$char_traits@D@std@@V?$allocator@D@2@@std@@QAEXD@Z 1001c4e0 f i CSX_Log.obj
 0001:0001b5f0       ?what@exception@std@@UBEPBDXZ 1001c5f0 f i CSX_Log.obj
 0001:0001b600       ?FindSignature@Memory@CSX@@YAKPBD0PAD@Z 1001c600 f   CSX_Memory.obj
 0001:0001b6e0       ?FindPatternV2@Memory@CSX@@YAKV?$basic_string@DU?$char_traits@D@std@@V?$allocator@D@2@@std@@0@Z 1001c6e0 f   CSX_Memory.obj
 0001:0001b880       ?FindPushString@Memory@CSX@@YAKKKK@Z 1001c880 f   CSX_Memory.obj
 0001:0001b900       ?FindPushString@Memory@CSX@@YAKPADK@Z 1001c900 f   CSX_Memory.obj
 0001:0001b9b0       ?FindPattern@Memory@CSX@@YAKPAD0KKK@Z 1001c9b0 f   CSX_Memory.obj
 0001:0001ba20       ?FindPattern@Memory@CSX@@YAKPAD00K@Z 1001ca20 f   CSX_Memory.obj
 0001:0001bad0       ?FindPattern@Memory@CSX@@YAKPADKKKK@Z 1001cad0 f   CSX_Memory.obj
 0001:0001bb20       ?FindPattern@Memory@CSX@@YAKPAD0KK@Z 1001cb20 f   CSX_Memory.obj
 0001:0001bb80       ?FindPBYTEPattern@Memory@CSX@@YAKV?$basic_string@DU?$char_traits@D@std@@V?$allocator@D@2@@std@@PAE0KK@Z 1001cb80 f   CSX_Memory.obj
 0001:0001bca0       ?FindString@Memory@CSX@@YAKPAD0@Z 1001cca0 f   CSX_Memory.obj
 0001:0001bd00       ?FindPattern@Memory@CSX@@YAKPADKKK@Z 1001cd00 f   CSX_Memory.obj
 0001:0001bde0       ?FindPattern@Memory@CSX@@YAKPAD0K@Z 1001cde0 f   CSX_Memory.obj
 0001:0001bf00       ?nt_memset@Memory@CSX@@YAXPAXKK@Z 1001cf00 f   CSX_Memory.obj
 0001:0001bf20       ?NewPatternScan@Memory@CSX@@YAPAEPAXPBD@Z 1001cf20 f   CSX_Memory.obj
 0001:0001bfe0       ?nt_memcpy@Memory@CSX@@YAXPAX0I@Z 1001cfe0 f   CSX_Memory.obj
 0001:0001c000       ?GetModuleInfo@@YA?AU_MODULEINFO@@PAD@Z 1001d000 f   CSX_Memory.obj
 0001:0001c040       ?FindSig@Memory@CSX@@YAKKKPBD@Z 1001d040 f   CSX_Memory.obj
 0001:0001c100       ??$_Emplace_reallocate@ABQAURecvTable@@@?$vector@PAURecvTable@@V?$allocator@PAURecvTable@@@std@@@std@@QAEPAPAURecvTable@@QAPAU2@ABQAU2@@Z 1001d100 f i NetVarManager.obj
 0001:0001c100       ??$_Emplace_reallocate@H@?$vector@HV?$allocator@H@std@@@std@@QAEPAHQAH$$QAH@Z 1001d100 f i CSX_Memory.obj
 0001:0001c260       ??1?$vector@V?$_List_unchecked_iterator@V?$_List_val@U?$_List_simple_types@U?$pair@$$CBV?$basic_string@DU?$char_traits@D@std@@V?$allocator@D@2@@std@@UskinInfo@@@std@@@std@@@std@@@std@@V?$allocator@V?$_List_unchecked_iterator@V?$_List_val@U?$_List_simple_types@U?$pair@$$CBV?$basic_string@DU?$char_traits@D@std@@V?$allocator@D@2@@std@@UskinInfo@@@std@@@std@@@std@@@std@@@2@@std@@QAE@XZ 1001d260 f i Configuration.obj
 0001:0001c260       ??1?$vector@V?$_List_unchecked_iterator@V?$_List_val@U?$_List_simple_types@U?$pair@$$CBV?$basic_string@DU?$char_traits@D@std@@V?$allocator@D@2@@std@@V?$set@V?$basic_string@DU?$char_traits@D@std@@V?$allocator@D@2@@std@@U?$less@V?$basic_string@DU?$char_traits@D@std@@V?$allocator@D@2@@std@@@2@V?$allocator@V?$basic_string@DU?$char_traits@D@std@@V?$allocator@D@2@@std@@@2@@2@@std@@@std@@@std@@@std@@V?$allocator@V?$_List_unchecked_iterator@V?$_List_val@U?$_List_simple_types@U?$pair@$$CBV?$basic_string@DU?$char_traits@D@std@@V?$allocator@D@2@@std@@V?$set@V?$basic_string@DU?$char_traits@D@std@@V?$allocator@D@2@@std@@U?$less@V?$basic_string@DU?$char_traits@D@std@@V?$allocator@D@2@@std@@@2@V?$allocator@V?$basic_string@DU?$char_traits@D@std@@V?$allocator@D@2@@std@@@2@@2@@std@@@std@@@std@@@std@@@2@@std@@QAE@XZ 1001d260 f i Configuration.obj
 0001:0001c260       ??1?$vector@HV?$allocator@H@std@@@std@@QAE@XZ 1001d260 f i CSX_Memory.obj
 0001:0001c260       ??1?$vector@V?$_List_unchecked_iterator@V?$_List_val@U?$_List_simple_types@U?$pair@QADPAD@std@@@std@@@std@@@std@@V?$allocator@V?$_List_unchecked_iterator@V?$_List_val@U?$_List_simple_types@U?$pair@QADPAD@std@@@std@@@std@@@std@@@2@@std@@QAE@XZ 1001d260 f i SkinChanger.obj
 0001:0001c260       ??1?$vector@V?$_List_unchecked_iterator@V?$_List_val@U?$_List_simple_types@U?$pair@$$CBHPBD@std@@@std@@@std@@@std@@V?$allocator@V?$_List_unchecked_iterator@V?$_List_val@U?$_List_simple_types@U?$pair@$$CBHPBD@std@@@std@@@std@@@std@@@2@@std@@QAE@XZ 1001d260 f i SkinChanger.obj
 0001:0001c260       ??1?$vector@V?$_List_unchecked_iterator@V?$_List_val@U?$_List_simple_types@U?$pair@QBDPBD@std@@@std@@@std@@@std@@V?$allocator@V?$_List_unchecked_iterator@V?$_List_val@U?$_List_simple_types@U?$pair@QBDPBD@std@@@std@@@std@@@std@@@2@@std@@QAE@XZ 1001d260 f i SkinChanger.obj
 0001:0001c260       ??1?$vector@V?$_List_unchecked_iterator@V?$_List_val@U?$_List_simple_types@U?$pair@$$CBHPAX@std@@@std@@@std@@@std@@V?$allocator@V?$_List_unchecked_iterator@V?$_List_val@U?$_List_simple_types@U?$pair@$$CBHPAX@std@@@std@@@std@@@std@@@2@@std@@QAE@XZ 1001d260 f i Hooks.obj
 0001:0001c260       ??1?$vector@V?$_List_unchecked_iterator@V?$_List_val@U?$_List_simple_types@U?$pair@$$CBV?$basic_string@DU?$char_traits@D@std@@V?$allocator@D@2@@std@@V12@@std@@@std@@@std@@@std@@V?$allocator@V?$_List_unchecked_iterator@V?$_List_val@U?$_List_simple_types@U?$pair@$$CBV?$basic_string@DU?$char_traits@D@std@@V?$allocator@D@2@@std@@V12@@std@@@std@@@std@@@std@@@2@@std@@QAE@XZ 1001d260 f i Configuration.obj
 0001:0001c3c0       ?_Xlength@?$vector@V?$_List_unchecked_iterator@V?$_List_val@U?$_List_simple_types@U?$pair@$$CBV?$basic_string@DU?$char_traits@D@std@@V?$allocator@D@2@@std@@V?$set@V?$basic_string@DU?$char_traits@D@std@@V?$allocator@D@2@@std@@U?$less@V?$basic_string@DU?$char_traits@D@std@@V?$allocator@D@2@@std@@@2@V?$allocator@V?$basic_string@DU?$char_traits@D@std@@V?$allocator@D@2@@std@@@2@@2@@std@@@std@@@std@@@std@@V?$allocator@V?$_List_unchecked_iterator@V?$_List_val@U?$_List_simple_types@U?$pair@$$CBV?$basic_string@DU?$char_traits@D@std@@V?$allocator@D@2@@std@@V?$set@V?$basic_string@DU?$char_traits@D@std@@V?$allocator@D@2@@std@@U?$less@V?$basic_string@DU?$char_traits@D@std@@V?$allocator@D@2@@std@@@2@V?$allocator@V?$basic_string@DU?$char_traits@D@std@@V?$allocator@D@2@@std@@@2@@2@@std@@@std@@@std@@@std@@@2@@std@@CAXXZ 1001d3c0 f i Configuration.obj
 0001:0001c3c0       ?_Xlength@?$vector@U?$pair@VVector@@V1@@std@@V?$allocator@U?$pair@VVector@@V1@@std@@@2@@std@@CAXXZ 1001d3c0 f i GrenadePrediction.obj
 0001:0001c3c0       ?_Xlength@?$vector@Vcbullet_tracer_info@@V?$allocator@Vcbullet_tracer_info@@@std@@@std@@CAXXZ 1001d3c0 f i Hooks.obj
 0001:0001c3c0       ?_Xlength@?$vector@VVector@@V?$allocator@VVector@@@std@@@std@@CAXXZ 1001d3c0 f i GrenadePrediction.obj
 0001:0001c3c0       ?_Xlength@?$vector@PAURecvTable@@V?$allocator@PAURecvTable@@@std@@@std@@CAXXZ 1001d3c0 f i NetVarManager.obj
 0001:0001c3c0       ?_Xlength@?$vector@V?$shared_ptr@VNode@valve_parser@@@std@@V?$allocator@V?$shared_ptr@VNode@valve_parser@@@std@@@2@@std@@CAXXZ 1001d3c0 f i SkinParser.obj
 0001:0001c3c0       ?_Xlength@?$vector@V?$_List_unchecked_iterator@V?$_List_val@U?$_List_simple_types@U?$pair@$$CBV?$basic_string@DU?$char_traits@D@std@@V?$allocator@D@2@@std@@V12@@std@@@std@@@std@@@std@@V?$allocator@V?$_List_unchecked_iterator@V?$_List_val@U?$_List_simple_types@U?$pair@$$CBV?$basic_string@DU?$char_traits@D@std@@V?$allocator@D@2@@std@@V12@@std@@@std@@@std@@@std@@@2@@std@@CAXXZ 1001d3c0 f i Configuration.obj
 0001:0001c3c0       ?_Xlength@?$vector@_SV?$allocator@_S@std@@@std@@CAXXZ 1001d3c0 f i SkinParser.obj
 0001:0001c3c0       ?_Xlength@?$vector@V?$_List_unchecked_iterator@V?$_List_val@U?$_List_simple_types@U?$pair@$$CBV?$basic_string@DU?$char_traits@D@std@@V?$allocator@D@2@@std@@UskinInfo@@@std@@@std@@@std@@@std@@V?$allocator@V?$_List_unchecked_iterator@V?$_List_val@U?$_List_simple_types@U?$pair@$$CBV?$basic_string@DU?$char_traits@D@std@@V?$allocator@D@2@@std@@UskinInfo@@@std@@@std@@@std@@@std@@@2@@std@@CAXXZ 1001d3c0 f i Configuration.obj
 0001:0001c3c0       ?_Xlength@?$vector@V?$_List_unchecked_iterator@V?$_List_val@U?$_List_simple_types@U?$pair@$$CBHPAX@std@@@std@@@std@@@std@@V?$allocator@V?$_List_unchecked_iterator@V?$_List_val@U?$_List_simple_types@U?$pair@$$CBHPAX@std@@@std@@@std@@@std@@@2@@std@@CAXXZ 1001d3c0 f i Hooks.obj
 0001:0001c3c0       ?_Xlength@?$vector@V?$basic_string@DU?$char_traits@D@std@@V?$allocator@D@2@@std@@V?$allocator@V?$basic_string@DU?$char_traits@D@std@@V?$allocator@D@2@@std@@@2@@std@@CAXXZ 1001d3c0 f i Hooks.obj
 0001:0001c3c0       ?_Xlength@?$vector@V?$_List_unchecked_iterator@V?$_List_val@U?$_List_simple_types@U?$pair@QBDPBD@std@@@std@@@std@@@std@@V?$allocator@V?$_List_unchecked_iterator@V?$_List_val@U?$_List_simple_types@U?$pair@QBDPBD@std@@@std@@@std@@@std@@@2@@std@@CAXXZ 1001d3c0 f i SkinChanger.obj
 0001:0001c3c0       ?_Xlength@?$vector@V?$_List_unchecked_iterator@V?$_List_val@U?$_List_simple_types@U?$pair@$$CBHPBD@std@@@std@@@std@@@std@@V?$allocator@V?$_List_unchecked_iterator@V?$_List_val@U?$_List_simple_types@U?$pair@$$CBHPBD@std@@@std@@@std@@@std@@@2@@std@@CAXXZ 1001d3c0 f i Hooks.obj
 0001:0001c3c0       ?_Xlength@?$vector@UVertex_t@@V?$allocator@UVertex_t@@@std@@@std@@CAXXZ 1001d3c0 f i Render.obj
 0001:0001c3c0       ?_Xlength@?$vector@HV?$allocator@H@std@@@std@@CAXXZ 1001d3c0 f i CSX_Memory.obj
 0001:0001c3c0       ?_Xlength@?$vector@UColorP@@V?$allocator@UColorP@@@std@@@std@@CAXXZ 1001d3c0 f i DLLMain.obj
 0001:0001c3c0       ?_Xlength@?$vector@V?$_List_unchecked_iterator@V?$_List_val@U?$_List_simple_types@U?$pair@QADPAD@std@@@std@@@std@@@std@@V?$allocator@V?$_List_unchecked_iterator@V?$_List_val@U?$_List_simple_types@U?$pair@QADPAD@std@@@std@@@std@@@std@@@2@@std@@CAXXZ 1001d3c0 f i SkinChanger.obj
 0001:0001c3d0       ?IsModuleLoad@Utils@CSX@@YA_NPADK@Z 1001d3d0 f   CSX_Utils.obj
 0001:0001c430       ?GetCurrentProcessPath@Utils@CSX@@YA?AV?$basic_string@DU?$char_traits@D@std@@V?$allocator@D@2@@std@@XZ 1001d430 f   CSX_Utils.obj
 0001:0001c520       ?GetCurrentProcessName@Utils@CSX@@YA?AV?$basic_string@DU?$char_traits@D@std@@V?$allocator@D@2@@std@@XZ 1001d520 f   CSX_Utils.obj
 0001:0001c640       ?GetModuleFilePath@Utils@CSX@@YA?AV?$basic_string@DU?$char_traits@D@std@@V?$allocator@D@2@@std@@PAUHINSTANCE__@@@Z 1001d640 f   CSX_Utils.obj
 0001:0001c730       ?GetModuleBaseDir@Utils@CSX@@YA?AV?$basic_string@DU?$char_traits@D@std@@V?$allocator@D@2@@std@@PAUHINSTANCE__@@@Z 1001d730 f   CSX_Utils.obj
 0001:0001c810       ?RandomIntRange@Utils@CSX@@YAHHH@Z 1001d810 f   CSX_Utils.obj
 0001:0001c850       ?GetHwProfileGUID@Utils@CSX@@YA?AV?$basic_string@DU?$char_traits@D@std@@V?$allocator@D@2@@std@@XZ 1001d850 f   CSX_Utils.obj
 0001:0001c8e0       ?IsBadReadPtr@Utils@CSX@@YA_NPAX@Z 1001d8e0 f   CSX_Utils.obj
 0001:0001c930       ?ConvertStringToBSTR_UTF8@Utils@CSX@@YAPA_WPBD@Z 1001d930 f   CSX_Utils.obj
 0001:0001c9a0       ?GetHackWorkingDirectory@Utils@CSX@@YA?AV?$basic_string@DU?$char_traits@D@std@@V?$allocator@D@2@@std@@XZ 1001d9a0 f   CSX_Utils.obj
 0001:0001ca60       ?find_last_of@?$basic_string@DU?$char_traits@D@std@@V?$allocator@D@2@@std@@QBEIQBDI@Z 1001da60 f i CSX_Utils.obj
 0001:0001cb40       ??0CGui@@QAE@XZ            1001db40 f   Gui.obj
 0001:0001cb50       ??1CGui@@QAE@XZ            1001db50 f   Gui.obj
 0001:0001cb90       ?GUI_Init@CGui@@QAEXPAUIDirect3DDevice9@@@Z 1001db90 f   Gui.obj
 0001:0001cd60       ?GUI_Begin_Render@CGui@@QAEXXZ 1001dd60 f   Gui.obj
 0001:0001cd70       ?GUI_End_Render@CGui@@QAEXXZ 1001dd70 f   Gui.obj
 0001:0001cd80       ?GUI_Draw_Elements@CGui@@QAEXXZ 1001dd80 f   Gui.obj
 0001:0001ce50       ?BlackSheme@CGui@@QAEXXZ   1001de50 f   Gui.obj
 0001:0001d170       ?RedSheme@CGui@@QAEXXZ     1001e170 f   Gui.obj
 0001:0001d3c0       ?MenuColor@CGui@@QAEXXZ    1001e3c0 f   Gui.obj
 0001:0001d410       ?purple@CGui@@QAEXXZ       1001e410 f   Gui.obj
 0001:0001d660       ?DefaultSheme1@CGui@@QAEXXZ 1001e660 f   Gui.obj
 0001:0001d8b0       ?darkblue@CGui@@QAEXXZ     1001e8b0 f   Gui.obj
 0001:0001db00       ?MidNightSheme@CGui@@QAEXXZ 1001eb00 f   Gui.obj
 0001:0001dd50       ?NightSheme@CGui@@QAEXXZ   1001ed50 f   Gui.obj
 0001:0001dfa0       ?DunnoSheme@CGui@@QAEXXZ   1001efa0 f   Gui.obj
 0001:0001e1f0       ?BlueSheme@CGui@@QAEXXZ    1001f1f0 f   Gui.obj
 0001:0001e440       ?MidNight2@CGui@@QAEXXZ    1001f440 f   Gui.obj
 0001:0001e690       ?BlackSheme2@CGui@@QAEXXZ  1001f690 f   Gui.obj
 0001:0001e8e0       ?green@CGui@@QAEXXZ        1001f8e0 f   Gui.obj
 0001:0001eb30       ?pink@CGui@@QAEXXZ         1001fb30 f   Gui.obj
 0001:0001ed80       ?blue@CGui@@QAEXXZ         1001fd80 f   Gui.obj
 0001:0001efd0       ?yellow@CGui@@QAEXXZ       1001ffd0 f   Gui.obj
 0001:0001f220       ?ComboBoxArray@ImGui@@YA_NPBDPAHAAV?$vector@V?$basic_string@DU?$char_traits@D@std@@V?$allocator@D@2@@std@@V?$allocator@V?$basic_string@DU?$char_traits@D@std@@V?$allocator@D@2@@std@@@2@@std@@@Z 10020220 f   Gui.obj
 0001:0001f260       ?TabLabels@ImGui@@YA_NPAPBDHAAHPAH@Z 10020260 f   Gui.obj
 0001:0001f5d0       ?GUI_WndProc@@YGJPAUHWND__@@IIJ@Z 100205d0 f   Gui.obj
 0001:0001f980       ??$_Buynode@ABU?$pair@$$CBW4ItemDefinitionIndexx@@UDefItem_t@@@std@@@?$_Tree_comp_alloc@V?$_Tmap_traits@W4ItemDefinitionIndexx@@UDefItem_t@@U?$less@W4ItemDefinitionIndexx@@@std@@V?$allocator@U?$pair@$$CBW4ItemDefinitionIndexx@@UDefItem_t@@@std@@@4@$0A@@std@@@std@@QAEPAU?$_Tree_node@U?$pair@$$CBW4ItemDefinitionIndexx@@UDefItem_t@@@std@@PAX@1@ABU?$pair@$$CBW4ItemDefinitionIndexx@@UDefItem_t@@@1@@Z 10020980 f i Gui.obj
 0001:0001f9b0       ??$_Insert_at@AAU?$pair@$$CBW4ItemDefinitionIndexx@@UDefItem_t@@@std@@PAU?$_Tree_node@U?$pair@$$CBW4ItemDefinitionIndexx@@UDefItem_t@@@std@@PAX@2@@?$_Tree@V?$_Tmap_traits@W4ItemDefinitionIndexx@@UDefItem_t@@U?$less@W4ItemDefinitionIndexx@@@std@@V?$allocator@U?$pair@$$CBW4ItemDefinitionIndexx@@UDefItem_t@@@std@@@4@$0A@@std@@@std@@IAE?AV?$_Tree_iterator@V?$_Tree_val@U?$_Tree_simple_types@U?$pair@$$CBW4ItemDefinitionIndexx@@UDefItem_t@@@std@@@std@@@std@@@1@_NPAU?$_Tree_node@U?$pair@$$CBW4ItemDefinitionIndexx@@UDefItem_t@@@std@@PAX@1@AAU?$pair@$$CBW4ItemDefinitionIndexx@@UDefItem_t@@@1@1@Z 100209b0 f i Gui.obj
 0001:0001fb10       ??$_Insert_hint@AAU?$pair@$$CBW4ItemDefinitionIndexx@@UDefItem_t@@@std@@PAU?$_Tree_node@U?$pair@$$CBW4ItemDefinitionIndexx@@UDefItem_t@@@std@@PAX@2@@?$_Tree@V?$_Tmap_traits@W4ItemDefinitionIndexx@@UDefItem_t@@U?$less@W4ItemDefinitionIndexx@@@std@@V?$allocator@U?$pair@$$CBW4ItemDefinitionIndexx@@UDefItem_t@@@std@@@4@$0A@@std@@@std@@IAE?AV?$_Tree_iterator@V?$_Tree_val@U?$_Tree_simple_types@U?$pair@$$CBW4ItemDefinitionIndexx@@UDefItem_t@@@std@@@std@@@std@@@1@V?$_Tree_const_iterator@V?$_Tree_val@U?$_Tree_simple_types@U?$pair@$$CBW4ItemDefinitionIndexx@@UDefItem_t@@@std@@@std@@@std@@@1@AAU?$pair@$$CBW4ItemDefinitionIndexx@@UDefItem_t@@@1@PAU?$_Tree_node@U?$pair@$$CBW4ItemDefinitionIndexx@@UDefItem_t@@@std@@PAX@1@@Z 10020b10 f i Gui.obj
 0001:0001fd30       ??$_Insert_nohint@AAU?$pair@$$CBW4ItemDefinitionIndexx@@UDefItem_t@@@std@@PAU?$_Tree_node@U?$pair@$$CBW4ItemDefinitionIndexx@@UDefItem_t@@@std@@PAX@2@@?$_Tree@V?$_Tmap_traits@W4ItemDefinitionIndexx@@UDefItem_t@@U?$less@W4ItemDefinitionIndexx@@@std@@V?$allocator@U?$pair@$$CBW4ItemDefinitionIndexx@@UDefItem_t@@@std@@@4@$0A@@std@@@std@@IAE?AU?$pair@V?$_Tree_iterator@V?$_Tree_val@U?$_Tree_simple_types@U?$pair@$$CBW4ItemDefinitionIndexx@@UDefItem_t@@@std@@@std@@@std@@@std@@_N@1@_NAAU?$pair@$$CBW4ItemDefinitionIndexx@@UDefItem_t@@@1@PAU?$_Tree_node@U?$pair@$$CBW4ItemDefinitionIndexx@@UDefItem_t@@@std@@PAX@1@@Z 10020d30 f i Gui.obj
 0001:0001fe50       ??1?$_Tree@V?$_Tmap_traits@W4ItemDefinitionIndexx@@UDefItem_t@@U?$less@W4ItemDefinitionIndexx@@@std@@V?$allocator@U?$pair@$$CBW4ItemDefinitionIndexx@@UDefItem_t@@@std@@@4@$0A@@std@@@std@@QAE@XZ 10020e50 f i Gui.obj
 0001:0001fef0       ??E?$_Tree_const_iterator@V?$_Tree_val@U?$_Tree_simple_types@U?$pair@$$CBW4ItemDefinitionIndexx@@UDefItem_t@@@std@@@std@@@std@@@std@@QAEAAV01@XZ 10020ef0 f i Gui.obj
 0001:0001fef0       ??E?$_Tree_unchecked_const_iterator@V?$_Tree_val@U?$_Tree_simple_types@U?$pair@$$CBHM@std@@@std@@@std@@U_Iterator_base0@2@@std@@QAEAAV01@XZ 10020ef0 f i Resolver2.obj
 0001:0001fef0       ??E?$_Tree_const_iterator@V?$_Tree_val@U?$_Tree_simple_types@U?$pair@$$CBHVVector@@@std@@@std@@@std@@@std@@QAEAAV01@XZ 10020ef0 f i Resolver2.obj
 0001:0001ff50       ??F?$_Tree_const_iterator@V?$_Tree_val@U?$_Tree_simple_types@U?$pair@$$CBW4ItemDefinitionIndexx@@UDefItem_t@@@std@@@std@@@std@@@std@@QAEAAV01@XZ 10020f50 f i Gui.obj
 0001:0001ff50       ??F?$_Tree_const_iterator@V?$_Tree_val@U?$_Tree_simple_types@U?$pair@$$CBHM@std@@@std@@@std@@@std@@QAEAAV01@XZ 10020f50 f i Resolver2.obj
 0001:0001ff50       ??F?$_Tree_const_iterator@V?$_Tree_val@U?$_Tree_simple_types@U?$pair@$$CBHVVector@@@std@@@std@@@std@@@std@@QAEAAV01@XZ 10020f50 f i Resolver2.obj
 0001:0001ffe0       ?_Buyheadnode@?$_Tree_comp_alloc@V?$_Tmap_traits@W4ItemDefinitionIndexx@@UDefItem_t@@U?$less@W4ItemDefinitionIndexx@@@std@@V?$allocator@U?$pair@$$CBW4ItemDefinitionIndexx@@UDefItem_t@@@std@@@4@$0A@@std@@@std@@QAEPAU?$_Tree_node@U?$pair@$$CBW4ItemDefinitionIndexx@@UDefItem_t@@@std@@PAX@2@XZ 10020fe0 f i Gui.obj
 0001:00020000       ?_Buynode0@?$_Tree_comp_alloc@V?$_Tmap_traits@W4ItemDefinitionIndexx@@UDefItem_t@@U?$less@W4ItemDefinitionIndexx@@@std@@V?$allocator@U?$pair@$$CBW4ItemDefinitionIndexx@@UDefItem_t@@@std@@@4@$0A@@std@@@std@@QAEPAU?$_Tree_node@U?$pair@$$CBW4ItemDefinitionIndexx@@UDefItem_t@@@std@@PAX@2@XZ 10021000 f i Gui.obj
 0001:00020020       ?_Destroy_if_node@?$_Tree@V?$_Tmap_traits@W4ItemDefinitionIndexx@@UDefItem_t@@U?$less@W4ItemDefinitionIndexx@@@std@@V?$allocator@U?$pair@$$CBW4ItemDefinitionIndexx@@UDefItem_t@@@std@@@4@$0A@@std@@@std@@IAEXPAU?$_Tree_node@U?$pair@$$CBW4ItemDefinitionIndexx@@UDefItem_t@@@std@@PAX@2@@Z 10021020 f i Gui.obj
 0001:00020040       ?_Erase@?$_Tree@V?$_Tmap_traits@W4ItemDefinitionIndexx@@UDefItem_t@@U?$less@W4ItemDefinitionIndexx@@@std@@V?$allocator@U?$pair@$$CBW4ItemDefinitionIndexx@@UDefItem_t@@@std@@@4@$0A@@std@@@std@@IAEXPAU?$_Tree_node@U?$pair@$$CBW4ItemDefinitionIndexx@@UDefItem_t@@@std@@PAX@2@@Z 10021040 f i Gui.obj
 0001:00020080       ?_Lrotate@?$_Tree_val@U?$_Tree_simple_types@V?$basic_string@DU?$char_traits@D@std@@V?$allocator@D@2@@std@@@std@@@std@@QAEXPAU?$_Tree_node@V?$basic_string@DU?$char_traits@D@std@@V?$allocator@D@2@@std@@PAX@2@@Z 10021080 f i Hooks.obj
 0001:00020080       ?_Lrotate@?$_Tree_val@U?$_Tree_simple_types@U?$pair@$$CBW4ItemDefinitionIndexx@@UDefItem_t@@@std@@@std@@@std@@QAEXPAU?$_Tree_node@U?$pair@$$CBW4ItemDefinitionIndexx@@UDefItem_t@@@std@@PAX@2@@Z 10021080 f i Gui.obj
 0001:00020080       ?_Lrotate@?$_Tree_val@U?$_Tree_simple_types@U?$pair@$$CBHM@std@@@std@@@std@@QAEXPAU?$_Tree_node@U?$pair@$$CBHM@std@@PAX@2@@Z 10021080 f i Resolver2.obj
 0001:00020080       ?_Lrotate@?$_Tree_val@U?$_Tree_simple_types@U?$pair@$$CBHVVector@@@std@@@std@@@std@@QAEXPAU?$_Tree_node@U?$pair@$$CBHVVector@@@std@@PAX@2@@Z 10021080 f i Resolver2.obj
 0001:000200e0       ?_Rrotate@?$_Tree_val@U?$_Tree_simple_types@U?$pair@$$CBHM@std@@@std@@@std@@QAEXPAU?$_Tree_node@U?$pair@$$CBHM@std@@PAX@2@@Z 100210e0 f i Resolver2.obj
 0001:000200e0       ?_Rrotate@?$_Tree_val@U?$_Tree_simple_types@U?$pair@$$CBHVVector@@@std@@@std@@@std@@QAEXPAU?$_Tree_node@U?$pair@$$CBHVVector@@@std@@PAX@2@@Z 100210e0 f i Resolver2.obj
 0001:000200e0       ?_Rrotate@?$_Tree_val@U?$_Tree_simple_types@U?$pair@$$CBW4ItemDefinitionIndexx@@UDefItem_t@@@std@@@std@@@std@@QAEXPAU?$_Tree_node@U?$pair@$$CBW4ItemDefinitionIndexx@@UDefItem_t@@@std@@PAX@2@@Z 100210e0 f i Gui.obj
 0001:000200e0       ?_Rrotate@?$_Tree_val@U?$_Tree_simple_types@V?$basic_string@DU?$char_traits@D@std@@V?$allocator@D@2@@std@@@std@@@std@@QAEXPAU?$_Tree_node@V?$basic_string@DU?$char_traits@D@std@@V?$allocator@D@2@@std@@PAX@2@@Z 100210e0 f i Hooks.obj
 0001:00020140       ?_Xran@?$_String_val@U?$_Simple_types@D@std@@@std@@SAXXZ 10021140 f i Gui.obj
 0001:00020150       ?_Xrange@?$vector@Vcbullet_tracer_info@@V?$allocator@Vcbullet_tracer_info@@@std@@@std@@CAXXZ 10021150 f i ESP.obj
 0001:00020150       ?_Xrange@?$vector@V?$basic_string@DU?$char_traits@D@std@@V?$allocator@D@2@@std@@V?$allocator@V?$basic_string@DU?$char_traits@D@std@@V?$allocator@D@2@@std@@@2@@std@@CAXXZ 10021150 f i Gui.obj
 0001:00020160       ?insert@?$basic_string@DU?$char_traits@D@std@@V?$allocator@D@2@@std@@QAEAAV12@IQBDI@Z 10021160 f i Gui.obj
 0001:00020350       ?to_string@std@@YA?AV?$basic_string@DU?$char_traits@D@std@@V?$allocator@D@2@@1@H@Z 10021350 f i Gui.obj
 0001:000203d0       ?MyColorPicker3@ImGui@@YA_NPBDQAMH@Z 100213d0 f   imguicolorpicker.obj
 0001:00020460       ?MyColorPicker4@ImGui@@YA_NPBDQAMH@Z 10021460 f   imguicolorpicker.obj
 0001:00020d70       ?MyColorEdit3@ImGui@@YA_NPBDQAMH@Z 10021d70 f   imguicolorpicker.obj
 0001:00020e00       ?MyColorEdit4@ImGui@@YA_NPBDQAMH@Z 10021e00 f   imguicolorpicker.obj
 0001:000215f0       ?ColorPicker@ImGui@@YA_NPBDPAM@Z 100225f0 f   imguicolorpicker.obj
 0001:00021ed0       ??0nqdzhxb@@QAE@XZ         10022ed0 f   imguicolorpicker.obj
 0001:00022870       ?sdboblirvxru@nqdzhxb@@QAE?AV?$basic_string@DU?$char_traits@D@std@@V?$allocator@D@2@@std@@N_N0V23@N@Z 10023870 f   imguicolorpicker.obj
 0001:00022a90       ?deswwanqydolgscwxynsve@nqdzhxb@@QAE_NXZ 10023a90 f   imguicolorpicker.obj
 0001:00022aa0       ?xeecflibbn@nqdzhxb@@QAEHV?$basic_string@DU?$char_traits@D@std@@V?$allocator@D@2@@std@@0_N10NHN@Z 10023aa0 f   imguicolorpicker.obj
 0001:00022c10       ?seraekpctmycyd@nqdzhxb@@QAE?AV?$basic_string@DU?$char_traits@D@std@@V?$allocator@D@2@@std@@_NH@Z 10023c10 f   imguicolorpicker.obj
 0001:00022c40       ?fukrdppnogdsmfqqjmydqdoc@nqdzhxb@@QAEHNV?$basic_string@DU?$char_traits@D@std@@V?$allocator@D@2@@std@@NNHH_NH@Z 10023c40 f   imguicolorpicker.obj
 0001:00022d80       ?yceytinjorezpfewtrasx@nqdzhxb@@QAEHH_NHV?$basic_string@DU?$char_traits@D@std@@V?$allocator@D@2@@std@@1HN01@Z 10023d80 f   imguicolorpicker.obj
 0001:00022ef0       ?ratopzqiusntuamyocdjrzszd@nqdzhxb@@QAE?AV?$basic_string@DU?$char_traits@D@std@@V?$allocator@D@2@@std@@NHH_N00NH@Z 10023ef0 f   imguicolorpicker.obj
 0001:00023140       ?qgzwmzjiosu@nqdzhxb@@QAE?AV?$basic_string@DU?$char_traits@D@std@@V?$allocator@D@2@@std@@_N@Z 10024140 f   imguicolorpicker.obj
 0001:00023170       ?mnagmdljvlhekgvg@nqdzhxb@@QAEHXZ 10024170 f   imguicolorpicker.obj
 0001:00023390       ?rwzbngfejpxnfiavx@nqdzhxb@@IAEN_N0NV?$basic_string@DU?$char_traits@D@std@@V?$allocator@D@2@@std@@0N0H1@Z 10024390 f   imguicolorpicker.obj
 0001:00023420       ?xtuiabahlfztrhjj@nqdzhxb@@IAEXV?$basic_string@DU?$char_traits@D@std@@V?$allocator@D@2@@std@@@Z 10024420 f   imguicolorpicker.obj
 0001:000235b0       ?bsocjrbevqaxyumb@nqdzhxb@@IAEXH_N@Z 100245b0 f   imguicolorpicker.obj
 0001:00023760       ?wabobhvloqfqttowynkbxehkn@nqdzhxb@@IAENNNN@Z 10024760 f   imguicolorpicker.obj
 0001:00023770       ?mpdckvizihitri@nqdzhxb@@IAE?AV?$basic_string@DU?$char_traits@D@std@@V?$allocator@D@2@@std@@H_NH0H@Z 10024770 f   imguicolorpicker.obj
 0001:00023a70       ?dmgcrznjyuucfg@nqdzhxb@@IAEXH@Z 10024a70 f   imguicolorpicker.obj
 0001:00023b70       ?onmzlrgkophhcqteeygce@nqdzhxb@@IAE_NNHNHHNV?$basic_string@DU?$char_traits@D@std@@V?$allocator@D@2@@std@@N00@Z 10024b70 f   imguicolorpicker.obj
 0001:00024180       ?iqntklvllzfkmxnkyjlgludil@nqdzhxb@@IAEXNHNV?$basic_string@DU?$char_traits@D@std@@V?$allocator@D@2@@std@@N@Z 10025180 f   imguicolorpicker.obj
 0001:00024260       ?igckgccemwfavupzdnxblal@nqdzhxb@@IAENHNV?$basic_string@DU?$char_traits@D@std@@V?$allocator@D@2@@std@@@Z 10025260 f   imguicolorpicker.obj
 0001:000244c0       ?yientsppixlqe@nqdzhxb@@AAEHV?$basic_string@DU?$char_traits@D@std@@V?$allocator@D@2@@std@@@Z 100254c0 f   imguicolorpicker.obj
 0001:000245a0       ?oapdjpmqnrpbokcnhzf@nqdzhxb@@AAEXNN@Z 100255a0 f   imguicolorpicker.obj
 0001:00024700       ?uonkiolthjidbbvylaknvggya@nqdzhxb@@AAE_NHNH_NN@Z 10025700 f   imguicolorpicker.obj
 0001:00024710       ?xfbkewndokgbmva@nqdzhxb@@AAEHHV?$basic_string@DU?$char_traits@D@std@@V?$allocator@D@2@@std@@@Z 10025710 f   imguicolorpicker.obj
 0001:000248b0       ??0gpgqxpb@@QAE@XZ         100258b0 f   imguicolorpicker.obj
 0001:00025460       ?swpbnjerrijz@gpgqxpb@@QAEHHHHV?$basic_string@DU?$char_traits@D@std@@V?$allocator@D@2@@std@@0HNN@Z 10026460 f   imguicolorpicker.obj
 0001:00025810       ?zvkdqlitrstoi@gpgqxpb@@QAEHV?$basic_string@DU?$char_traits@D@std@@V?$allocator@D@2@@std@@N_NN100@Z 10026810 f   imguicolorpicker.obj
 0001:00025980       ?odxmcgsbdtmmcsfdf@gpgqxpb@@QAEXNV?$basic_string@DU?$char_traits@D@std@@V?$allocator@D@2@@std@@_NH1NN000@Z 10026980 f   imguicolorpicker.obj
 0001:00025b40       ?jeysykegyrwwiupbc@gpgqxpb@@QAE?AV?$basic_string@DU?$char_traits@D@std@@V?$allocator@D@2@@std@@V23@NHN000_NH@Z 10026b40 f   imguicolorpicker.obj
 0001:00025d80       ?dnvtigrrpezaiwk@gpgqxpb@@QAEHNN@Z 10026d80 f   imguicolorpicker.obj
 0001:00025d90       ?eklpisgscix@gpgqxpb@@QAE_N_NV?$basic_string@DU?$char_traits@D@std@@V?$allocator@D@2@@std@@101N1@Z 10026d90 f   imguicolorpicker.obj
 0001:00025f50       ?yuvkrgdsiphfeegwpxoriide@gpgqxpb@@QAEHV?$basic_string@DU?$char_traits@D@std@@V?$allocator@D@2@@std@@HHH0NHHH@Z 10026f50 f   imguicolorpicker.obj
 0001:000262a0       ?aiwsmgljifkonqvmzvahsx@gpgqxpb@@QAE?AV?$basic_string@DU?$char_traits@D@std@@V?$allocator@D@2@@std@@NV23@0H@Z 100272a0 f   imguicolorpicker.obj
 0001:000263f0       ?gpplnzrmahycvyqltuvi@gpgqxpb@@IAEXV?$basic_string@DU?$char_traits@D@std@@V?$allocator@D@2@@std@@_N1NN100H0@Z 100273f0 f   imguicolorpicker.obj
 0001:00026500       ?drmyfamskqf@gpgqxpb@@IAENHHNN_NNNV?$basic_string@DU?$char_traits@D@std@@V?$allocator@D@2@@std@@N1@Z 10027500 f   imguicolorpicker.obj
 0001:00026590       ?xwkzblowabfjrzlp@gpgqxpb@@IAEN_NV?$basic_string@DU?$char_traits@D@std@@V?$allocator@D@2@@std@@NN1N00@Z 10027590 f   imguicolorpicker.obj
 0001:00026830       ?tbaedyfgdypclfkyfxgc@gpgqxpb@@IAENHN_NHV?$basic_string@DU?$char_traits@D@std@@V?$allocator@D@2@@std@@NN@Z 10027830 f   imguicolorpicker.obj
 0001:00026910       ?bjjvsjqdsmmpjdsg@gpgqxpb@@IAENNV?$basic_string@DU?$char_traits@D@std@@V?$allocator@D@2@@std@@0HH0H0_NN@Z 10027910 f   imguicolorpicker.obj
 0001:00026b20       ?ffkcoguklotxz@gpgqxpb@@IAEXHNV?$basic_string@DU?$char_traits@D@std@@V?$allocator@D@2@@std@@_N01H0@Z 10027b20 f   imguicolorpicker.obj
 0001:00026c90       ?mblbdlhoubrozqdnpxzqerqsd@gpgqxpb@@IAENHH_N00V?$basic_string@DU?$char_traits@D@std@@V?$allocator@D@2@@std@@0H0@Z 10027c90 f   imguicolorpicker.obj
 0001:00026e30       ?ehaulsagdeoku@gpgqxpb@@AAEXNN_N@Z 10027e30 f   imguicolorpicker.obj
 0001:00026eb0       ?ydfngpnauqaygls@gpgqxpb@@AAEHN_N0NV?$basic_string@DU?$char_traits@D@std@@V?$allocator@D@2@@std@@@Z 10027eb0 f   imguicolorpicker.obj
 0001:00026f90       ___local_stdio_scanf_options 10027f90 f i imguicolorpicker.obj
 0001:00026fa0       _sscanf_s                  10027fa0 f i imguicolorpicker.obj
 0001:00026fe0       ?ImGui_ImplDX9_Init@@YA_NPAXPAUIDirect3DDevice9@@@Z 10027fe0 f   imgui_impl_dx9.obj
 0001:000270d0       ?ImGui_ImplDX9_Shutdown@@YAXXZ 100280d0 f   imgui_impl_dx9.obj
 0001:00027160       ?ImGui_ImplDX9_NewFrame@@YAXXZ 10028160 f   imgui_impl_dx9.obj
 0001:00027340       ?ImGui_ImplDX9_InvalidateDeviceObjects@@YAXXZ 10028340 f   imgui_impl_dx9.obj
 0001:000273b0       ?ImGui_ImplDX9_CreateDeviceObjects@@YA_NXZ 100283b0 f   imgui_impl_dx9.obj
 0001:00027490       ?ImGui_ImplDX9_RenderDrawLists@@YAXPAUImDrawData@@@Z 10028490 f   imgui_impl_dx9.obj
 0001:00027b60       ?ImGui_ImplDX9_WndProcHandler@@YAJPAUHWND__@@IIJ@Z 10028b60 f   imgui_impl_dx9.obj
 0001:00027d50       ??0qlhutuf@@QAE@XZ         10028d50 f   imgui_impl_dx9.obj
 0001:00028480       ?ldtturonitzyovd@qlhutuf@@QAEN_N0H@Z 10029480 f   imgui_impl_dx9.obj
 0001:00028640       ?rekvwecvyn@qlhutuf@@QAEX_NH@Z 10029640 f   imgui_impl_dx9.obj
 0001:000287a0       ?kdybitmefueprvbtgnbz@qlhutuf@@QAEHNN@Z 100297a0 f   imgui_impl_dx9.obj
 0001:000287b0       ?kldzdvpqopkyyrmncbxyvqnvr@qlhutuf@@QAEHHH@Z 100297b0 f   imgui_impl_dx9.obj
 0001:00028ad0       ?ysnbopemkis@qlhutuf@@QAENV?$basic_string@DU?$char_traits@D@std@@V?$allocator@D@2@@std@@@Z 10029ad0 f   imgui_impl_dx9.obj
 0001:00028d20       ?yjeeyhnizjuumjeqsghlluppo@qlhutuf@@QAE_NH_NHHH@Z 10029d20 f   imgui_impl_dx9.obj
 0001:00028f40       ?rxygttfegrudmuwvm@qlhutuf@@QAE_NH_NV?$basic_string@DU?$char_traits@D@std@@V?$allocator@D@2@@std@@11H0HNN@Z 10029f40 f   imgui_impl_dx9.obj
 0001:00029010       ?hkqmibablajehkepdeuzkqfao@qlhutuf@@QAEH_NNHHN@Z 1002a010 f   imgui_impl_dx9.obj
 0001:00029170       ?apestemrfgjt@qlhutuf@@IAE?AV?$basic_string@DU?$char_traits@D@std@@V?$allocator@D@2@@std@@XZ 1002a170 f   imgui_impl_dx9.obj
 0001:00029240       ?rckpzwkuvlubrlvyktepzvizb@qlhutuf@@IAEHXZ 1002a240 f   imgui_impl_dx9.obj
 0001:00029250       ?vutmlgibfulbfabxf@qlhutuf@@IAEHV?$basic_string@DU?$char_traits@D@std@@V?$allocator@D@2@@std@@_NN0@Z 1002a250 f   imgui_impl_dx9.obj
 0001:000292e0       ?kzlwlmwkenmenzipdrasnthtx@qlhutuf@@AAE_NXZ 1002a2e0 f   imgui_impl_dx9.obj
 0001:000292f0       ?xwfzxmygxrwzvhyss@qlhutuf@@AAEHN_NHNHHNV?$basic_string@DU?$char_traits@D@std@@V?$allocator@D@2@@std@@H@Z 1002a2f0 f   imgui_impl_dx9.obj
 0001:00029340       ?kfbeathrilwu@qlhutuf@@AAEHHNV?$basic_string@DU?$char_traits@D@std@@V?$allocator@D@2@@std@@H0@Z 1002a340 f   imgui_impl_dx9.obj
 0001:00029580       ?jnyguxsiueaytdgl@qlhutuf@@AAE_NXZ 1002a580 f   imgui_impl_dx9.obj
 0001:000297f0       ?zodlhmttrpgtpeb@qlhutuf@@AAE?AV?$basic_string@DU?$char_traits@D@std@@V?$allocator@D@2@@std@@_NH00V23@H1@Z 1002a7f0 f   imgui_impl_dx9.obj
 0001:000298f0       ?GetIO@ImGui@@YAAAUImGuiIO@@XZ 1002a8f0 f   imgui.obj
 0001:00029900       ?GetStyle@ImGui@@YAAAUImGuiStyle@@XZ 1002a900 f   imgui.obj
 0001:00029910       ?GetDrawData@ImGui@@YAPAUImDrawData@@XZ 1002a910 f   imgui.obj
 0001:00029930       ?NewFrame@ImGui@@YAXXZ     1002a930 f   imgui.obj
 0001:0002a560       ?Render@ImGui@@YAXXZ       1002b560 f   imgui.obj
 0001:0002a950       ?Shutdown@ImGui@@YAXXZ     1002b950 f   imgui.obj
 0001:0002aff0       ?ShowMetricsWindow@ImGui@@YAXPA_N@Z 1002bff0 f   imgui.obj
 0001:0002b4a0       ?Begin@ImGui@@YA_NPBDPA_NH@Z 1002c4a0 f   imgui.obj
 0001:0002b4e0       ?Begin@ImGui@@YA_NPBDPA_NABUImVec2@@MH@Z 1002c4e0 f   imgui.obj
 0001:0002e1b0       ?End@ImGui@@YAXXZ          1002f1b0 f   imgui.obj
 0001:0002e3a0       ?BeginChild@ImGui@@YA_NPBDABUImVec2@@_NH@Z 1002f3a0 f   imgui.obj
 0001:0002e410       ?BeginChild@ImGui@@YA_NIABUImVec2@@_NH@Z 1002f410 f   imgui.obj
 0001:0002e430       ?EndChild@ImGui@@YAXXZ     1002f430 f   imgui.obj
 0001:0002e530       ?GetContentRegionMax@ImGui@@YA?AUImVec2@@XZ 1002f530 f   imgui.obj
 0001:0002e580       ?GetContentRegionAvail@ImGui@@YA?AUImVec2@@XZ 1002f580 f   imgui.obj
 0001:0002e610       ?GetContentRegionAvailWidth@ImGui@@YAMXZ 1002f610 f   imgui.obj
 0001:0002e670       ?GetWindowContentRegionMin@ImGui@@YA?AUImVec2@@XZ 1002f670 f   imgui.obj
 0001:0002e690       ?GetWindowContentRegionMax@ImGui@@YA?AUImVec2@@XZ 1002f690 f   imgui.obj
 0001:0002e6b0       ?GetWindowContentRegionWidth@ImGui@@YAMXZ 1002f6b0 f   imgui.obj
 0001:0002e6d0       ?GetWindowDrawList@ImGui@@YAPAUImDrawList@@XZ 1002f6d0 f   imgui.obj
 0001:0002e6f0       ?GetWindowPos@ImGui@@YA?AUImVec2@@XZ 1002f6f0 f   imgui.obj
 0001:0002e710       ?GetWindowSize@ImGui@@YA?AUImVec2@@XZ 1002f710 f   imgui.obj
 0001:0002e730       ?GetWindowWidth@ImGui@@YAMXZ 1002f730 f   imgui.obj
 0001:0002e740       ?GetWindowHeight@ImGui@@YAMXZ 1002f740 f   imgui.obj
 0001:0002e750       ?IsWindowCollapsed@ImGui@@YA_NXZ 1002f750 f   imgui.obj
 0001:0002e770       ?SetWindowFontScale@ImGui@@YAXM@Z 1002f770 f   imgui.obj
 0001:0002e7c0       ?SetNextWindowPos@ImGui@@YAXABUImVec2@@H@Z 1002f7c0 f   imgui.obj
 0001:0002e800       ?SetNextWindowPosCenter@ImGui@@YAXH@Z 1002f800 f   imgui.obj
 0001:0002e840       ?SetNextWindowSize@ImGui@@YAXABUImVec2@@H@Z 1002f840 f   imgui.obj
 0001:0002e880       ?SetNextWindowSizeConstraints@ImGui@@YAXABUImVec2@@0P6AXPAUImGuiSizeConstraintCallbackData@@@ZPAX@Z 1002f880 f   imgui.obj
 0001:0002e8d0       ?SetNextWindowContentSize@ImGui@@YAXABUImVec2@@@Z 1002f8d0 f   imgui.obj
 0001:0002e900       ?SetNextWindowContentWidth@ImGui@@YAXM@Z 1002f900 f   imgui.obj
 0001:0002e940       ?SetNextWindowCollapsed@ImGui@@YAX_NH@Z 1002f940 f   imgui.obj
 0001:0002e970       ?SetNextWindowFocus@ImGui@@YAXXZ 1002f970 f   imgui.obj
 0001:0002e980       ?SetWindowPos@ImGui@@YAXABUImVec2@@H@Z 1002f980 f   imgui.obj
 0001:0002e9a0       ?SetWindowSize@ImGui@@YAXABUImVec2@@H@Z 1002f9a0 f   imgui.obj
 0001:0002e9c0       ?SetWindowCollapsed@ImGui@@YAX_NH@Z 1002f9c0 f   imgui.obj
 0001:0002e9f0       ?SetWindowFocus@ImGui@@YAXXZ 1002f9f0 f   imgui.obj
 0001:0002ea10       ?SetWindowPos@ImGui@@YAXPBDABUImVec2@@H@Z 1002fa10 f   imgui.obj
 0001:0002ea30       ?SetWindowSize@ImGui@@YAXPBDABUImVec2@@H@Z 1002fa30 f   imgui.obj
 0001:0002ea50       ?SetWindowCollapsed@ImGui@@YAXPBD_NH@Z 1002fa50 f   imgui.obj
 0001:0002ea90       ?SetWindowFocus@ImGui@@YAXPBD@Z 1002fa90 f   imgui.obj
 0001:0002ead0       ?GetScrollX@ImGui@@YAMXZ   1002fad0 f   imgui.obj
 0001:0002eae0       ?GetScrollY@ImGui@@YAMXZ   1002fae0 f   imgui.obj
 0001:0002eaf0       ?GetScrollMaxX@ImGui@@YAMXZ 1002faf0 f   imgui.obj
 0001:0002eb10       ?GetScrollMaxY@ImGui@@YAMXZ 1002fb10 f   imgui.obj
 0001:0002eb30       ?SetScrollX@ImGui@@YAXM@Z  1002fb30 f   imgui.obj
 0001:0002eb60       ?SetScrollY@ImGui@@YAXM@Z  1002fb60 f   imgui.obj
 0001:0002ec00       ?SetScrollHere@ImGui@@YAXM@Z 1002fc00 f   imgui.obj
 0001:0002ecb0       ?SetScrollFromPosY@ImGui@@YAXMM@Z 1002fcb0 f   imgui.obj
 0001:0002ed10       ?SetKeyboardFocusHere@ImGui@@YAXH@Z 1002fd10 f   imgui.obj
 0001:0002ed50       ?SetStateStorage@ImGui@@YAXPAUImGuiStorage@@@Z 1002fd50 f   imgui.obj
 0001:0002ed90       ?GetStateStorage@ImGui@@YAPAUImGuiStorage@@XZ 1002fd90 f   imgui.obj
 0001:0002edb0       ?PushFont@ImGui@@YAXPAUImFont@@@Z 1002fdb0 f   imgui.obj
 0001:0002ef20       ?PopFont@ImGui@@YAXXZ      1002ff20 f   imgui.obj
 0001:0002efe0       ?PushStyleColor@ImGui@@YAXHABUImVec4@@@Z 1002ffe0 f   imgui.obj
 0001:0002f0f0       ?PopStyleColor@ImGui@@YAXH@Z 100300f0 f   imgui.obj
 0001:0002f140       ?PushStyleVar@ImGui@@YAXHM@Z 10030140 f   imgui.obj
 0001:0002f1a0       ?PushStyleVar@ImGui@@YAXHABUImVec2@@@Z 100301a0 f   imgui.obj
 0001:0002f210       ?PopStyleVar@ImGui@@YAXH@Z 10030210 f   imgui.obj
 0001:0002f2b0       ?GetFont@ImGui@@YAPAUImFont@@XZ 100302b0 f   imgui.obj
 0001:0002f2c0       ?GetFontSize@ImGui@@YAMXZ  100302c0 f   imgui.obj
 0001:0002f2d0       ?GetFontTexUvWhitePixel@ImGui@@YA?AUImVec2@@XZ 100302d0 f   imgui.obj
 0001:0002f2f0       ?GetColorU32@ImGui@@YAIHM@Z 100302f0 f   imgui.obj
 0001:0002f3d0       ?GetColorU32@ImGui@@YAIABUImVec4@@@Z 100303d0 f   imgui.obj
 0001:0002f4a0       ?PushItemWidth@ImGui@@YAXM@Z 100304a0 f   imgui.obj
 0001:0002f530       ?PopItemWidth@ImGui@@YAXXZ 10030530 f   imgui.obj
 0001:0002f580       ?CalcItemWidth@ImGui@@YAMXZ 10030580 f   imgui.obj
 0001:0002f620       ?PushTextWrapPos@ImGui@@YAXM@Z 10030620 f   imgui.obj
 0001:0002f6a0       ?PopTextWrapPos@ImGui@@YAXXZ 100306a0 f   imgui.obj
 0001:0002f6f0       ?PushAllowKeyboardFocus@ImGui@@YAX_N@Z 100306f0 f   imgui.obj
 0001:0002f760       ?PopAllowKeyboardFocus@ImGui@@YAXXZ 10030760 f   imgui.obj
 0001:0002f7b0       ?PushButtonRepeat@ImGui@@YAX_N@Z 100307b0 f   imgui.obj
 0001:0002f820       ?PopButtonRepeat@ImGui@@YAXXZ 10030820 f   imgui.obj
 0001:0002f870       ?Separator@ImGui@@YAXXZ    10030870 f   imgui.obj
 0001:0002f9d0       ?SameLine@ImGui@@YAXMM@Z   100309d0 f   imgui.obj
 0001:0002fa90       ?NewLine@ImGui@@YAXXZ      10030a90 f   imgui.obj
 0001:0002fb10       ?Spacing@ImGui@@YAXXZ      10030b10 f   imgui.obj
 0001:0002fb60       ?Dummy@ImGui@@YAXABUImVec2@@@Z 10030b60 f   imgui.obj
 0001:0002fc00       ?Indent@ImGui@@YAXM@Z      10030c00 f   imgui.obj
 0001:0002fc70       ?Unindent@ImGui@@YAXM@Z    10030c70 f   imgui.obj
 0001:0002fce0       ?BeginGroup@ImGui@@YAXXZ   10030ce0 f   imgui.obj
 0001:0002fdf0       ?EndGroup@ImGui@@YAXXZ     10030df0 f   imgui.obj
 0001:0002ffa0       ?GetCursorPos@ImGui@@YA?AUImVec2@@XZ 10030fa0 f   imgui.obj
 0001:0002ffe0       ?GetCursorPosX@ImGui@@YAMXZ 10030fe0 f   imgui.obj
 0001:00030000       ?GetCursorPosY@ImGui@@YAMXZ 10031000 f   imgui.obj
 0001:00030020       ?SetCursorPos@ImGui@@YAXABUImVec2@@@Z 10031020 f   imgui.obj
 0001:000300a0       ?SetCursorPosX@ImGui@@YAXM@Z 100310a0 f   imgui.obj
 0001:000300f0       ?SetCursorPosY@ImGui@@YAXM@Z 100310f0 f   imgui.obj
 0001:00030140       ?GetCursorStartPos@ImGui@@YA?AUImVec2@@XZ 10031140 f   imgui.obj
 0001:00030180       ?GetCursorScreenPos@ImGui@@YA?AUImVec2@@XZ 10031180 f   imgui.obj
 0001:000301b0       ?SetCursorScreenPos@ImGui@@YAXABUImVec2@@@Z 100311b0 f   imgui.obj
 0001:00030220       ?AlignFirstTextHeightToWidgets@ImGui@@YAXXZ 10031220 f   imgui.obj
 0001:000302a0       ?GetTextLineHeight@ImGui@@YAMXZ 100312a0 f   imgui.obj
 0001:000302b0       ?GetTextLineHeightWithSpacing@ImGui@@YAMXZ 100312b0 f   imgui.obj
 0001:000302d0       ?GetItemsLineHeightWithSpacing@ImGui@@YAMXZ 100312d0 f   imgui.obj
 0001:00030310       ?Columns@ImGui@@YAXHPBD_N@Z 10031310 f   imgui.obj
 0001:00030a40       ?NextColumn@ImGui@@YAXXZ   10031a40 f   imgui.obj
 0001:00030bb0       ?GetColumnIndex@ImGui@@YAHXZ 10031bb0 f   imgui.obj
 0001:00030bd0       ?GetColumnOffset@ImGui@@YAMH@Z 10031bd0 f   imgui.obj
 0001:00030c50       ?SetColumnOffset@ImGui@@YAXHM@Z 10031c50 f   imgui.obj
 0001:00030d00       ?GetColumnWidth@ImGui@@YAMH@Z 10031d00 f   imgui.obj
 0001:00030d40       ?GetColumnsCount@ImGui@@YAHXZ 10031d40 f   imgui.obj
 0001:00030d60       ?PushID@ImGui@@YAXPBD@Z    10031d60 f   imgui.obj
 0001:00030df0       ?PushID@ImGui@@YAXPBD0@Z   10031df0 f   imgui.obj
 0001:00030e90       ?PushID@ImGui@@YAXPBX@Z    10031e90 f   imgui.obj
 0001:00030f30       ?PushID@ImGui@@YAXH@Z      10031f30 f   imgui.obj
 0001:00030fd0       ?PopID@ImGui@@YAXXZ        10031fd0 f   imgui.obj
 0001:00030ff0       ?GetID@ImGui@@YAIPBD@Z     10031ff0 f   imgui.obj
 0001:00031040       ?GetID@ImGui@@YAIPBD0@Z    10032040 f   imgui.obj
 0001:00031090       ?GetID@ImGui@@YAIPBX@Z     10032090 f   imgui.obj
 0001:000310e0       ?Text@ImGui@@YAXPBDZZ      100320e0 f   imgui.obj
 0001:00031100       ?TextV@ImGui@@YAXPBDPAD@Z  10032100 f   imgui.obj
 0001:00031190       ?TextColored@ImGui@@YAXABUImVec4@@PBDZZ 10032190 f   imgui.obj
 0001:000311f0       ?TextColoredV@ImGui@@YAXABUImVec4@@PBDPAD@Z 100321f0 f   imgui.obj
 0001:00031240       ?TextDisabled@ImGui@@YAXPBDZZ 10032240 f   imgui.obj
 0001:000312a0       ?TextDisabledV@ImGui@@YAXPBDPAD@Z 100322a0 f   imgui.obj
 0001:00031300       ?TextWrapped@ImGui@@YAXPBDZZ 10032300 f   imgui.obj
 0001:000313f0       ?TextWrappedV@ImGui@@YAXPBDPAD@Z 100323f0 f   imgui.obj
 0001:000314d0       ?TextUnformatted@ImGui@@YAXPBD0@Z 100324d0 f   imgui.obj
 0001:00031970       ?LabelText@ImGui@@YAXPBD0ZZ 10032970 f   imgui.obj
 0001:00031990       ?LabelTextV@ImGui@@YAXPBD0PAD@Z 10032990 f   imgui.obj
 0001:00031be0       ?Bullet@ImGui@@YAXXZ       10032be0 f   imgui.obj
 0001:00031d20       ?BulletText@ImGui@@YAXPBDZZ 10032d20 f   imgui.obj
 0001:00031d40       ?BulletTextV@ImGui@@YAXPBDPAD@Z 10032d40 f   imgui.obj
 0001:00031fa0       ?Button@ImGui@@YA_NPBDABUImVec2@@@Z 10032fa0 f   imgui.obj
 0001:00031fc0       ?SmallButton@ImGui@@YA_NPBD@Z 10032fc0 f   imgui.obj
 0001:00032020       ?InvisibleButton@ImGui@@YA_NPBDABUImVec2@@@Z 10033020 f   imgui.obj
 0001:00032140       ?Image@ImGui@@YAXPAXABUImVec2@@11ABUImVec4@@2@Z 10033140 f   imgui.obj
 0001:000322e0       ?ImageButton@ImGui@@YA_NPAXABUImVec2@@11HABUImVec4@@2@Z 100332e0 f   imgui.obj
 0001:00032570       ?Checkbox@ImGui@@YA_NPBDPA_N@Z 10033570 f   imgui.obj
 0001:00032b70       ?CheckboxFlags@ImGui@@YA_NPBDPAII@Z 10033b70 f   imgui.obj
 0001:00032bc0       ?RadioButton@ImGui@@YA_NPBD_N@Z 10033bc0 f   imgui.obj
 0001:00033040       ?RadioButton@ImGui@@YA_NPBDPAHH@Z 10034040 f   imgui.obj
 0001:00033070       ?Combo@ImGui@@YA_NPBDPAHPBQBDHH@Z 10034070 f   imgui.obj
 0001:000330a0       ?Combo@ImGui@@YA_NPBDPAH0H@Z 100340a0 f   imgui.obj
 0001:000330f0       ?Combo@ImGui@@YA_NPBDPAHP6A_NPAXHPAPBD@Z2HH@Z 100340f0 f   imgui.obj
 0001:00033880       ?ColorButton@ImGui@@YA_NABUImVec4@@_N1@Z 10034880 f   imgui.obj
 0001:00033ad0       ?ColorEdit3@ImGui@@YA_NPBDQAM@Z 10034ad0 f   imgui.obj
 0001:00033b40       ?ColorEdit4@ImGui@@YA_NPBDQAM_N@Z 10034b40 f   imgui.obj
 0001:000346c0       ?ColorEditMode@ImGui@@YAXH@Z 100356c0 f   imgui.obj
 0001:000346f0       ?PlotLines@ImGui@@YAXPBDPBMHH0MMUImVec2@@H@Z 100356f0 f   imgui.obj
 0001:00034750       ?PlotLines@ImGui@@YAXPBDP6AMPAXH@Z1HH0MMUImVec2@@@Z 10035750 f   imgui.obj
 0001:00034790       ?PlotHistogram@ImGui@@YAXPBDPBMHH0MMUImVec2@@H@Z 10035790 f   imgui.obj
 0001:000347f0       ?PlotHistogram@ImGui@@YAXPBDP6AMPAXH@Z1HH0MMUImVec2@@@Z 100357f0 f   imgui.obj
 0001:00034830       ?ProgressBar@ImGui@@YAXMABUImVec2@@PBD@Z 10035830 f   imgui.obj
 0001:00034bf0       ?DragFloat@ImGui@@YA_NPBDPAMMMM0M@Z 10035bf0 f   imgui.obj
 0001:00035080       ?DragFloat2@ImGui@@YA_NPBDQAMMMM0M@Z 10036080 f   imgui.obj
 0001:000350d0       ?DragFloat3@ImGui@@YA_NPBDQAMMMM0M@Z 100360d0 f   imgui.obj
 0001:00035120       ?DragFloat4@ImGui@@YA_NPBDQAMMMM0M@Z 10036120 f   imgui.obj
 0001:00035170       ?DragFloatRange2@ImGui@@YA_NPBDPAM1MMM00M@Z 10036170 f   imgui.obj
 0001:000353c0       ?DragInt@ImGui@@YA_NPBDPAHMHH0@Z 100363c0 f   imgui.obj
 0001:00035430       ?DragInt2@ImGui@@YA_NPBDQAHMHH0@Z 10036430 f   imgui.obj
 0001:00035460       ?DragInt3@ImGui@@YA_NPBDQAHMHH0@Z 10036460 f   imgui.obj
 0001:00035490       ?DragInt4@ImGui@@YA_NPBDQAHMHH0@Z 10036490 f   imgui.obj
 0001:000354c0       ?DragIntRange2@ImGui@@YA_NPBDPAH1MHH00@Z 100364c0 f   imgui.obj
 0001:00035760       ?InputText@ImGui@@YA_NPBDPADIHP6AHPAUImGuiTextEditCallbackData@@@ZPAX@Z 10036760 f   imgui.obj
 0001:000357a0       ?InputTextMultiline@ImGui@@YA_NPBDPADIABUImVec2@@HP6AHPAUImGuiTextEditCallbackData@@@ZPAX@Z 100367a0 f   imgui.obj
 0001:000357b0       ?InputFloat@ImGui@@YA_NPBDPAMMMHH@Z 100367b0 f   imgui.obj
 0001:00035840       ?InputFloat2@ImGui@@YA_NPBDQAMHH@Z 10036840 f   imgui.obj
 0001:00035860       ?InputFloat3@ImGui@@YA_NPBDQAMHH@Z 10036860 f   imgui.obj
 0001:00035880       ?InputFloat4@ImGui@@YA_NPBDQAMHH@Z 10036880 f   imgui.obj
 0001:000358a0       ?InputInt@ImGui@@YA_NPBDPAHHHH@Z 100368a0 f   imgui.obj
 0001:00035900       ?InputInt2@ImGui@@YA_NPBDQAHH@Z 10036900 f   imgui.obj
 0001:00035920       ?InputInt3@ImGui@@YA_NPBDQAHH@Z 10036920 f   imgui.obj
 0001:00035940       ?InputInt4@ImGui@@YA_NPBDQAHH@Z 10036940 f   imgui.obj
 0001:00035960       ?SliderFloat@ImGui@@YA_NPBDPAMMM0MUImVec2@@UImVec4@@@Z 10036960 f   imgui.obj
 0001:00035cb0       ?SliderFloat2@ImGui@@YA_NPBDQAMMM0M@Z 10036cb0 f   imgui.obj
 0001:00035cf0       ?SliderFloat3@ImGui@@YA_NPBDQAMMM0M@Z 10036cf0 f   imgui.obj
 0001:00035d30       ?SliderFloat4@ImGui@@YA_NPBDQAMMM0M@Z 10036d30 f   imgui.obj
 0001:00035d70       ?SliderAngle@ImGui@@YA_NPBDPAMMM@Z 10036d70 f   imgui.obj
 0001:00035e10       ?SliderInt@ImGui@@YA_NPBDPAHHH0UImVec4@@@Z 10036e10 f   imgui.obj
 0001:00035ea0       ?SliderInt2@ImGui@@YA_NPBDQAHHH0@Z 10036ea0 f   imgui.obj
 0001:00035ec0       ?SliderInt3@ImGui@@YA_NPBDQAHHH0@Z 10036ec0 f   imgui.obj
 0001:00035ee0       ?SliderInt4@ImGui@@YA_NPBDQAHHH0@Z 10036ee0 f   imgui.obj
 0001:00035f00       ?VSliderFloat@ImGui@@YA_NPBDABUImVec2@@PAMMM0M@Z 10036f00 f   imgui.obj
 0001:000361c0       ?VSliderInt@ImGui@@YA_NPBDABUImVec2@@PAHHH0@Z 100371c0 f   imgui.obj
 0001:00036230       ?TreeNode@ImGui@@YA_NPBD@Z 10037230 f   imgui.obj
 0001:000362a0       ?TreeNode@ImGui@@YA_NPBD0ZZ 100372a0 f   imgui.obj
 0001:000362c0       ?TreeNode@ImGui@@YA_NPBXPBDZZ 100372c0 f   imgui.obj
 0001:000362e0       ?TreeNodeV@ImGui@@YA_NPBD0PAD@Z 100372e0 f   imgui.obj
 0001:00036300       ?TreeNodeV@ImGui@@YA_NPBXPBDPAD@Z 10037300 f   imgui.obj
 0001:00036320       ?TreeNodeEx@ImGui@@YA_NPBDH@Z 10037320 f   imgui.obj
 0001:00036390       ?TreeNodeEx@ImGui@@YA_NPBDH0ZZ 10037390 f   imgui.obj
 0001:000363b0       ?TreeNodeEx@ImGui@@YA_NPBXHPBDZZ 100373b0 f   imgui.obj
 0001:000363d0       ?TreeNodeExV@ImGui@@YA_NPBDH0PAD@Z 100373d0 f   imgui.obj
 0001:000364a0       ?TreeNodeExV@ImGui@@YA_NPBXHPBDPAD@Z 100374a0 f   imgui.obj
 0001:00036580       ?TreePush@ImGui@@YAXPBD@Z  10037580 f   imgui.obj
 0001:00036610       ?TreePush@ImGui@@YAXPBX@Z  10037610 f   imgui.obj
 0001:000366a0       ?TreePop@ImGui@@YAXXZ      100376a0 f   imgui.obj
 0001:00036730       ?TreeAdvanceToLabelPos@ImGui@@YAXXZ 10037730 f   imgui.obj
 0001:00036770       ?GetTreeNodeToLabelSpacing@ImGui@@YAMXZ 10037770 f   imgui.obj
 0001:000367a0       ?SetNextTreeNodeOpen@ImGui@@YAX_NH@Z 100377a0 f   imgui.obj
 0001:000367d0       ?CollapsingHeader@ImGui@@YA_NPBDH@Z 100377d0 f   imgui.obj
 0001:00036850       ?CollapsingHeader@ImGui@@YA_NPBDPA_NH@Z 10037850 f   imgui.obj
 0001:000369b0       ?Selectable@ImGui@@YA_NPBD_NHABUImVec2@@@Z 100379b0 f   imgui.obj
 0001:00036e50       ?Selectable@ImGui@@YA_NPBDPA_NHABUImVec2@@@Z 10037e50 f   imgui.obj
 0001:00036e90       ?ListBox@ImGui@@YA_NPBDPAHPBQBDHH@Z 10037e90 f   imgui.obj
 0001:00036ec0       ?ListBox@ImGui@@YA_NPBDPAHP6A_NPAXHPAPBD@Z2HH@Z 10037ec0 f   imgui.obj
 0001:000370e0       ?ListBoxHeader@ImGui@@YA_NPBDABUImVec2@@@Z 100380e0 f   imgui.obj
 0001:00037350       ?ListBoxHeader@ImGui@@YA_NPBDHH@Z 10038350 f   imgui.obj
 0001:000373d0       ?ListBoxFooter@ImGui@@YAXXZ 100383d0 f   imgui.obj
 0001:000374b0       ?Value@ImGui@@YAXPBD_N@Z   100384b0 f   imgui.obj
 0001:000374e0       ?Value@ImGui@@YAXPBDH@Z    100384e0 f   imgui.obj
 0001:00037500       ?Value@ImGui@@YAXPBDI@Z    10038500 f   imgui.obj
 0001:00037520       ?Value@ImGui@@YAXPBDM0@Z   10038520 f   imgui.obj
 0001:00037590       ?ValueColor@ImGui@@YAXPBDABUImVec4@@@Z 10038590 f   imgui.obj
 0001:00037610       ?ValueColor@ImGui@@YAXPBDI@Z 10038610 f   imgui.obj
 0001:00037700       ?Hotkey@ImGui@@YA_NPBDPAHABUImVec2@@@Z 10038700 f   imgui.obj
 0001:00037e20       ?SetTooltip@ImGui@@YAXPBDZZ 10038e20 f   imgui.obj
 0001:00037e50       ?SetTooltipV@ImGui@@YAXPBDPAD@Z 10038e50 f   imgui.obj
 0001:00037e70       ?BeginTooltip@ImGui@@YAXXZ 10038e70 f   imgui.obj
 0001:00037ee0       ?EndTooltip@ImGui@@YAXXZ   10038ee0 f   imgui.obj
 0001:00037ef0       ?BeginMainMenuBar@ImGui@@YA_NXZ 10038ef0 f   imgui.obj
 0001:00038230       ?EndMainMenuBar@ImGui@@YAXXZ 10039230 f   imgui.obj
 0001:00038320       ?BeginMenuBar@ImGui@@YA_NXZ 10039320 f   imgui.obj
 0001:00038520       ?EndMenuBar@ImGui@@YAXXZ   10039520 f   imgui.obj
 0001:00038600       ?BeginMenu@ImGui@@YA_NPBD_N@Z 10039600 f   imgui.obj
 0001:00038e20       ?EndMenu@ImGui@@YAXXZ      10039e20 f   imgui.obj
 0001:00038e60       ?MenuItem@ImGui@@YA_NPBD0_N1@Z 10039e60 f   imgui.obj
 0001:00039150       ?MenuItem@ImGui@@YA_NPBD0PA_N_N@Z 1003a150 f   imgui.obj
 0001:00039190       ?OpenPopup@ImGui@@YAXPBD@Z 1003a190 f   imgui.obj
 0001:000391b0       ?BeginPopup@ImGui@@YA_NPBD@Z 1003a1b0 f   imgui.obj
 0001:00039210       ?BeginPopupModal@ImGui@@YA_NPBDPA_NH@Z 1003a210 f   imgui.obj
 0001:00039350       ?BeginPopupContextItem@ImGui@@YA_NPBDH@Z 1003a350 f   imgui.obj
 0001:000393a0       ?BeginPopupContextWindow@ImGui@@YA_N_NPBDH@Z 1003a3a0 f   imgui.obj
 0001:00039410       ?BeginPopupContextVoid@ImGui@@YA_NPBDH@Z 1003a410 f   imgui.obj
 0001:00039460       ?BeginGroupBox@ImGui@@YA_NPBDABUImVec2@@@Z 1003a460 f   imgui.obj
 0001:000396d0       ?EndGroupBox@ImGui@@YAXXZ  1003a6d0 f   imgui.obj
 0001:00039720       ?EndPopup@ImGui@@YAXXZ     1003a720 f   imgui.obj
 0001:00039760       ?CloseCurrentPopup@ImGui@@YAXXZ 1003a760 f   imgui.obj
 0001:000397d0       ?LogToTTY@ImGui@@YAXH@Z    1003a7d0 f   imgui.obj
 0001:00039820       ?LogToFile@ImGui@@YAXHPBD@Z 1003a820 f   imgui.obj
 0001:00039890       ?LogToClipboard@ImGui@@YAXH@Z 1003a890 f   imgui.obj
 0001:000398e0       ?LogFinish@ImGui@@YAXXZ    1003a8e0 f   imgui.obj
 0001:000399f0       ?LogButtons@ImGui@@YAXXZ   1003a9f0 f   imgui.obj
 0001:00039db0       ?LogText@ImGui@@YAXPBDZZ   1003adb0 f   imgui.obj
 0001:00039e00       ?PushClipRect@ImGui@@YAXABUImVec2@@0_N@Z 1003ae00 f   imgui.obj
 0001:00039e70       ?PopClipRect@ImGui@@YAXXZ  1003ae70 f   imgui.obj
 0001:00039ed0       ?IsItemHovered@ImGui@@YA_NXZ 1003aed0 f   imgui.obj
 0001:00039ef0       ?IsItemHoveredRect@ImGui@@YA_NXZ 1003aef0 f   imgui.obj
 0001:00039f10       ?IsItemActive@ImGui@@YA_NXZ 1003af10 f   imgui.obj
 0001:00039f40       ?IsItemClicked@ImGui@@YA_NH@Z 1003af40 f   imgui.obj
 0001:00039f80       ?IsItemVisible@ImGui@@YA_NXZ 1003af80 f   imgui.obj
 0001:00039fe0       ?IsAnyItemHovered@ImGui@@YA_NXZ 1003afe0 f   imgui.obj
 0001:0003a000       ?IsAnyItemActive@ImGui@@YA_NXZ 1003b000 f   imgui.obj
 0001:0003a010       ?GetItemRectMin@ImGui@@YA?AUImVec2@@XZ 1003b010 f   imgui.obj
 0001:0003a040       ?GetItemRectMax@ImGui@@YA?AUImVec2@@XZ 1003b040 f   imgui.obj
 0001:0003a070       ?GetItemRectSize@ImGui@@YA?AUImVec2@@XZ 1003b070 f   imgui.obj
 0001:0003a0b0       ?SetItemAllowOverlap@ImGui@@YAXXZ 1003b0b0 f   imgui.obj
 0001:0003a0f0       ?IsWindowHovered@ImGui@@YA_NXZ 1003b0f0 f   imgui.obj
 0001:0003a140       ?IsWindowFocused@ImGui@@YA_NXZ 1003b140 f   imgui.obj
 0001:0003a160       ?IsRootWindowFocused@ImGui@@YA_NXZ 1003b160 f   imgui.obj
 0001:0003a180       ?IsRootWindowOrAnyChildFocused@ImGui@@YA_NXZ 1003b180 f   imgui.obj
 0001:0003a1b0       ?IsRootWindowOrAnyChildHovered@ImGui@@YA_NXZ 1003b1b0 f   imgui.obj
 0001:0003a1e0       ?IsRectVisible@ImGui@@YA_NABUImVec2@@@Z 1003b1e0 f   imgui.obj
 0001:0003a250       ?IsRectVisible@ImGui@@YA_NABUImVec2@@0@Z 1003b250 f   imgui.obj
 0001:0003a2c0       ?GetTime@ImGui@@YAMXZ      1003b2c0 f   imgui.obj
 0001:0003a2d0       ?GetFrameCount@ImGui@@YAHXZ 1003b2d0 f   imgui.obj
 0001:0003a2e0       ?GetStyleColName@ImGui@@YAPBDH@Z 1003b2e0 f   imgui.obj
 0001:0003a4e0       ?CalcItemRectClosestPoint@ImGui@@YA?AUImVec2@@ABU2@_NM@Z 1003b4e0 f   imgui.obj
 0001:0003a5a0       ?CalcTextSize@ImGui@@YA?AUImVec2@@PBD0_NM@Z 1003b5a0 f   imgui.obj
 0001:0003a690       ?CalcListClipping@ImGui@@YAXHMPAH0@Z 1003b690 f   imgui.obj
 0001:0003a750       ?BeginChildFrame@ImGui@@YA_NIABUImVec2@@H@Z 1003b750 f   imgui.obj
 0001:0003a840       ?EndChildFrame@ImGui@@YAXXZ 1003b840 f   imgui.obj
 0001:0003a890       ?ColorConvertU32ToFloat4@ImGui@@YA?AUImVec4@@I@Z 1003b890 f   imgui.obj
 0001:0003a940       ?ColorConvertFloat4ToU32@ImGui@@YAIABUImVec4@@@Z 1003b940 f   imgui.obj
 0001:0003aa00       ?ColorConvertRGBtoHSV@ImGui@@YAXMMMAAM00@Z 1003ba00 f   imgui.obj
 0001:0003aab0       ?ColorConvertHSVtoRGB@ImGui@@YAXMMMAAM00@Z 1003bab0 f   imgui.obj
 0001:0003ac20       ?GetKeyIndex@ImGui@@YAHH@Z 1003bc20 f   imgui.obj
 0001:0003ac40       ?IsKeyDown@ImGui@@YA_NH@Z  1003bc40 f   imgui.obj
 0001:0003ac60       ?IsKeyPressed@ImGui@@YA_NH_N@Z 1003bc60 f   imgui.obj
 0001:0003ad40       ?IsKeyReleased@ImGui@@YA_NH@Z 1003bd40 f   imgui.obj
 0001:0003ad80       ?IsMouseDown@ImGui@@YA_NH@Z 1003bd80 f   imgui.obj
 0001:0003ada0       ?IsMouseClicked@ImGui@@YA_NH_N@Z 1003bda0 f   imgui.obj
 0001:0003ae80       ?IsMouseDoubleClicked@ImGui@@YA_NH@Z 1003be80 f   imgui.obj
 0001:0003aea0       ?IsMouseReleased@ImGui@@YA_NH@Z 1003bea0 f   imgui.obj
 0001:0003aec0       ?IsMouseHoveringWindow@ImGui@@YA_NXZ 1003bec0 f   imgui.obj
 0001:0003aee0       ?IsMouseHoveringAnyWindow@ImGui@@YA_NXZ 1003bee0 f   imgui.obj
 0001:0003aef0       ?IsMouseHoveringRect@ImGui@@YA_NABUImVec2@@0_N@Z 1003bef0 f   imgui.obj
 0001:0003afe0       ?IsMouseDragging@ImGui@@YA_NHM@Z 1003bfe0 f   imgui.obj
 0001:0003b020       ?GetMousePos@ImGui@@YA?AUImVec2@@XZ 1003c020 f   imgui.obj
 0001:0003b040       ?GetMousePosOnOpeningCurrentPopup@ImGui@@YA?AUImVec2@@XZ 1003c040 f   imgui.obj
 0001:0003b090       ?GetMouseDragDelta@ImGui@@YA?AUImVec2@@HM@Z 1003c090 f   imgui.obj
 0001:0003b110       ?ResetMouseDragDelta@ImGui@@YAXH@Z 1003c110 f   imgui.obj
 0001:0003b140       ?GetMouseCursor@ImGui@@YAHXZ 1003c140 f   imgui.obj
 0001:0003b150       ?SetMouseCursor@ImGui@@YAXH@Z 1003c150 f   imgui.obj
 0001:0003b170       ?CaptureKeyboardFromApp@ImGui@@YAX_N@Z 1003c170 f   imgui.obj
 0001:0003b190       ?CaptureMouseFromApp@ImGui@@YAX_N@Z 1003c190 f   imgui.obj
 0001:0003b1b0       ?MemAlloc@ImGui@@YAPAXI@Z  1003c1b0 f   imgui.obj
 0001:0003b1d0       ?MemFree@ImGui@@YAXPAX@Z   1003c1d0 f   imgui.obj
 0001:0003b200       ?GetClipboardText@ImGui@@YAPBDXZ 1003c200 f   imgui.obj
 0001:0003b230       ?SetClipboardText@ImGui@@YAXPBD@Z 1003c230 f   imgui.obj
 0001:0003b260       ?GetVersion@ImGui@@YAPBDXZ 1003c260 f   imgui.obj
 0001:0003b270       ?CreateContext@ImGui@@YAPAUImGuiContext@@P6APAXI@ZP6AXPAX@Z@Z 1003c270 f   imgui.obj
 0001:0003b300       ?DestroyContext@ImGui@@YAXPAUImGuiContext@@@Z 1003c300 f   imgui.obj
 0001:0003b330       ?GetCurrentContext@ImGui@@YAPAUImGuiContext@@XZ 1003c330 f   imgui.obj
 0001:0003b340       ?SetCurrentContext@ImGui@@YAXPAUImGuiContext@@@Z 1003c340 f   imgui.obj
 0001:0003b350       ??0ImGuiStyle@@QAE@XZ      1003c350 f   imgui.obj
 0001:0003b730       ?AddInputCharacter@ImGuiIO@@QAEXG@Z 1003c730 f   imgui.obj
 0001:0003b770       ?AddInputCharactersUTF8@ImGuiIO@@QAEXPBD@Z 1003c770 f   imgui.obj
 0001:0003b800       ??0ImGuiIO@@QAE@XZ         1003c800 f   imgui.obj
 0001:0003ba80       ?split@TextRange@ImGuiTextFilter@@QAEXDAAV?$ImVector@UTextRange@ImGuiTextFilter@@@@@Z 1003ca80 f   imgui.obj
 0001:0003bb70       ??0ImGuiTextFilter@@QAE@PBD@Z 1003cb70 f   imgui.obj
 0001:0003bc20       ?Draw@ImGuiTextFilter@@QAE_NPBDM@Z 1003cc20 f   imgui.obj
 0001:0003bcf0       ?PassFilter@ImGuiTextFilter@@QBE_NPBD0@Z 1003ccf0 f   imgui.obj
 0001:0003bd80       ?Build@ImGuiTextFilter@@QAEXXZ 1003cd80 f   imgui.obj
 0001:0003bf50       ?append@ImGuiTextBuffer@@QAAXPBDZZ 1003cf50 f   imgui.obj
 0001:0003bf70       ?appendv@ImGuiTextBuffer@@QAEXPBDPAD@Z 1003cf70 f   imgui.obj
 0001:0003c050       ?Clear@ImGuiStorage@@QAEXXZ 1003d050 f   imgui.obj
 0001:0003c090       ?GetInt@ImGuiStorage@@QBEHIH@Z 1003d090 f   imgui.obj
 0001:0003c0d0       ?SetInt@ImGuiStorage@@QAEXIH@Z 1003d0d0 f   imgui.obj
 0001:0003c130       ?GetBool@ImGuiStorage@@QBE_NI_N@Z 1003d130 f   imgui.obj
 0001:0003c180       ?SetBool@ImGuiStorage@@QAEXI_N@Z 1003d180 f   imgui.obj
 0001:0003c1e0       ?GetFloat@ImGuiStorage@@QBEMIM@Z 1003d1e0 f   imgui.obj
 0001:0003c220       ?SetFloat@ImGuiStorage@@QAEXIM@Z 1003d220 f   imgui.obj
 0001:0003c280       ?GetVoidPtr@ImGuiStorage@@QBEPAXI@Z 1003d280 f   imgui.obj
 0001:0003c2c0       ?SetVoidPtr@ImGuiStorage@@QAEXIPAX@Z 1003d2c0 f   imgui.obj
 0001:0003c320       ?GetIntRef@ImGuiStorage@@QAEPAHIH@Z 1003d320 f   imgui.obj
 0001:0003c380       ?GetBoolRef@ImGuiStorage@@QAEPA_NI_N@Z 1003d380 f   imgui.obj
 0001:0003c3e0       ?GetFloatRef@ImGuiStorage@@QAEPAMIM@Z 1003d3e0 f   imgui.obj
 0001:0003c430       ?GetVoidPtrRef@ImGuiStorage@@QAEPAPAXIPAX@Z 1003d430 f   imgui.obj
 0001:0003c490       ?SetAllInt@ImGuiStorage@@QAEXH@Z 1003d490 f   imgui.obj
 0001:0003c4c0       ?DeleteChars@ImGuiTextEditCallbackData@@QAEXHH@Z 1003d4c0 f   imgui.obj
 0001:0003c540       ?InsertChars@ImGuiTextEditCallbackData@@QAEXHPBD0@Z 1003d540 f   imgui.obj
 0001:0003c5e0       ?Step@ImGuiListClipper@@QAE_NXZ 1003d5e0 f   imgui.obj
 0001:0003c6e0       ?Begin@ImGuiListClipper@@QAEXHM@Z 1003d6e0 f   imgui.obj
 0001:0003c810       ?End@ImGuiListClipper@@QAEXXZ 1003d810 f   imgui.obj
 0001:0003c860       ?ImTextStrToUtf8@@YAHPADHPBG1@Z 1003d860 f   imgui.obj
 0001:0003c990       ?ImTextCharFromUtf8@@YAHPAIPBD1@Z 1003d990 f   imgui.obj
 0001:0003cb50       ?ImTextStrFromUtf8@@YAHPAGHPBD1PAPBD@Z 1003db50 f   imgui.obj
 0001:0003cde0       ?ImTextCountCharsFromUtf8@@YAHPBD0@Z 1003dde0 f   imgui.obj
 0001:0003d030       ?ImTextCountUtf8BytesFromStr@@YAHPBG0@Z 1003e030 f   imgui.obj
 0001:0003d0b0       ?ImHash@@YAIPBXHI@Z        1003e0b0 f   imgui.obj
 0001:0003d1d0       ?ImFileLoadToMemory@@YAPAXPBD0PAHH@Z 1003e1d0 f   imgui.obj
 0001:0003d2e0       ?ImFileOpen@@YAPAU_iobuf@@PBD0@Z 1003e2e0 f   imgui.obj
 0001:0003d3d0       ?ImIsPointInTriangle@@YA_NABUImVec2@@000@Z 1003e3d0 f   imgui.obj
 0001:0003d4a0       ?ImStricmp@@YAHPBD0@Z      1003e4a0 f   imgui.obj
 0001:0003d500       ?ImStrnicmp@@YAHPBD0H@Z    1003e500 f   imgui.obj
 0001:0003d560       ?ImStrdup@@YAPADPBD@Z      1003e560 f   imgui.obj
 0001:0003d5b0       ?ImStrlenW@@YAHPBG@Z       1003e5b0 f   imgui.obj
 0001:0003d5d0       ?ImStrbolW@@YAPBGPBG0@Z    1003e5d0 f   imgui.obj
 0001:0003d5f0       ?ImStristr@@YAPBDPBD000@Z  1003e5f0 f   imgui.obj
 0001:0003d6b0       ?ImFormatString@@YAHPADHPBDZZ 1003e6b0 f   imgui.obj
 0001:0003d700       ?ImFormatStringV@@YAHPADHPBD0@Z 1003e700 f   imgui.obj
 0001:0003d750       ??0ImGuiSimpleColumns@@QAE@XZ 1003e750 f   imgui.obj
 0001:0003d790       ?Update@ImGuiSimpleColumns@@QAEXHM_N@Z 1003e790 f   imgui.obj
 0001:0003d820       ?DeclColumns@ImGuiSimpleColumns@@QAEMMMM@Z 1003e820 f   imgui.obj
 0001:0003d8c0       ?CalcExtraSpace@ImGuiSimpleColumns@@QAEMM@Z 1003e8c0 f   imgui.obj
 0001:0003d8e0       ?OnKeyPressed@ImGuiTextEditState@@QAEXH@Z 1003e8e0 f   imgui.obj
 0001:0003d910       ??0ImGuiWindow@@QAE@PBD@Z  1003e910 f   imgui.obj
 0001:0003dd80       ??1ImGuiWindow@@QAE@XZ     1003ed80 f   imgui.obj
 0001:0003de80       ?GetID@ImGuiWindow@@QAEIPBD0@Z 1003ee80 f   imgui.obj
 0001:0003ded0       ?GetID@ImGuiWindow@@QAEIPBX@Z 1003eed0 f   imgui.obj
 0001:0003df10       ?GetIDNoKeepAlive@ImGuiWindow@@QAEIPBD0@Z 1003ef10 f   imgui.obj
 0001:0003df50       ?GetParentWindow@ImGui@@YAPAUImGuiWindow@@XZ 1003ef50 f   imgui.obj
 0001:0003df70       ?FindWindowByName@ImGui@@YAPAUImGuiWindow@@PBD@Z 1003ef70 f   imgui.obj
 0001:0003dfc0       ?FocusWindow@ImGui@@YAXPAUImGuiWindow@@@Z 1003efc0 f   imgui.obj
 0001:0003e0e0       ?EndFrame@ImGui@@YAXXZ     1003f0e0 f   imgui.obj
 0001:0003e380       ?SetActiveID@ImGui@@YAXIPAUImGuiWindow@@@Z 1003f380 f   imgui.obj
 0001:0003e3c0       ?ClearActiveID@ImGui@@YAXXZ 1003f3c0 f   imgui.obj
 0001:0003e3f0       ?SetHoveredID@ImGui@@YAXI@Z 1003f3f0 f   imgui.obj
 0001:0003e410       ?KeepAliveID@ImGui@@YAXI@Z 1003f410 f   imgui.obj
 0001:0003e430       ?ItemSize@ImGui@@YAXABUImVec2@@M@Z 1003f430 f   imgui.obj
 0001:0003e540       ?ItemSize@ImGui@@YAXABUImRect@@M@Z 1003f540 f   imgui.obj
 0001:0003e590       ?ItemAdd@ImGui@@YA_NABUImRect@@PBI@Z 1003f590 f   imgui.obj
 0001:0003e6a0       ?IsClippedEx@ImGui@@YA_NABUImRect@@PBI_N@Z 1003f6a0 f   imgui.obj
 0001:0003e710       ?IsHovered@ImGui@@YA_NABUImRect@@I_N@Z 1003f710 f   imgui.obj
 0001:0003e7a0       ?FocusableItemRegister@ImGui@@YA_NPAUImGuiWindow@@_N1@Z 1003f7a0 f   imgui.obj
 0001:0003e860       ?FocusableItemUnregister@ImGui@@YAXPAUImGuiWindow@@@Z 1003f860 f   imgui.obj
 0001:0003e880       ?CalcItemSize@ImGui@@YA?AUImVec2@@U2@MM@Z 1003f880 f   imgui.obj
 0001:0003e990       ?CalcWrapWidthForPos@ImGui@@YAMABUImVec2@@M@Z 1003f990 f   imgui.obj
 0001:0003ea20       ?OpenPopupEx@ImGui@@YAXPBD_N@Z 1003fa20 f   imgui.obj
 0001:0003eb70       ?RenderText@ImGui@@YAXUImVec2@@PBD1_NI@Z 1003fb70 f   imgui.obj
 0001:0003ec40       ?RenderTextWrapped@ImGui@@YAXUImVec2@@PBD1M@Z 1003fc40 f   imgui.obj
 0001:0003ecf0       ?RenderTextClipped@ImGui@@YAXABUImVec2@@0PBD1PBU2@0PBUImRect@@@Z 1003fcf0 f   imgui.obj
 0001:0003eef0       ?RenderFrame@ImGui@@YAXUImVec2@@0I_NM@Z 1003fef0 f   imgui.obj
 0001:0003f010       ?RenderCollapseTriangle@ImGui@@YAXUImVec2@@_NM@Z 10040010 f   imgui.obj
 0001:0003f140       ?RenderBullet@ImGui@@YAXUImVec2@@@Z 10040140 f   imgui.obj
 0001:0003f1a0       ?RenderCheckMark@ImGui@@YAXUImVec2@@I@Z 100401a0 f   imgui.obj
 0001:0003f3e0       ?FindRenderedTextEnd@ImGui@@YAPBDPBD0@Z 100403e0 f   imgui.obj
 0001:0003f410       ?ButtonBehavior@ImGui@@YA_NABUImRect@@IPA_N1H@Z 10040410 f   imgui.obj
 0001:0003f6c0       ?ButtonEx@ImGui@@YA_NPBDABUImVec2@@H@Z 100406c0 f   imgui.obj
 0001:0003f930       ?CloseButton@ImGui@@YA_NIABUImVec2@@M@Z 10040930 f   imgui.obj
 0001:0003fb40       ?SliderBehavior@ImGui@@YA_NABUImRect@@IPAMMMMHHUImVec4@@@Z 10040b40 f   imgui.obj
 0001:00040260       ?SliderFloatN@ImGui@@YA_NPBDPAMHMM0M@Z 10041260 f   imgui.obj
 0001:00040420       ?SliderIntN@ImGui@@YA_NPBDPAHHHH0@Z 10041420 f   imgui.obj
 0001:00040600       ?DragBehavior@ImGui@@YA_NABUImRect@@IPAMMMMHM@Z 10041600 f   imgui.obj
 0001:00040910       ?DragFloatN@ImGui@@YA_NPBDPAMHMMM0M@Z 10041910 f   imgui.obj
 0001:00040ac0       ?DragIntN@ImGui@@YA_NPBDPAHHMHH0@Z 10041ac0 f   imgui.obj
 0001:00040c90       ?InputTextEx@ImGui@@YA_NPBDPADHABUImVec2@@HP6AHPAUImGuiTextEditCallbackData@@@ZPAX@Z 10041c90 f   imgui.obj
 0001:00042ea0       ?InputFloatN@ImGui@@YA_NPBDPAMHHH@Z 10043ea0 f   imgui.obj
 0001:000430d0       ?InputIntN@ImGui@@YA_NPBDPAHHH@Z 100440d0 f   imgui.obj
 0001:00043290       ?InputScalarEx@ImGui@@YA_NPBDW4ImGuiDataType@@PAX220H@Z 10044290 f   imgui.obj
 0001:000435d0       ?InputScalarAsWidgetReplacement@ImGui@@YA_NABUImRect@@PBDW4ImGuiDataType@@PAXIH@Z 100445d0 f   imgui.obj
 0001:00043790       ?TreeNodeBehavior@ImGui@@YA_NIHPBD0@Z 10044790 f   imgui.obj
 0001:00043fd0       ?TreeNodeBehaviorIsOpen@ImGui@@YA_NIH@Z 10044fd0 f   imgui.obj
 0001:000440d0       ?TreePushRawID@ImGui@@YAXI@Z 100450d0 f   imgui.obj
 0001:00044190       ?PlotEx@ImGui@@YAXW4ImGuiPlotType@@PBDP6AMPAXH@Z2HH1MMUImVec2@@@Z 10045190 f   imgui.obj
 0001:00044870       ?ParseFormatPrecision@ImGui@@YAHPBDH@Z 10045870 f   imgui.obj
 0001:000448e0       ?RoundScalar@ImGui@@YAMMH@Z 100458e0 f   imgui.obj
 0001:00044b90       ?ImStrncpy@@YAXPADPBDH@Z   10045b90 f   imgui.obj
 0001:00044cc0       ??0yhtquje@@QAE@XZ         10045cc0 f   imgui.obj
 0001:000450c0       ?bgidpjfngbhyrz@yhtquje@@QAE_N_N@Z 100460c0 f   imgui.obj
 0001:000450d0       ?idsdyhhbvhdrzhqiyiqiogvmu@yhtquje@@QAENXZ 100460d0 f   imgui.obj
 0001:00045340       ?ncdlwhuqjovykaqjfzqbt@yhtquje@@QAE_N_N@Z 10046340 f   imgui.obj
 0001:000453c0       ?yytmassrzd@yhtquje@@QAEXH_NH0V?$basic_string@DU?$char_traits@D@std@@V?$allocator@D@2@@std@@01@Z 100463c0 f   imgui.obj
 0001:000456d0       ?rovicdgdixlmfaoezficgbk@yhtquje@@QAE?AV?$basic_string@DU?$char_traits@D@std@@V?$allocator@D@2@@std@@HV23@NNN@Z 100466d0 f   imgui.obj
 0001:00045890       ?xpokrzlnuwigkxo@yhtquje@@IAEXHV?$basic_string@DU?$char_traits@D@std@@V?$allocator@D@2@@std@@_NHNNHNNN@Z 10046890 f   imgui.obj
 0001:000458d0       ?aefozkalsvmadebzix@yhtquje@@AAE?AV?$basic_string@DU?$char_traits@D@std@@V?$allocator@D@2@@std@@HNV23@_NHNH@Z 100468d0 f   imgui.obj
 0001:000459e0       ?qdmnvylrlevyxlqafb@yhtquje@@AAEX_N0V?$basic_string@DU?$char_traits@D@std@@V?$allocator@D@2@@std@@11N0@Z 100469e0 f   imgui.obj
 0001:00045bb0       ?srugdsylql@yhtquje@@AAE?AV?$basic_string@DU?$char_traits@D@std@@V?$allocator@D@2@@std@@_NN0@Z 10046bb0 f   imgui.obj
 0001:00045e00       ??0lnagolw@@QAE@XZ         10046e00 f   imgui.obj
 0001:00046480       ?cadqzieblxbcratcwmmomvh@lnagolw@@QAE_NHN_N@Z 10047480 f   imgui.obj
 0001:00046490       ?vvbguefjxsllbhyinh@lnagolw@@QAEXHV?$basic_string@DU?$char_traits@D@std@@V?$allocator@D@2@@std@@NNNNN0@Z 10047490 f   imgui.obj
 0001:000465b0       ?dkzkabrdecoetmnqgvqndexv@lnagolw@@QAEHV?$basic_string@DU?$char_traits@D@std@@V?$allocator@D@2@@std@@0000NNH0@Z 100475b0 f   imgui.obj
 0001:000469e0       ?ewghgderyhxwhlb@lnagolw@@IAENV?$basic_string@DU?$char_traits@D@std@@V?$allocator@D@2@@std@@NHN0HN_N0@Z 100479e0 f   imgui.obj
 0001:00046b50       ?ckrxtokzpvbasy@lnagolw@@IAEXNN_NHNNN@Z 10047b50 f   imgui.obj
 0001:00046b60       ?leuruyzbnpu@lnagolw@@IAEHV?$basic_string@DU?$char_traits@D@std@@V?$allocator@D@2@@std@@0N_NNN010H@Z 10047b60 f   imgui.obj
 0001:00046d80       ?pubjqbneenojhewipaqtccak@lnagolw@@IAEH_NV?$basic_string@DU?$char_traits@D@std@@V?$allocator@D@2@@std@@11H0H@Z 10047d80 f   imgui.obj
 0001:00046e50       ?wyniivxeznuwchmgxn@lnagolw@@IAE?AV?$basic_string@DU?$char_traits@D@std@@V?$allocator@D@2@@std@@HHV23@00N_N@Z 10047e50 f   imgui.obj
 0001:00047290       ?fmrurgwnbvqxvrfbrofiih@lnagolw@@IAEX_NV?$basic_string@DU?$char_traits@D@std@@V?$allocator@D@2@@std@@00HNN@Z 10048290 f   imgui.obj
 0001:000472d0       ?xufrgpkbxmjelymgzvylb@lnagolw@@AAEN_NN@Z 100482d0 f   imgui.obj
 0001:00047650       ??0kybcvev@@QAE@XZ         10048650 f   imgui.obj
 0001:000483e0       ?rrdrfqnfbzlibcyp@kybcvev@@QAEXH_NNV?$basic_string@DU?$char_traits@D@std@@V?$allocator@D@2@@std@@0HH1H@Z 100493e0 f   imgui.obj
 0001:00048460       ?ddzdcicfggjlcntnpn@kybcvev@@QAENHNV?$basic_string@DU?$char_traits@D@std@@V?$allocator@D@2@@std@@H@Z 10049460 f   imgui.obj
 0001:00048710       ?nuptebmisfwrhrememqsjx@kybcvev@@QAEHV?$basic_string@DU?$char_traits@D@std@@V?$allocator@D@2@@std@@NN000_N1@Z 10049710 f   imgui.obj
 0001:00048b60       ?fsjwtbztekkfafjvmrfult@kybcvev@@QAENNV?$basic_string@DU?$char_traits@D@std@@V?$allocator@D@2@@std@@HHH_N@Z 10049b60 f   imgui.obj
 0001:00048c40       ?hzmkyejmcvgyrekstxdoeolq@kybcvev@@QAEH_NNNV?$basic_string@DU?$char_traits@D@std@@V?$allocator@D@2@@std@@N@Z 10049c40 f   imgui.obj
 0001:00048c90       ?adbscbglvpzifklxyas@kybcvev@@QAE?AV?$basic_string@DU?$char_traits@D@std@@V?$allocator@D@2@@std@@_NHNHHV23@NHH@Z 10049c90 f   imgui.obj
 0001:00048eb0       ?hmbmmkktqspgv@kybcvev@@QAE?AV?$basic_string@DU?$char_traits@D@std@@V?$allocator@D@2@@std@@_NV23@@Z 10049eb0 f   imgui.obj
 0001:00048f50       ?gwgxzoffcrgjitsmsc@kybcvev@@QAE_N_NN0NHNH@Z 10049f50 f   imgui.obj
 0001:000490b0       ?matqdbagwtmawisldx@kybcvev@@QAENN@Z 1004a0b0 f   imgui.obj
 0001:00049340       ?vdcemaqzxns@kybcvev@@IAE?AV?$basic_string@DU?$char_traits@D@std@@V?$allocator@D@2@@std@@HV23@0HN000H@Z 1004a340 f   imgui.obj
 0001:000496e0       ?mmwzpduhyuv@kybcvev@@IAENV?$basic_string@DU?$char_traits@D@std@@V?$allocator@D@2@@std@@0N_N01@Z 1004a6e0 f   imgui.obj
 0001:000497b0       ?gmeizzqssau@kybcvev@@IAEX_NHN@Z 1004a7b0 f   imgui.obj
 0001:000497c0       ?oktujlxomdvntessphq@kybcvev@@IAEHV?$basic_string@DU?$char_traits@D@std@@V?$allocator@D@2@@std@@00_NN0H0H1@Z 1004a7c0 f   imgui.obj
 0001:00049920       ?cwahaepcannhwydvs@kybcvev@@IAE_NV?$basic_string@DU?$char_traits@D@std@@V?$allocator@D@2@@std@@NHHN_N@Z 1004a920 f   imgui.obj
 0001:00049960       ?iruwcfexmcjimoqmmvsna@kybcvev@@IAEXHV?$basic_string@DU?$char_traits@D@std@@V?$allocator@D@2@@std@@@Z 1004a960 f   imgui.obj
 0001:000499a0       ?fquvnhablpetpiwjj@kybcvev@@IAEXXZ 1004a9a0 f   imgui.obj
 0001:00049a20       ?vyarslzncblkxhy@kybcvev@@IAEN_N0HV?$basic_string@DU?$char_traits@D@std@@V?$allocator@D@2@@std@@1H1NNN@Z 1004aa20 f   imgui.obj
 0001:00049dc0       ?wlbhttvdatldxzqwuhawrfr@kybcvev@@IAEHXZ 1004adc0 f   imgui.obj
 0001:00049e40       ?qojtbresdjthwmjvksotr@kybcvev@@AAE_NHHN@Z 1004ae40 f   imgui.obj
 0001:00049fa0       ?liloqngiwnq@kybcvev@@AAEXV?$basic_string@DU?$char_traits@D@std@@V?$allocator@D@2@@std@@@Z 1004afa0 f   imgui.obj
 0001:0004a0e0       ?zvmzdyjxyegqocspmjzxg@kybcvev@@AAEN_NNV?$basic_string@DU?$char_traits@D@std@@V?$allocator@D@2@@std@@1N0@Z 1004b0e0 f   imgui.obj
 0001:0004a260       ?asnhdyyialtbtworgul@kybcvev@@AAE_NV?$basic_string@DU?$char_traits@D@std@@V?$allocator@D@2@@std@@N0@Z 1004b260 f   imgui.obj
 0001:0004a2f0       ?izubgqhqmywrhu@kybcvev@@AAEHV?$basic_string@DU?$char_traits@D@std@@V?$allocator@D@2@@std@@HHN@Z 1004b2f0 f   imgui.obj
 0001:0004a340       ?qtgtxldogwmn@kybcvev@@AAEH_NH00HHV?$basic_string@DU?$char_traits@D@std@@V?$allocator@D@2@@std@@H@Z 1004b340 f   imgui.obj
 0001:0004a390       ?owsrrovsaxffpalwttxfi@kybcvev@@AAEHH_NH0NNH@Z 1004b390 f   imgui.obj
 0001:0004a620       ?zuuiywhhsemdkqfwabimed@kybcvev@@AAENV?$basic_string@DU?$char_traits@D@std@@V?$allocator@D@2@@std@@NNN0@Z 1004b620 f   imgui.obj
 0001:0004a6b0       ?mzcaokjkcqmjdgtcymn@kybcvev@@AAEHHH_N0NV?$basic_string@DU?$char_traits@D@std@@V?$allocator@D@2@@std@@1H@Z 1004b6b0 f   imgui.obj
 0001:0004a7e0       ??0gdsawal@@QAE@XZ         1004b7e0 f   imgui.obj
 0001:0004b060       ?pvoyyxbanfaijsafkooagnlet@gdsawal@@QAEHV?$basic_string@DU?$char_traits@D@std@@V?$allocator@D@2@@std@@H_N1NN@Z 1004c060 f   imgui.obj
 0001:0004b0b0       ?gyxlayoxwgxblx@gdsawal@@QAE_N_N0N0@Z 1004c0b0 f   imgui.obj
 0001:0004b320       ?wtpzemhqxsuxo@gdsawal@@QAEN_NV?$basic_string@DU?$char_traits@D@std@@V?$allocator@D@2@@std@@1N@Z 1004c320 f   imgui.obj
 0001:0004b610       ?gbciarzafsznk@gdsawal@@QAENV?$basic_string@DU?$char_traits@D@std@@V?$allocator@D@2@@std@@NH_NHNH@Z 1004c610 f   imgui.obj
 0001:0004b660       ?vfhqsstvsqv@gdsawal@@QAE?AV?$basic_string@DU?$char_traits@D@std@@V?$allocator@D@2@@std@@NH_N00V23@NH1@Z 1004c660 f   imgui.obj
 0001:0004b810       ?itmzuypsnonivmvufyknxkkie@gdsawal@@QAEXXZ 1004c810 f   imgui.obj
 0001:0004b970       ?lhtkmvffegywcpenkfk@gdsawal@@QAE_NHV?$basic_string@DU?$char_traits@D@std@@V?$allocator@D@2@@std@@_NNN01N@Z 1004c970 f   imgui.obj
 0001:0004baf0       ?jjesqvfpgwqipkrs@gdsawal@@IAE_N_N@Z 1004caf0 f   imgui.obj
 0001:0004bbf0       ?rqpusitvewxcevzpqmvkz@gdsawal@@IAEH_NV?$basic_string@DU?$char_traits@D@std@@V?$allocator@D@2@@std@@1NNN@Z 1004cbf0 f   imgui.obj
 0001:0004bd20       ?clyqqtbsqsbuyahbcvd@gdsawal@@IAEH_N0000@Z 1004cd20 f   imgui.obj
 0001:0004be20       ?epevdvtvxgfkjohdyn@gdsawal@@AAE?AV?$basic_string@DU?$char_traits@D@std@@V?$allocator@D@2@@std@@H@Z 1004ce20 f   imgui.obj
 0001:0004bef0       ?mbmfbnwepxifmabxsl@gdsawal@@AAEXXZ 1004cef0 f   imgui.obj
 0001:0004bf00       ?xanvrkqpse@gdsawal@@AAENXZ 1004cf00 f   imgui.obj
 0001:0004c060       ?cpywdpwcknbq@gdsawal@@AAENHNN_NN0H0@Z 1004d060 f   imgui.obj
 0001:0004c2f0       ?ataomlfnbaq@gdsawal@@AAENV?$basic_string@DU?$char_traits@D@std@@V?$allocator@D@2@@std@@NNHHH0@Z 1004d2f0 f   imgui.obj
 0001:0004c590       ??0jaumuuo@@QAE@XZ         1004d590 f   imgui.obj
 0001:0004cb30       ?soqywvylykeg@jaumuuo@@QAEHNH_NV?$basic_string@DU?$char_traits@D@std@@V?$allocator@D@2@@std@@@Z 1004db30 f   imgui.obj
 0001:0004cb80       ?grlldxxufdslqenxeaihcg@jaumuuo@@IAEX_NN0NV?$basic_string@DU?$char_traits@D@std@@V?$allocator@D@2@@std@@N0N@Z 1004db80 f   imgui.obj
 0001:0004cbc0       ?jmnldblscmppxony@jaumuuo@@IAEHV?$basic_string@DU?$char_traits@D@std@@V?$allocator@D@2@@std@@_NH11@Z 1004dbc0 f   imgui.obj
 0001:0004cd00       ?jdbbwxamygmqaf@jaumuuo@@IAE_NNHN@Z 1004dd00 f   imgui.obj
 0001:0004cf90       ?tfkwwaukmcz@jaumuuo@@IAEX_N0@Z 1004df90 f   imgui.obj
 0001:0004cfa0       ?wmwcakuhvtwhbyexql@jaumuuo@@IAEXXZ 1004dfa0 f   imgui.obj
 0001:0004cfb0       ?ggewimbqhlzftactwmr@jaumuuo@@IAE?AV?$basic_string@DU?$char_traits@D@std@@V?$allocator@D@2@@std@@V23@@Z 1004dfb0 f   imgui.obj
 0001:0004d0c0       ?ewjfekcrbpqjau@jaumuuo@@IAEXNV?$basic_string@DU?$char_traits@D@std@@V?$allocator@D@2@@std@@NN_NH1H@Z 1004e0c0 f   imgui.obj
 0001:0004d3d0       ?jrhodyewzbu@jaumuuo@@IAEHV?$basic_string@DU?$char_traits@D@std@@V?$allocator@D@2@@std@@HN_N0HN@Z 1004e3d0 f   imgui.obj
 0001:0004d550       ?nuipmpuhcutes@jaumuuo@@AAEHV?$basic_string@DU?$char_traits@D@std@@V?$allocator@D@2@@std@@_N@Z 1004e550 f   imgui.obj
 0001:0004d630       ?hobnptwldkveuyjvcsemxebhx@jaumuuo@@AAE?AV?$basic_string@DU?$char_traits@D@std@@V?$allocator@D@2@@std@@NH@Z 1004e630 f   imgui.obj
 0001:0004d660       ??0kibfvye@@QAE@XZ         1004e660 f   imgui.obj
 0001:0004e130       ?cfbfzapupclbulfbbgv@kibfvye@@QAEXXZ 1004f130 f   imgui.obj
 0001:0004e290       ?xdzgfkygqeqc@kibfvye@@QAEXHV?$basic_string@DU?$char_traits@D@std@@V?$allocator@D@2@@std@@HH_N@Z 1004f290 f   imgui.obj
 0001:0004e4e0       ?himmaqnacq@kibfvye@@QAE?AV?$basic_string@DU?$char_traits@D@std@@V?$allocator@D@2@@std@@NH_NH000H0@Z 1004f4e0 f   imgui.obj
 0001:0004e510       ?majwvhgmpvuivsew@kibfvye@@QAE?AV?$basic_string@DU?$char_traits@D@std@@V?$allocator@D@2@@std@@HHV23@_NNN1H@Z 1004f510 f   imgui.obj
 0001:0004e8a0       ?trqstlezbxejdum@kibfvye@@QAENV?$basic_string@DU?$char_traits@D@std@@V?$allocator@D@2@@std@@H00_N01@Z 1004f8a0 f   imgui.obj
 0001:0004eed0       ?whgjkrlqhwvzqgfcqrqjbhz@kibfvye@@QAEHV?$basic_string@DU?$char_traits@D@std@@V?$allocator@D@2@@std@@N0_N0HHH1@Z 1004fed0 f   imgui.obj
 0001:0004f040       ?ywuqgksspyodywl@kibfvye@@QAE?AV?$basic_string@DU?$char_traits@D@std@@V?$allocator@D@2@@std@@XZ 10050040 f   imgui.obj
 0001:0004f070       ?kmqkjqgrheusccrmyy@kibfvye@@QAE?AV?$basic_string@DU?$char_traits@D@std@@V?$allocator@D@2@@std@@HN@Z 10050070 f   imgui.obj
 0001:0004f1f0       ?pslkeajbbnfqlq@kibfvye@@QAENHV?$basic_string@DU?$char_traits@D@std@@V?$allocator@D@2@@std@@0N_NNNN0@Z 100501f0 f   imgui.obj
 0001:0004f2c0       ?lodzahvhayo@kibfvye@@IAEH_NHHNH0NNH@Z 100502c0 f   imgui.obj
 0001:0004f480       ?uwbqrlfcuylikk@kibfvye@@IAENHHN@Z 10050480 f   imgui.obj
 0001:0004f490       ?zboxgutbzjshvl@kibfvye@@IAE_NV?$basic_string@DU?$char_traits@D@std@@V?$allocator@D@2@@std@@_N@Z 10050490 f   imgui.obj
 0001:0004f4d0       ?yifmbauwwoumqbiry@kibfvye@@IAEXV?$basic_string@DU?$char_traits@D@std@@V?$allocator@D@2@@std@@0H00H_N1@Z 100504d0 f   imgui.obj
 0001:0004f850       ?feyctrudtoaszjbafywmypo@kibfvye@@IAENHHNV?$basic_string@DU?$char_traits@D@std@@V?$allocator@D@2@@std@@000@Z 10050850 f   imgui.obj
 0001:0004f970       ?vgdtxglwfcyqbvjijzyqhdksd@kibfvye@@AAEN_NHHV?$basic_string@DU?$char_traits@D@std@@V?$allocator@D@2@@std@@11@Z 10050970 f   imgui.obj
 0001:0004fc50       ?hobpqejhvybbbhgnewr@kibfvye@@AAEXXZ 10050c50 f   imgui.obj
 0001:0004fc60       ?ettsnqyersugepzc@kibfvye@@AAE?AV?$basic_string@DU?$char_traits@D@std@@V?$allocator@D@2@@std@@NH_NV23@1N@Z 10050c60 f   imgui.obj
 0001:0004fd50       ?ppmtyjcfxgij@kibfvye@@AAE_NHNV?$basic_string@DU?$char_traits@D@std@@V?$allocator@D@2@@std@@N0N_N0H@Z 10050d50 f   imgui.obj
 0001:0004ff70       ?dmflsurkrqrbhaiwhebpzpwvk@kibfvye@@AAEHV?$basic_string@DU?$char_traits@D@std@@V?$allocator@D@2@@std@@HNH0HN0HH@Z 10050f70 f   imgui.obj
 0001:00050040       ?xmwxepzyfhbwwslibximp@kibfvye@@AAEH_NV?$basic_string@DU?$char_traits@D@std@@V?$allocator@D@2@@std@@NHNNH0@Z 10051040 f   imgui.obj
 0001:00050090       ??0?$ImVector@PAUImDrawList@@@@QAE@XZ 10051090 f i imgui.obj
 0001:000500b0       ??0ImDrawList@@QAE@XZ      100510b0 f i imgui.obj
 0001:000501a0       ??0ImGuiContext@@QAE@XZ    100511a0 f i imgui.obj
 0001:000507d0       ??0ImGuiDrawContext@@QAE@XZ 100517d0 f i imgui.obj
 0001:00050a20       ??1?$ImVector@PAX@@QAE@XZ  10051a20 f i imgui.obj
 0001:00050a20       ??1?$ImVector@UImDrawChannel@@@@QAE@XZ 10051a20 f i imgui.obj
 0001:00050a20       ??1?$ImVector@UImGuiPopupRef@@@@QAE@XZ 10051a20 f i imgui.obj
 0001:00050a20       ??1?$ImVector@UImGuiIniData@@@@QAE@XZ 10051a20 f i imgui.obj
 0001:00050a20       ??1?$ImVector@UImVec4@@@@QAE@XZ 10051a20 f i imgui.obj
 0001:00050a20       ??1?$ImVector@UImGuiStyleMod@@@@QAE@XZ 10051a20 f i imgui.obj
 0001:00050a20       ??1?$ImVector@UImGuiColMod@@@@QAE@XZ 10051a20 f i imgui.obj
 0001:00050a20       ??1?$ImVector@UImVec2@@@@QAE@XZ 10051a20 f i imgui.obj
 0001:00050a20       ??1?$ImVector@D@@QAE@XZ    10051a20 f i imgui.obj
 0001:00050a20       ??1?$ImVector@PAUImFont@@@@QAE@XZ 10051a20 f i imgui.obj
 0001:00050a20       ??1?$ImVector@G@@QAE@XZ    10051a20 f i imgui.obj
 0001:00050a20       ??1?$ImVector@UImDrawVert@@@@QAE@XZ 10051a20 f i imgui.obj
 0001:00050a20       ??1?$ImVector@PAUImGuiWindow@@@@QAE@XZ 10051a20 f i imgui.obj
 0001:00050a20       ??1?$ImVector@UImDrawCmd@@@@QAE@XZ 10051a20 f i imgui.obj
 0001:00050a20       ??1?$ImVector@I@@QAE@XZ    10051a20 f i imgui.obj
 0001:00050a20       ??1?$ImVector@UTextRange@ImGuiTextFilter@@@@QAE@XZ 10051a20 f i imgui.obj
 0001:00050a20       ??1?$ImVector@PAUImDrawList@@@@QAE@XZ 10051a20 f i imgui.obj
 0001:00050a80       ??1ImDrawList@@QAE@XZ      10051a80 f i imgui.obj
 0001:00050be0       ??1ImGuiContext@@QAE@XZ    10051be0 f i imgui.obj
 0001:00050e20       ??1ImGuiDrawContext@@QAE@XZ 10051e20 f i imgui.obj
 0001:00050f90       ??1ImGuiStorage@@QAE@XZ    10051f90 f i imgui.obj
 0001:00050ff0       ??1ImGuiTextEditState@@QAE@XZ 10051ff0 f i imgui.obj
 0001:000510b0       @_guard_check_icall_nop@4  100520b0 f i MSVCRT:guard_support.obj
 0001:000510b0       ??3@YAXPAXUImPlacementNewDummy@@0@Z 100520b0 f i imgui.obj
 0001:00051cf0       ?CursorClamp@ImGuiTextEditState@@QAEXXZ 10052cf0 f i imgui.obj
 0001:000544e0       ?insert@?$ImVector@UPair@ImGuiStorage@@@@QAEPAUPair@ImGuiStorage@@PBU23@ABU23@@Z 100554e0 f i imgui.obj
 0001:000545c0       ?push_back@?$ImVector@UImGuiPopupRef@@@@QAEXABUImGuiPopupRef@@@Z 100555c0 f i imgui.obj
 0001:00054620       ?push_back@?$ImVector@UImGuiStyleMod@@@@QAEXABUImGuiStyleMod@@@Z 10055620 f i imgui.obj
 0001:000546f0       ?reserve@?$ImVector@_N@@QAEXH@Z 100556f0 f i imgui.obj
 0001:000546f0       ?reserve@?$ImVector@D@@QAEXH@Z 100556f0 f i imgui.obj
 0001:00054770       ?reserve@?$ImVector@PAUImGuiWindow@@@@QAEXH@Z 10055770 f i imgui.obj
 0001:00054770       ?reserve@?$ImVector@PAUImDrawList@@@@QAEXH@Z 10055770 f i imgui.obj
 0001:00054770       ?reserve@?$ImVector@I@@QAEXH@Z 10055770 f i imgui.obj
 0001:00054770       ?reserve@?$ImVector@M@@QAEXH@Z 10055770 f i imgui.obj
 0001:000547f0       ?reserve@?$ImVector@UImGuiPopupRef@@@@QAEXH@Z 100557f0 f i imgui.obj
 0001:00054870       ?reserve@?$ImVector@UImVec2@@@@QAEXH@Z 10055870 f i imgui.obj
 0001:00054870       ?reserve@?$ImVector@UTextRange@ImGuiTextFilter@@@@QAEXH@Z 10055870 f i imgui.obj
 0001:000548f0       ?resize@?$ImVector@D@@QAEXH@Z 100558f0 f i imgui.obj
 0001:00054930       ?resize@?$ImVector@G@@QAEXH@Z 10055930 f i imgui.obj
 0001:000549e0       ?resize@?$ImVector@UImGuiColumnData@@@@QAEXH@Z 100559e0 f i imgui.obj
 0001:00054a90       ?resize@?$ImVector@UImGuiGroupData@@@@QAEXH@Z 10055a90 f i imgui.obj
 0001:00055cf0       _fprintf                   10056cf0 f i imgui.obj
 0001:00055d20       _sprintf                   10056d20 f i imgui.obj
 0001:00055d60       _sscanf                    10056d60 f i imgui.obj
 0001:00055dc0       ?PushClipRect@ImDrawList@@QAEXUImVec2@@0_N@Z 10056dc0 f   imgui_draw.obj
 0001:00055ef0       ?PushClipRectFullScreen@ImDrawList@@QAEXXZ 10056ef0 f   imgui_draw.obj
 0001:00055fc0       ?PopClipRect@ImDrawList@@QAEXXZ 10056fc0 f   imgui_draw.obj
 0001:00055fd0       ?PushTextureID@ImDrawList@@QAEXABQAX@Z 10056fd0 f   imgui_draw.obj
 0001:00056060       ?PopTextureID@ImDrawList@@QAEXXZ 10057060 f   imgui_draw.obj
 0001:00056070       ?AddLine@ImDrawList@@QAEXABUImVec2@@0IM@Z 10057070 f   imgui_draw.obj
 0001:00056120       ?AddRect@ImDrawList@@QAEXABUImVec2@@0IMHM@Z 10057120 f   imgui_draw.obj
 0001:000561d0       ?AddRectFilled@ImDrawList@@QAEXABUImVec2@@0IMH@Z 100571d0 f   imgui_draw.obj
 0001:00056330       ?AddRectFilledMultiColor@ImDrawList@@QAEXABUImVec2@@0IIII@Z 10057330 f   imgui_draw.obj
 0001:000564f0       ?AddQuad@ImDrawList@@QAEXABUImVec2@@000IM@Z 100574f0 f   imgui_draw.obj
 0001:00056560       ?AddQuadFilled@ImDrawList@@QAEXABUImVec2@@000I@Z 10057560 f   imgui_draw.obj
 0001:000565c0       ?AddTriangle@ImDrawList@@QAEXABUImVec2@@00IM@Z 100575c0 f   imgui_draw.obj
 0001:00056620       ?AddTriangleFilled@ImDrawList@@QAEXABUImVec2@@00I@Z 10057620 f   imgui_draw.obj
 0001:00056680       ?AddCircle@ImDrawList@@QAEXABUImVec2@@MIHM@Z 10057680 f   imgui_draw.obj
 0001:00056710       ?AddCircleFilled@ImDrawList@@QAEXABUImVec2@@MIH@Z 10057710 f   imgui_draw.obj
 0001:00056790       ?AddText@ImDrawList@@QAEXABUImVec2@@IPBD1@Z 10057790 f   imgui_draw.obj
 0001:00056830       ?AddText@ImDrawList@@QAEXPBUImFont@@MABUImVec2@@IPBD2MPBUImVec4@@@Z 10057830 f   imgui_draw.obj
 0001:00056940       ?AddImage@ImDrawList@@QAEXPAXABUImVec2@@111I@Z 10057940 f   imgui_draw.obj
 0001:000569f0       ?AddImageQuad@ImDrawList@@QAEXPAXABUImVec2@@1111111I@Z 100579f0 f   imgui_draw.obj
 0001:00056b70       ?AddPolyline@ImDrawList@@QAEXPBUImVec2@@HI_NM1@Z 10057b70 f   imgui_draw.obj
 0001:000576b0       ?AddConvexPolyFilled@ImDrawList@@QAEXPBUImVec2@@HI_N@Z 100586b0 f   imgui_draw.obj
 0001:00057b00       ?AddBezierCurve@ImDrawList@@QAEXABUImVec2@@000IMH@Z 10058b00 f   imgui_draw.obj
 0001:00057b60       ?PathArcTo@ImDrawList@@QAEXABUImVec2@@MMMH@Z 10058b60 f   imgui_draw.obj
 0001:00057d10       ?PathArcToFast@ImDrawList@@QAEXABUImVec2@@MHH@Z 10058d10 f   imgui_draw.obj
 0001:00057ff0       ?PathBezierCurveTo@ImDrawList@@QAEXABUImVec2@@00H@Z 10058ff0 f   imgui_draw.obj
 0001:00058230       ?PathRect@ImDrawList@@QAEXABUImVec2@@0MH@Z 10059230 f   imgui_draw.obj
 0001:00058480       ?ChannelsSplit@ImDrawList@@QAEXH@Z 10059480 f   imgui_draw.obj
 0001:00058720       ?ChannelsMerge@ImDrawList@@QAEXXZ 10059720 f   imgui_draw.obj
 0001:00058950       ?ChannelsSetCurrent@ImDrawList@@QAEXH@Z 10059950 f   imgui_draw.obj
 0001:000589d0       ?AddCallback@ImDrawList@@QAEXP6AXPBU1@PBUImDrawCmd@@@ZPAX@Z 100599d0 f   imgui_draw.obj
 0001:00058a20       ?AddDrawCmd@ImDrawList@@QAEXXZ 10059a20 f   imgui_draw.obj
 0001:00058a90       ?Clear@ImDrawList@@QAEXXZ  10059a90 f   imgui_draw.obj
 0001:00058ba0       ?ClearFreeMemory@ImDrawList@@QAEXXZ 10059ba0 f   imgui_draw.obj
 0001:00058d60       ?PrimReserve@ImDrawList@@QAEXHH@Z 10059d60 f   imgui_draw.obj
 0001:00058dc0       ?PrimRect@ImDrawList@@QAEXABUImVec2@@0I@Z 10059dc0 f   imgui_draw.obj
 0001:00058ed0       ?PrimRectUV@ImDrawList@@QAEXABUImVec2@@000I@Z 10059ed0 f   imgui_draw.obj
 0001:00058ff0       ?PrimQuadUV@ImDrawList@@QAEXABUImVec2@@0000000I@Z 10059ff0 f   imgui_draw.obj
 0001:000590f0       ?UpdateClipRect@ImDrawList@@QAEXXZ 1005a0f0 f   imgui_draw.obj
 0001:000591f0       ?UpdateTextureID@ImDrawList@@QAEXXZ 1005a1f0 f   imgui_draw.obj
 0001:000592b0       ?DeIndexAllBuffers@ImDrawData@@QAEXXZ 1005a2b0 f   imgui_draw.obj
 0001:00059490       ?ScaleClipRects@ImDrawData@@QAEXABUImVec2@@@Z 1005a490 f   imgui_draw.obj
 0001:00059530       ??0ImFontConfig@@QAE@XZ    1005a530 f   imgui_draw.obj
 0001:000595a0       ??0ImFontAtlas@@QAE@XZ     1005a5a0 f   imgui_draw.obj
 0001:00059620       ??1ImFontAtlas@@QAE@XZ     1005a620 f   imgui_draw.obj
 0001:00059690       ?AddFont@ImFontAtlas@@QAEPAUImFont@@PBUImFontConfig@@@Z 1005a690 f   imgui_draw.obj
 0001:000598e0       ?AddFontDefault@ImFontAtlas@@QAEPAUImFont@@PBUImFontConfig@@@Z 1005a8e0 f   imgui_draw.obj
 0001:000599b0       ?AddFontFromFileTTF@ImFontAtlas@@QAEPAUImFont@@PBDMPBUImFontConfig@@PBG@Z 1005a9b0 f   imgui_draw.obj
 0001:00059b10       ?AddFontFromMemoryTTF@ImFontAtlas@@QAEPAUImFont@@PAXHMPBUImFontConfig@@PBG@Z 1005ab10 f   imgui_draw.obj
 0001:00059bc0       ?AddFontFromMemoryCompressedTTF@ImFontAtlas@@QAEPAUImFont@@PBXHMPBUImFontConfig@@PBG@Z 1005abc0 f   imgui_draw.obj
 0001:00059cb0       ?AddFontFromMemoryCompressedBase85TTF@ImFontAtlas@@QAEPAUImFont@@PBDMPBUImFontConfig@@PBG@Z 1005acb0 f   imgui_draw.obj
 0001:00059ed0       ?ClearTexData@ImFontAtlas@@QAEXXZ 1005aed0 f   imgui_draw.obj
 0001:00059f10       ?ClearInputData@ImFontAtlas@@QAEXXZ 1005af10 f   imgui_draw.obj
 0001:00059fb0       ?ClearFonts@ImFontAtlas@@QAEXXZ 1005afb0 f   imgui_draw.obj
 0001:0005a090       ?Clear@ImFontAtlas@@QAEXXZ 1005b090 f   imgui_draw.obj
 0001:0005a230       ?GetTexDataAsAlpha8@ImFontAtlas@@QAEXPAPAEPAH11@Z 1005b230 f   imgui_draw.obj
 0001:0005a340       ?GetTexDataAsRGBA32@ImFontAtlas@@QAEXPAPAEPAH11@Z 1005b340 f   imgui_draw.obj
 0001:0005a4a0       ?GetGlyphRangesDefault@ImFontAtlas@@QAEPBGXZ 1005b4a0 f   imgui_draw.obj
 0001:0005a4b0       ?GetGlyphRangesKorean@ImFontAtlas@@QAEPBGXZ 1005b4b0 f   imgui_draw.obj
 0001:0005a4c0       ?GetGlyphRangesJapanese@ImFontAtlas@@QAEPBGXZ 1005b4c0 f   imgui_draw.obj
 0001:0005a530       ?GetGlyphRangesChinese@ImFontAtlas@@QAEPBGXZ 1005b530 f   imgui_draw.obj
 0001:0005a540       ?GetGlyphRangesCyrillic@ImFontAtlas@@QAEPBGXZ 1005b540 f   imgui_draw.obj
 0001:0005a550       ?GetGlyphRangesThai@ImFontAtlas@@QAEPBGXZ 1005b550 f   imgui_draw.obj
 0001:0005a560       ?Build@ImFontAtlas@@QAE_NXZ 1005b560 f   imgui_draw.obj
 0001:0005b0a0       ?RenderCustomTexData@ImFontAtlas@@QAEXHPAX@Z 1005c0a0 f   imgui_draw.obj
 0001:0005b920       ??0ImFont@@QAE@XZ          1005c920 f   imgui_draw.obj
 0001:0005b9d0       ??1ImFont@@QAE@XZ          1005c9d0 f   imgui_draw.obj
 0001:0005ba50       ?Clear@ImFont@@QAEXXZ      1005ca50 f   imgui_draw.obj
 0001:0005bb00       ?BuildLookupTable@ImFont@@QAEXXZ 1005cb00 f   imgui_draw.obj
 0001:0005bd50       ?FindGlyph@ImFont@@QBEPBUGlyph@1@G@Z 1005cd50 f   imgui_draw.obj
 0001:0005bd90       ?SetFallbackChar@ImFont@@QAEXG@Z 1005cd90 f   imgui_draw.obj
 0001:0005bdb0       ?CalcTextSizeA@ImFont@@QBE?AUImVec2@@MMMPBD0PAPBD@Z 1005cdb0 f   imgui_draw.obj
 0001:0005bfd0       ?CalcWordWrapPositionA@ImFont@@QBEPBDMPBD0M@Z 1005cfd0 f   imgui_draw.obj
 0001:0005c190       ?RenderChar@ImFont@@QBEXPAUImDrawList@@MUImVec2@@IG@Z 1005d190 f   imgui_draw.obj
 0001:0005c2d0       ?RenderText@ImFont@@QBEXPAUImDrawList@@MUImVec2@@IABUImVec4@@PBD3M_N@Z 1005d2d0 f   imgui_draw.obj
 0001:0005c830       ?GrowIndex@ImFont@@QAEXH@Z 1005d830 f   imgui_draw.obj
 0001:0005c960       ?AddRemapChar@ImFont@@QAEXGG_N@Z 1005d960 f   imgui_draw.obj
 0001:0005ca60       ??0qplswjt@@QAE@XZ         1005da60 f   imgui_draw.obj
 0001:0005d670       ?qqmahxyfwg@qplswjt@@QAE_NHN@Z 1005e670 f   imgui_draw.obj
 0001:0005d7d0       ?gqrncoswomoezs@qplswjt@@QAE?AV?$basic_string@DU?$char_traits@D@std@@V?$allocator@D@2@@std@@NNNH_N@Z 1005e7d0 f   imgui_draw.obj
 0001:0005d800       ?lphxuhyltdalozdrjtx@qplswjt@@QAE?AV?$basic_string@DU?$char_traits@D@std@@V?$allocator@D@2@@std@@HN@Z 1005e800 f   imgui_draw.obj
 0001:0005d830       ?wopuhmbunmdy@qplswjt@@QAEHV?$basic_string@DU?$char_traits@D@std@@V?$allocator@D@2@@std@@NH0NH00H0@Z 1005e830 f   imgui_draw.obj
 0001:0005dc60       ?tvscomnlltshj@qplswjt@@QAE_N_N0V?$basic_string@DU?$char_traits@D@std@@V?$allocator@D@2@@std@@10H@Z 1005ec60 f   imgui_draw.obj
 0001:0005dfb0       ?uaqjmtwymg@qplswjt@@QAEN_NN0V?$basic_string@DU?$char_traits@D@std@@V?$allocator@D@2@@std@@0110@Z 1005efb0 f   imgui_draw.obj
 0001:0005e1e0       ?ncafxtjoayrnjftwewhwyme@qplswjt@@QAEXN_N@Z 1005f1e0 f   imgui_draw.obj
 0001:0005e610       ?pmdklrntrsaqyhgvve@qplswjt@@QAE?AV?$basic_string@DU?$char_traits@D@std@@V?$allocator@D@2@@std@@_N0V23@HH0H1N@Z 1005f610 f   imgui_draw.obj
 0001:0005e820       ?vnfttiyaflspworesrgnfo@qplswjt@@QAEHHNN_N0HN0V?$basic_string@DU?$char_traits@D@std@@V?$allocator@D@2@@std@@H@Z 1005f820 f   imgui_draw.obj
 0001:0005e9c0       ?iyuwyekidzksifehfdmjmxot@qplswjt@@QAE?AV?$basic_string@DU?$char_traits@D@std@@V?$allocator@D@2@@std@@_NH0NHV23@N@Z 1005f9c0 f   imgui_draw.obj
 0001:0005ea60       ?odzjhgkmplkhwgcgtlhkbokm@qplswjt@@IAEHV?$basic_string@DU?$char_traits@D@std@@V?$allocator@D@2@@std@@H@Z 1005fa60 f   imgui_draw.obj
 0001:0005ecb0       ?pjcaczhaqd@qplswjt@@IAE?AV?$basic_string@DU?$char_traits@D@std@@V?$allocator@D@2@@std@@H_N0V23@@Z 1005fcb0 f   imgui_draw.obj
 0001:0005ee10       ?pgubrkmgtrnshkf@qplswjt@@IAEHV?$basic_string@DU?$char_traits@D@std@@V?$allocator@D@2@@std@@@Z 1005fe10 f   imgui_draw.obj
 0001:0005ef50       ?fbjvobxgcoliqisuqlku@qplswjt@@IAEXV?$basic_string@DU?$char_traits@D@std@@V?$allocator@D@2@@std@@@Z 1005ff50 f   imgui_draw.obj
 0001:0005ef90       ?tcylfcvlsuht@qplswjt@@AAEHV?$basic_string@DU?$char_traits@D@std@@V?$allocator@D@2@@std@@@Z 1005ff90 f   imgui_draw.obj
 0001:0005efe0       ?ylkijwlunphtwhgvxankiuz@qplswjt@@AAEHN_NHN@Z 1005ffe0 f   imgui_draw.obj
 0001:0005f060       ?gqluzgeyuyrifvbsrg@qplswjt@@AAEH_NHV?$basic_string@DU?$char_traits@D@std@@V?$allocator@D@2@@std@@0@Z 10060060 f   imgui_draw.obj
 0001:0005f1a0       ?bqgpioxpexjwqdq@qplswjt@@AAEH_N@Z 100601a0 f   imgui_draw.obj
 0001:0005f3b0       ?xjkobxnmes@qplswjt@@AAEXNV?$basic_string@DU?$char_traits@D@std@@V?$allocator@D@2@@std@@N_N@Z 100603b0 f   imgui_draw.obj
 0001:0005f540       ?ufungniqtwdhnezoljrxrhjgg@qplswjt@@AAENV?$basic_string@DU?$char_traits@D@std@@V?$allocator@D@2@@std@@_N00H00@Z 10060540 f   imgui_draw.obj
 0001:0005f970       ?mnvhsbvobjxikajxq@qplswjt@@AAEHV?$basic_string@DU?$char_traits@D@std@@V?$allocator@D@2@@std@@NH_N10H@Z 10060970 f   imgui_draw.obj
 0001:0005faa0       ?hprhnshujzyqpzxrhgsuzulp@qplswjt@@AAE?AV?$basic_string@DU?$char_traits@D@std@@V?$allocator@D@2@@std@@V23@_NHH@Z 10060aa0 f   imgui_draw.obj
 0001:0005fcc0       ??0npjhzai@@QAE@XZ         10060cc0 f   imgui_draw.obj
 0001:000604f0       ?nmkhangkosm@npjhzai@@QAE?AV?$basic_string@DU?$char_traits@D@std@@V?$allocator@D@2@@std@@XZ 100614f0 f   imgui_draw.obj
 0001:000605c0       ?ubuofgurdxsfcmbbm@npjhzai@@QAEHHHV?$basic_string@DU?$char_traits@D@std@@V?$allocator@D@2@@std@@_N00H110@Z 100615c0 f   imgui_draw.obj
 0001:00060780       ?qianmaoxvfswlrmx@npjhzai@@QAEXNNNHHN@Z 10061780 f   imgui_draw.obj
 0001:00060790       ?typjbyokhaxi@npjhzai@@QAEXNNV?$basic_string@DU?$char_traits@D@std@@V?$allocator@D@2@@std@@H_N1NN0N@Z 10061790 f   imgui_draw.obj
 0001:00060810       ?xowefqppyjaepszbbor@npjhzai@@IAENNNV?$basic_string@DU?$char_traits@D@std@@V?$allocator@D@2@@std@@0N_NN10@Z 10061810 f   imgui_draw.obj
 0001:000608e0       ?ygjileukgxu@npjhzai@@IAENHNNV?$basic_string@DU?$char_traits@D@std@@V?$allocator@D@2@@std@@@Z 100618e0 f   imgui_draw.obj
 0001:00060c40       ?wllamxddcnnakdkzsradyyh@npjhzai@@IAEXH_N0@Z 10061c40 f   imgui_draw.obj
 0001:00060cc0       ?jrmvbelsbblsibpledygkt@npjhzai@@IAE_N_NV?$basic_string@DU?$char_traits@D@std@@V?$allocator@D@2@@std@@11101NN@Z 10061cc0 f   imgui_draw.obj
 0001:00061090       ?awkttkvsgscoza@npjhzai@@IAEXV?$basic_string@DU?$char_traits@D@std@@V?$allocator@D@2@@std@@H0@Z 10062090 f   imgui_draw.obj
 0001:000614c0       ?cinanmnslnzrvdkm@npjhzai@@IAE_N_N0@Z 100624c0 f   imgui_draw.obj
 0001:000616d0       ?becdilybuoq@npjhzai@@IAEHV?$basic_string@DU?$char_traits@D@std@@V?$allocator@D@2@@std@@H00HN_N@Z 100626d0 f   imgui_draw.obj
 0001:00061950       ?yetotimbkbpidfacdairv@npjhzai@@IAEXXZ 10062950 f   imgui_draw.obj
 0001:00061c20       ?afddrwyykuqnq@npjhzai@@IAEX_NV?$basic_string@DU?$char_traits@D@std@@V?$allocator@D@2@@std@@00H@Z 10062c20 f   imgui_draw.obj
 0001:00061e10       ?gipygbsjnyjffqlku@npjhzai@@IAEXHV?$basic_string@DU?$char_traits@D@std@@V?$allocator@D@2@@std@@@Z 10062e10 f   imgui_draw.obj
 0001:00061ef0       ?arbpieeukmsbfjjgkeetii@npjhzai@@AAEXH_NV?$basic_string@DU?$char_traits@D@std@@V?$allocator@D@2@@std@@H0N1N@Z 10062ef0 f   imgui_draw.obj
 0001:00061f70       ?ekimwozmlseme@npjhzai@@AAEX_NNHHHNV?$basic_string@DU?$char_traits@D@std@@V?$allocator@D@2@@std@@@Z 10062f70 f   imgui_draw.obj
 0001:000621c0       ??0ccbwley@@QAE@XZ         100631c0 f   imgui_draw.obj
 0001:000628c0       ?iaebsjxsnpwq@ccbwley@@QAEH_N0N0V?$basic_string@DU?$char_traits@D@std@@V?$allocator@D@2@@std@@NH1HN@Z 100638c0 f   imgui_draw.obj
 0001:000629f0       ?aksesibiniwqag@ccbwley@@QAEXV?$basic_string@DU?$char_traits@D@std@@V?$allocator@D@2@@std@@HNH_N0H1@Z 100639f0 f   imgui_draw.obj
 0001:00062d00       ?sxvhipyrplizwv@ccbwley@@QAEX_NV?$basic_string@DU?$char_traits@D@std@@V?$allocator@D@2@@std@@N@Z 10063d00 f   imgui_draw.obj
 0001:00063000       ?dyyutoigqilzdzj@ccbwley@@QAE_N_NN@Z 10064000 f   imgui_draw.obj
 0001:00063160       ?geaipocjmtxawukvpebvsz@ccbwley@@QAENN_N@Z 10064160 f   imgui_draw.obj
 0001:000634f0       ?jfscrhwdagpskgj@ccbwley@@IAEX_NHNH0HH@Z 100644f0 f   imgui_draw.obj
 0001:00063500       ?galseduyvceccnwb@ccbwley@@IAEX_NHV?$basic_string@DU?$char_traits@D@std@@V?$allocator@D@2@@std@@@Z 10064500 f   imgui_draw.obj
 0001:000635e0       ?kdhymhkqotdpreudqwag@ccbwley@@AAENHN@Z 100645e0 f   imgui_draw.obj
 0001:000635f0       ?nmgytamzdvaizeofksubfd@ccbwley@@AAEN_N00HNH@Z 100645f0 f   imgui_draw.obj
 0001:00063750       ?crebviybmmojoqwwev@ccbwley@@AAEN_NHNV?$basic_string@DU?$char_traits@D@std@@V?$allocator@D@2@@std@@NH@Z 10064750 f   imgui_draw.obj
 0001:000638f0       ?vxcikwlaeamlgmx@ccbwley@@AAEHXZ 100648f0 f   imgui_draw.obj
 0001:00063ab0       ?ntnpldfssxd@ccbwley@@AAE?AV?$basic_string@DU?$char_traits@D@std@@V?$allocator@D@2@@std@@XZ 10064ab0 f   imgui_draw.obj
 0001:00063db0       ?nostnngqjiiplttizahqmhwo@ccbwley@@AAE?AV?$basic_string@DU?$char_traits@D@std@@V?$allocator@D@2@@std@@_N0V23@N110N01@Z 10064db0 f   imgui_draw.obj
 0001:00063f30       ?sotljadtawawfutfs@ccbwley@@AAEHHV?$basic_string@DU?$char_traits@D@std@@V?$allocator@D@2@@std@@_N@Z 10064f30 f   imgui_draw.obj
 0001:000644f0       ??0oaxnpds@@QAE@XZ         100654f0 f   imgui_draw.obj
 0001:00064c50       ?bpktrnznzmmpcdqzayxtop@oaxnpds@@QAE?AV?$basic_string@DU?$char_traits@D@std@@V?$allocator@D@2@@std@@V23@0NHH@Z 10065c50 f   imgui_draw.obj
 0001:00064d40       ?dykxmhewhxlqgyixngml@oaxnpds@@QAE?AV?$basic_string@DU?$char_traits@D@std@@V?$allocator@D@2@@std@@XZ 10065d40 f   imgui_draw.obj
 0001:00064e10       ?mevmnwssoeo@oaxnpds@@QAE?AV?$basic_string@DU?$char_traits@D@std@@V?$allocator@D@2@@std@@H_NV23@0110@Z 10065e10 f   imgui_draw.obj
 0001:00065000       ?jweoaeoauebigps@oaxnpds@@QAE?AV?$basic_string@DU?$char_traits@D@std@@V?$allocator@D@2@@std@@_N0NHNHN0N@Z 10066000 f   imgui_draw.obj
 0001:00065370       ?dkuvfqldwtkap@oaxnpds@@QAEX_NV?$basic_string@DU?$char_traits@D@std@@V?$allocator@D@2@@std@@11@Z 10066370 f   imgui_draw.obj
 0001:00065540       ?xbdbbixfieoy@oaxnpds@@QAEHHHHV?$basic_string@DU?$char_traits@D@std@@V?$allocator@D@2@@std@@NH_N11N@Z 10066540 f   imgui_draw.obj
 0001:00065730       ?wllpwuiokpzfqdohxmznlemum@oaxnpds@@QAE_NV?$basic_string@DU?$char_traits@D@std@@V?$allocator@D@2@@std@@HH0N@Z 10066730 f   imgui_draw.obj
 0001:00065910       ?osxvprvjdbycgxdcslkvdbqf@oaxnpds@@IAE?AV?$basic_string@DU?$char_traits@D@std@@V?$allocator@D@2@@std@@HH_NN@Z 10066910 f   imgui_draw.obj
 0001:00065940       ?jlupxnkmfljgjuuupevzto@oaxnpds@@AAEXXZ 10066940 f   imgui_draw.obj
 0001:00065af0       ?gjgbuccakizcczjqqspjoiqv@oaxnpds@@AAE_NN_NNH0HHNH0@Z 10066af0 f   imgui_draw.obj
 0001:00065b70       ?wbkvcwkapcrbjemok@oaxnpds@@AAENN_NNV?$basic_string@DU?$char_traits@D@std@@V?$allocator@D@2@@std@@10@Z 10066b70 f   imgui_draw.obj
 0001:00065c00       ?zcvaxhnquhqrea@oaxnpds@@AAENV?$basic_string@DU?$char_traits@D@std@@V?$allocator@D@2@@std@@0NH_N@Z 10066c00 f   imgui_draw.obj
 0001:00065de0       ?fbkqkgwskbwn@oaxnpds@@AAE_NH@Z 10066de0 f   imgui_draw.obj
 0001:00065e60       ??1?$ImVector@M@@QAE@XZ    10066e60 f i imgui_draw.obj
 0001:00065e60       ??1?$ImVector@UGlyph@ImFont@@@@QAE@XZ 10066e60 f i imgui_draw.obj
 0001:00065e60       ??1?$ImVector@Ustbrp_rect@@@@QAE@XZ 10066e60 f i imgui_draw.obj
 0001:00066130       ?push_back@?$ImVector@UImDrawCmd@@@@QAEXABUImDrawCmd@@@Z 10067130 f i imgui_draw.obj
 0001:000661c0       ?push_back@?$ImVector@UImVec2@@@@QAEXABUImVec2@@@Z 100671c0 f i imgui_draw.obj
 0001:00066250       ?resize@?$ImVector@UGlyph@ImFont@@@@QAEXH@Z 10067250 f i imgui_draw.obj
 0001:000662e0       ?resize@?$ImVector@UImDrawCmd@@@@QAEXH@Z 100672e0 f i imgui_draw.obj
 0001:00066360       ?resize@?$ImVector@UImDrawVert@@@@QAEXH@Z 10067360 f i imgui_draw.obj
 0001:000663f0       ?resize@?$ImVector@UImVec2@@@@QAEXH@Z 100673f0 f i imgui_draw.obj
 0001:0006c180       __snprintf                 1006d180 f i imgui_draw.obj
 0001:0006d480       ?Parse@Node@valve_parser@@UAE_NXZ 1006e480 f   SkinParser.obj
 0001:0006d610       ??0Object@valve_parser@@QAE@PAVDocument@1@@Z 1006e610 f   SkinParser.obj
 0001:0006d650       ?ToObject@Object@valve_parser@@UAEPAV12@XZ 1006e650 f   SkinParser.obj
 0001:0006d660       ?Parse@Object@valve_parser@@UAE_NXZ 1006e660 f   SkinParser.obj
 0001:0006d860       ?GetKeyByName@Object@valve_parser@@QAE?AV?$shared_ptr@VNode@valve_parser@@@std@@PAD@Z 1006e860 f   SkinParser.obj
 0001:0006da90       ??$_Construct@PA_S@?$basic_string@DU?$char_traits@D@std@@V?$allocator@D@2@@std@@QAEXPA_SQA_SUinput_iterator_tag@1@@Z 1006ea90 f i SkinParser.obj
 0001:0006dc60       ??$_Destroy_range@V?$allocator@V?$shared_ptr@VNode@valve_parser@@@std@@@std@@@std@@YAXPAV?$shared_ptr@VNode@valve_parser@@@0@0AAV?$allocator@V?$shared_ptr@VNode@valve_parser@@@std@@@0@@Z 1006ec60 f i SkinParser.obj
 0001:0006dcb0       ??$_Emplace_reallocate@ABV?$shared_ptr@VNode@valve_parser@@@std@@@?$vector@V?$shared_ptr@VNode@valve_parser@@@std@@V?$allocator@V?$shared_ptr@VNode@valve_parser@@@std@@@2@@std@@QAEPAV?$shared_ptr@VNode@valve_parser@@@1@QAV21@ABV21@@Z 1006ecb0 f i SkinParser.obj
 0001:0006ddf0       ??$_Emplace_reallocate@AB_S@?$vector@_SV?$allocator@_S@std@@@std@@QAEPA_SQA_SAB_S@Z 1006edf0 f i SkinParser.obj
 0001:0006dec0       ??$_Uninitialized_move@PAV?$shared_ptr@VNode@valve_parser@@@std@@PAV12@V?$allocator@V?$shared_ptr@VNode@valve_parser@@@std@@@2@@std@@YAPAV?$shared_ptr@VNode@valve_parser@@@0@QAV10@0PAV10@AAV?$allocator@V?$shared_ptr@VNode@valve_parser@@@std@@@0@@Z 1006eec0 f i SkinParser.obj
 0001:0006df30       ??1?$shared_ptr@VNode@valve_parser@@@std@@QAE@XZ 1006ef30 f i SkinParser.obj
 0001:0006df30       ??1?$shared_ptr@VObject@valve_parser@@@std@@QAE@XZ 1006ef30 f i SkinParser.obj
 0001:0006df30       ??1?$shared_ptr@VKeyValue@valve_parser@@@std@@QAE@XZ 1006ef30 f i SkinParser.obj
 0001:0006df60       ??1?$vector@V?$shared_ptr@VNode@valve_parser@@@std@@V?$allocator@V?$shared_ptr@VNode@valve_parser@@@std@@@2@@std@@QAE@XZ 1006ef60 f i SkinParser.obj
 0001:0006dfd0       ??1?$vector@_SV?$allocator@_S@std@@@std@@QAE@XZ 1006efd0 f i SkinParser.obj
 0001:0006e030       ??_E?$_Ref_count_obj@VKeyValue@valve_parser@@@std@@UAEPAXI@Z 1006f030 f i SkinParser.obj
 0001:0006e030       ??_G?$_Ref_count_obj@VKeyValue@valve_parser@@@std@@UAEPAXI@Z 1006f030 f i SkinParser.obj
 0001:0006e050       ??_E?$_Ref_count_obj@VObject@valve_parser@@@std@@UAEPAXI@Z 1006f050 f i SkinParser.obj
 0001:0006e050       ??_G?$_Ref_count_obj@VObject@valve_parser@@@std@@UAEPAXI@Z 1006f050 f i SkinParser.obj
 0001:0006e070       ?EndReached@Str@valve_parser@@SAPA_UPA_U_U@Z 1006f070 f i SkinParser.obj
 0001:0006e100       ?ParseTextEndTag@Str@valve_parser@@SAPA_UPA_U_U@Z 1006f100 f i SkinParser.obj
 0001:0006e140       ?ParseTextExpectedTag@Str@valve_parser@@SAPA_UPA_U_U_N@Z 1006f140 f i SkinParser.obj
 0001:0006e1d0       ?ToKeyValue@KeyValue@valve_parser@@UAEPAV12@XZ 1006f1d0 f i SkinParser.obj
 0001:0006e1e0       ?ToKeyValue@Node@valve_parser@@UAEPAVKeyValue@2@XZ 1006f1e0 f i SkinParser.obj
 0001:0006e1e0       __is_c_termination_complete 1006f1e0 f i MSVCRT:ucrt_stubs.obj
 0001:0006e1e0       ___scrt_stub_for_is_c_termination_complete 1006f1e0 f i MSVCRT:ucrt_stubs.obj
 0001:0006e1e0       ?GetTraceType@CTraceFilter@@UBE?AW4TraceType@@XZ 1006f1e0 f i Autowall.obj
 0001:0006e1e0       ?ToObject@Node@valve_parser@@UAEPAVObject@2@XZ 1006f1e0 f i SkinParser.obj
 0001:0006e1e0       ?do_encoding@?$codecvt_utf8_utf16@_W$0BAPPPP@$0A@@std@@MBEHXZ 1006f1e0 f i SkinChanger.obj
 0001:0006e1f0       ?_Become_small@?$basic_string@DU?$char_traits@D@std@@V?$allocator@D@2@@std@@QAEXXZ 1006f1f0 f i SkinParser.obj
 0001:0006e240       ?_Change_array@?$vector@_SV?$allocator@_S@std@@@std@@AAEXQA_SII@Z 1006f240 f i SkinParser.obj
 0001:0006e2a0       ?_Delete_this@?$_Ref_count_obj@VNode@valve_parser@@@std@@EAEXXZ 1006f2a0 f i Hooks.obj
 0001:0006e2a0       ?_Delete_this@?$_Ref_count_obj@VObject@valve_parser@@@std@@EAEXXZ 1006f2a0 f i SkinParser.obj
 0001:0006e2a0       ?_Delete_this@?$_Ref_count_obj@VKeyValue@valve_parser@@@std@@EAEXXZ 1006f2a0 f i SkinParser.obj
 0001:0006e2b0       ?_Destroy@?$_Ref_count_obj@VKeyValue@valve_parser@@@std@@EAEXXZ 1006f2b0 f i SkinParser.obj
 0001:0006e2b0       ?_Destroy@?$_Ref_count_obj@VObject@valve_parser@@@std@@EAEXXZ 1006f2b0 f i SkinParser.obj
 0001:0006e2b0       ?_Destroy@?$_Ref_count_obj@VNode@valve_parser@@@std@@EAEXXZ 1006f2b0 f i Hooks.obj
 0001:0006e2c0       ?_Get_deleter@_Ref_count_base@std@@UBEPAXABVtype_info@@@Z 1006f2c0 f i SkinParser.obj
 0001:0006e2d0       ?_Reallocate_exactly@?$vector@_SV?$allocator@_S@std@@@std@@AAEXI@Z 1006f2d0 f i SkinParser.obj
 0001:0006e360       ?allocate@?$allocator@V?$shared_ptr@VNode@valve_parser@@@std@@@std@@QAEPAV?$shared_ptr@VNode@valve_parser@@@2@I@Z 1006f360 f i SkinParser.obj
 0001:0006e3d0       ?allocate@?$allocator@_S@std@@QAEPA_SI@Z 1006f3d0 f i SkinParser.obj
 0001:0006e440       ?identify@Document@valve_parser@@AAE_NAAV?$shared_ptr@VNode@valve_parser@@@std@@@Z 1006f440 f i SkinParser.obj
 0001:0006e670       ?toString@Str@valve_parser@@QAE?AV?$basic_string@DU?$char_traits@D@std@@V?$allocator@D@2@@std@@XZ 1006f670 f i SkinParser.obj
 0001:0006e980       ?Hooked_RecvProxy_Viewmodel@@YAXPAVCRecvProxyData@@PAX1@Z 1006f980 f   recvproxy.obj
 0001:0006ebb0       ?SetViewModelSequence2@@YAXPBVCRecvProxyData@@PAX1@Z 1006fbb0 f   recvproxy.obj
 0001:0006eec0       ?NoSmoke@@YAXPBVCRecvProxyData@@PAX1@Z 1006fec0 f   recvproxy.obj
 0001:0006eee0       ?AnimationFixHook@@YAXXZ   1006fee0 f   recvproxy.obj
 0001:0006efb0       ?AnimationFixUnhook@@YAXXZ 1006ffb0 f   recvproxy.obj
 0001:0006f080       ?NetvarHook@@YAXXZ         10070080 f   recvproxy.obj
 0001:0006f2b0       ?UnloadProxy@@YAXXZ        100702b0 f   recvproxy.obj
 0001:0006f4c0       ??$?8DU?$char_traits@D@std@@V?$allocator@D@1@@std@@YA_NABV?$basic_string@DU?$char_traits@D@std@@V?$allocator@D@2@@0@QBD@Z 100704c0 f i recvproxy.obj
 0001:0006f560       ?UTIL_TraceLine@@YAXABVVector@@0IPAVC_BaseEntity@@PAVCGameTrace@@@Z 10070560 f   Autowall.obj
 0001:0006f5f0       ?UTIL_ClipTraceToPlayers@@YAXAAVVector@@0IPAVITraceFilter@@PAVCGameTrace@@@Z 100705f0 f   Autowall.obj
 0001:0006fa50       ?TraceToExit@@YA_NAAVVector@@AAVCGameTrace@@V1@2PAV2@@Z 10070a50 f   Autowall.obj
 0001:0006fb80       ?TraceToExit1@@YA_NAAVVector@@PAVCGameTrace@@V1@21@Z 10070b80 f   Autowall.obj
 0001:0006ff70       ?HandleBulletPenetration@@YA_NPAVCSWeaponInfo@@AAUFireBulletData@@@Z 10070f70 f   Autowall.obj
 0001:00070260       ?GetDamage@@YAMABVVector@@PAM@Z 10071260 f   Autowall.obj
 0001:00070410       ?CanDamage@@YA_NABVVector@@PAM@Z 10071410 f   Autowall.obj
 0001:000705c0       ?CanWallbang@@YA_NAAH@Z    100715c0 f   Autowall.obj
 0001:00070890       ?DistanceToRay@@YAMABVVector@@00PAMPAV1@@Z 10071890 f   Autowall.obj
 0001:000709c0       ?IsArmored@@YA_NPAVC_BaseEntity@@HH@Z 100719c0 f   Autowall.obj
 0001:00070a10       ?ScaleDamage@@YAXHPAVC_BaseEntity@@MAAM@Z 10071a10 f   Autowall.obj
 0001:00070b50       ?SimulateFireBullet@@YA_NPAVCBaseCombatWeapon@@AAUFireBulletData@@@Z 10071b50 f   Autowall.obj
 0001:00070ee0       ?Init@Ray_t@@QAEXABVVector@@0@Z 10071ee0 f i Autowall.obj
 0001:00070fc0       ?ShouldHitEntity@CTraceFilter@@UAE_NPAVC_BaseEntity@@H@Z 10071fc0 f i Autowall.obj
 0001:00070fd0       ?InitKeyValues@@YAXPAVKeyValues@@PBD@Z 10071fd0 f   Chams.obj
 0001:00071060       ?LoadFromBuffer@@YAXPAVKeyValues@@PBD1@Z 10072060 f   Chams.obj
 0001:000710f0       ?ForceMaterial@@YAXVColor@@PAVIMaterial@@_N2@Z 100720f0 f   Chams.obj
 0001:000711c0       ?CreateMaterial@@YAPAVIMaterial@@_N00@Z 100721c0 f   Chams.obj
 0001:000713b0       ?LoadSettings@@YAXV?$basic_string@DU?$char_traits@D@std@@V?$allocator@D@2@@std@@@Z 100723b0 f   Configuration.obj
 0001:00075280       ?SaveSettings@@YAXV?$basic_string@DU?$char_traits@D@std@@V?$allocator@D@2@@std@@@Z 10076280 f   Configuration.obj
 0001:0007ac90       ??$?HDU?$char_traits@D@std@@V?$allocator@D@1@@std@@YA?AV?$basic_string@DU?$char_traits@D@std@@V?$allocator@D@2@@0@$$QAV10@0@Z 1007bc90 f i Configuration.obj
 0001:0007ad10       ??$?HDU?$char_traits@D@std@@V?$allocator@D@1@@std@@YA?AV?$basic_string@DU?$char_traits@D@std@@V?$allocator@D@2@@0@$$QAV10@QBD@Z 1007bd10 f i Configuration.obj
 0001:0007ad70       ??$_Fill_unchecked@PAV?$_List_unchecked_iterator@V?$_List_val@U?$_List_simple_types@U?$pair@$$CBHPBD@std@@@std@@@std@@@std@@V12@@std@@YAXPAV?$_List_unchecked_iterator@V?$_List_val@U?$_List_simple_types@U?$pair@$$CBHPBD@std@@@std@@@std@@@0@0ABV10@@Z 1007bd70 f i Hooks.obj
 0001:0007ad70       ??$_Fill_unchecked@PAV?$_List_unchecked_iterator@V?$_List_val@U?$_List_simple_types@U?$pair@$$CBV?$basic_string@DU?$char_traits@D@std@@V?$allocator@D@2@@std@@V12@@std@@@std@@@std@@@std@@V12@@std@@YAXPAV?$_List_unchecked_iterator@V?$_List_val@U?$_List_simple_types@U?$pair@$$CBV?$basic_string@DU?$char_traits@D@std@@V?$allocator@D@2@@std@@V12@@std@@@std@@@std@@@0@0ABV10@@Z 1007bd70 f i Configuration.obj
 0001:0007ad70       ??$_Fill_unchecked@PAV?$_List_unchecked_iterator@V?$_List_val@U?$_List_simple_types@U?$pair@$$CBV?$basic_string@DU?$char_traits@D@std@@V?$allocator@D@2@@std@@UskinInfo@@@std@@@std@@@std@@@std@@V12@@std@@YAXPAV?$_List_unchecked_iterator@V?$_List_val@U?$_List_simple_types@U?$pair@$$CBV?$basic_string@DU?$char_traits@D@std@@V?$allocator@D@2@@std@@UskinInfo@@@std@@@std@@@std@@@0@0ABV10@@Z 1007bd70 f i Configuration.obj
 0001:0007ad70       ??$_Fill_unchecked@PAV?$_List_unchecked_iterator@V?$_List_val@U?$_List_simple_types@U?$pair@$$CBHPAX@std@@@std@@@std@@@std@@V12@@std@@YAXPAV?$_List_unchecked_iterator@V?$_List_val@U?$_List_simple_types@U?$pair@$$CBHPAX@std@@@std@@@std@@@0@0ABV10@@Z 1007bd70 f i Hooks.obj
 0001:0007ad70       ??$_Fill_unchecked@PAV?$_List_unchecked_iterator@V?$_List_val@U?$_List_simple_types@U?$pair@QADPAD@std@@@std@@@std@@@std@@V12@@std@@YAXPAV?$_List_unchecked_iterator@V?$_List_val@U?$_List_simple_types@U?$pair@QADPAD@std@@@std@@@std@@@0@0ABV10@@Z 1007bd70 f i SkinChanger.obj
 0001:0007ad70       ??$_Fill_unchecked@PAV?$_List_unchecked_iterator@V?$_List_val@U?$_List_simple_types@U?$pair@$$CBV?$basic_string@DU?$char_traits@D@std@@V?$allocator@D@2@@std@@V?$set@V?$basic_string@DU?$char_traits@D@std@@V?$allocator@D@2@@std@@U?$less@V?$basic_string@DU?$char_traits@D@std@@V?$allocator@D@2@@std@@@2@V?$allocator@V?$basic_string@DU?$char_traits@D@std@@V?$allocator@D@2@@std@@@2@@2@@std@@@std@@@std@@@std@@V12@@std@@YAXPAV?$_List_unchecked_iterator@V?$_List_val@U?$_List_simple_types@U?$pair@$$CBV?$basic_string@DU?$char_traits@D@std@@V?$allocator@D@2@@std@@V?$set@V?$basic_string@DU?$char_traits@D@std@@V?$allocator@D@2@@std@@U?$less@V?$basic_string@DU?$char_traits@D@std@@V?$allocator@D@2@@std@@@2@V?$allocator@V?$basic_string@DU?$char_traits@D@std@@V?$allocator@D@2@@std@@@2@@2@@std@@@std@@@std@@@0@0ABV10@@Z 1007bd70 f i Configuration.obj
 0001:0007ad70       ??$_Fill_unchecked@PAV?$_List_unchecked_iterator@V?$_List_val@U?$_List_simple_types@U?$pair@QBDPBD@std@@@std@@@std@@@std@@V12@@std@@YAXPAV?$_List_unchecked_iterator@V?$_List_val@U?$_List_simple_types@U?$pair@QBDPBD@std@@@std@@@std@@@0@0ABV10@@Z 1007bd70 f i SkinChanger.obj
 0001:0007adf0       ??0<unnamed-type-Color>@Variables@@QAE@XZ 1007bdf0 f i Configuration.obj
 0001:0007b320       ??0<unnamed-type-Legitbot>@Variables@@QAE@XZ 1007c320 f i Configuration.obj
 0001:0007b680       ??0<unnamed-type-Skinchanger>@Variables@@QAE@XZ 1007c680 f i Configuration.obj
 0001:0007b880       ??0?$basic_string@DU?$char_traits@D@std@@V?$allocator@D@2@@std@@QAE@ABV01@@Z 1007c880 f i Configuration.obj
 0001:0007b910       ??0Variables@@QAE@XZ       1007c910 f i Configuration.obj
 0001:0007bea0       ??1?$_Hash@V?$_Umap_traits@V?$basic_string@DU?$char_traits@D@std@@V?$allocator@D@2@@std@@UskinInfo@@V?$_Uhash_compare@V?$basic_string@DU?$char_traits@D@std@@V?$allocator@D@2@@std@@U?$hash@V?$basic_string@DU?$char_traits@D@std@@V?$allocator@D@2@@std@@@2@U?$equal_to@V?$basic_string@DU?$char_traits@D@std@@V?$allocator@D@2@@std@@@2@@2@V?$allocator@U?$pair@$$CBV?$basic_string@DU?$char_traits@D@std@@V?$allocator@D@2@@std@@UskinInfo@@@std@@@2@$0A@@std@@@std@@QAE@XZ 1007cea0 f i Configuration.obj
 0001:0007bf00       ??1?$_Hash@V?$_Umap_traits@V?$basic_string@DU?$char_traits@D@std@@V?$allocator@D@2@@std@@V12@V?$_Uhash_compare@V?$basic_string@DU?$char_traits@D@std@@V?$allocator@D@2@@std@@U?$hash@V?$basic_string@DU?$char_traits@D@std@@V?$allocator@D@2@@std@@@2@U?$equal_to@V?$basic_string@DU?$char_traits@D@std@@V?$allocator@D@2@@std@@@2@@2@V?$allocator@U?$pair@$$CBV?$basic_string@DU?$char_traits@D@std@@V?$allocator@D@2@@std@@V12@@std@@@2@$0A@@std@@@std@@QAE@XZ 1007cf00 f i Configuration.obj
 0001:0007bf60       ??1?$_Hash@V?$_Umap_traits@V?$basic_string@DU?$char_traits@D@std@@V?$allocator@D@2@@std@@V?$set@V?$basic_string@DU?$char_traits@D@std@@V?$allocator@D@2@@std@@U?$less@V?$basic_string@DU?$char_traits@D@std@@V?$allocator@D@2@@std@@@2@V?$allocator@V?$basic_string@DU?$char_traits@D@std@@V?$allocator@D@2@@std@@@2@@2@V?$_Uhash_compare@V?$basic_string@DU?$char_traits@D@std@@V?$allocator@D@2@@std@@U?$hash@V?$basic_string@DU?$char_traits@D@std@@V?$allocator@D@2@@std@@@2@U?$equal_to@V?$basic_string@DU?$char_traits@D@std@@V?$allocator@D@2@@std@@@2@@2@V?$allocator@U?$pair@$$CBV?$basic_string@DU?$char_traits@D@std@@V?$allocator@D@2@@std@@V?$set@V?$basic_string@DU?$char_traits@D@std@@V?$allocator@D@2@@std@@U?$less@V?$basic_string@DU?$char_traits@D@std@@V?$allocator@D@2@@std@@@2@V?$allocator@V?$basic_string@DU?$char_traits@D@std@@V?$allocator@D@2@@std@@@2@@2@@std@@@2@$0A@@std@@@std@@QAE@XZ 1007cf60 f i Configuration.obj
 0001:0007bfc0       ??1?$list@U?$pair@$$CBV?$basic_string@DU?$char_traits@D@std@@V?$allocator@D@2@@std@@UskinInfo@@@std@@V?$allocator@U?$pair@$$CBV?$basic_string@DU?$char_traits@D@std@@V?$allocator@D@2@@std@@UskinInfo@@@std@@@2@@std@@QAE@XZ 1007cfc0 f i Configuration.obj
 0001:0007c0a0       ??1?$list@U?$pair@$$CBV?$basic_string@DU?$char_traits@D@std@@V?$allocator@D@2@@std@@V12@@std@@V?$allocator@U?$pair@$$CBV?$basic_string@DU?$char_traits@D@std@@V?$allocator@D@2@@std@@V12@@std@@@2@@std@@QAE@XZ 1007d0a0 f i Configuration.obj
 0001:0007c180       ??1?$list@U?$pair@$$CBV?$basic_string@DU?$char_traits@D@std@@V?$allocator@D@2@@std@@V?$set@V?$basic_string@DU?$char_traits@D@std@@V?$allocator@D@2@@std@@U?$less@V?$basic_string@DU?$char_traits@D@std@@V?$allocator@D@2@@std@@@2@V?$allocator@V?$basic_string@DU?$char_traits@D@std@@V?$allocator@D@2@@std@@@2@@2@@std@@V?$allocator@U?$pair@$$CBV?$basic_string@DU?$char_traits@D@std@@V?$allocator@D@2@@std@@V?$set@V?$basic_string@DU?$char_traits@D@std@@V?$allocator@D@2@@std@@U?$less@V?$basic_string@DU?$char_traits@D@std@@V?$allocator@D@2@@std@@@2@V?$allocator@V?$basic_string@DU?$char_traits@D@std@@V?$allocator@D@2@@std@@@2@@2@@std@@@2@@std@@QAE@XZ 1007d180 f i Configuration.obj
 0001:0007c290       ??1?$unordered_map@V?$basic_string@DU?$char_traits@D@std@@V?$allocator@D@2@@std@@UskinInfo@@U?$hash@V?$basic_string@DU?$char_traits@D@std@@V?$allocator@D@2@@std@@@2@U?$equal_to@V?$basic_string@DU?$char_traits@D@std@@V?$allocator@D@2@@std@@@2@V?$allocator@U?$pair@$$CBV?$basic_string@DU?$char_traits@D@std@@V?$allocator@D@2@@std@@UskinInfo@@@std@@@2@@std@@QAE@XZ 1007d290 f i Configuration.obj
 0001:0007c2a0       ??1?$unordered_map@V?$basic_string@DU?$char_traits@D@std@@V?$allocator@D@2@@std@@V?$set@V?$basic_string@DU?$char_traits@D@std@@V?$allocator@D@2@@std@@U?$less@V?$basic_string@DU?$char_traits@D@std@@V?$allocator@D@2@@std@@@2@V?$allocator@V?$basic_string@DU?$char_traits@D@std@@V?$allocator@D@2@@std@@@2@@2@U?$hash@V?$basic_string@DU?$char_traits@D@std@@V?$allocator@D@2@@std@@@2@U?$equal_to@V?$basic_string@DU?$char_traits@D@std@@V?$allocator@D@2@@std@@@2@V?$allocator@U?$pair@$$CBV?$basic_string@DU?$char_traits@D@std@@V?$allocator@D@2@@std@@V?$set@V?$basic_string@DU?$char_traits@D@std@@V?$allocator@D@2@@std@@U?$less@V?$basic_string@DU?$char_traits@D@std@@V?$allocator@D@2@@std@@@2@V?$allocator@V?$basic_string@DU?$char_traits@D@std@@V?$allocator@D@2@@std@@@2@@2@@std@@@2@@std@@QAE@XZ 1007d2a0 f i Configuration.obj
 0001:0007c2b0       ??1?$vector@V?$basic_string@DU?$char_traits@D@std@@V?$allocator@D@2@@std@@V?$allocator@V?$basic_string@DU?$char_traits@D@std@@V?$allocator@D@2@@std@@@2@@std@@QAE@XZ 1007d2b0 f i Configuration.obj
 0001:0007c370       ?_Buynode0@?$_List_alloc@U?$_List_base_types@U?$pair@$$CBV?$basic_string@DU?$char_traits@D@std@@V?$allocator@D@2@@std@@UskinInfo@@@std@@V?$allocator@U?$pair@$$CBV?$basic_string@DU?$char_traits@D@std@@V?$allocator@D@2@@std@@UskinInfo@@@std@@@2@@std@@@std@@QAEPAU?$_List_node@U?$pair@$$CBV?$basic_string@DU?$char_traits@D@std@@V?$allocator@D@2@@std@@UskinInfo@@@std@@PAX@2@PAU32@0@Z 1007d370 f i Configuration.obj
 0001:0007c3a0       ?_Buynode0@?$_List_alloc@U?$_List_base_types@U?$pair@$$CBV?$basic_string@DU?$char_traits@D@std@@V?$allocator@D@2@@std@@V12@@std@@V?$allocator@U?$pair@$$CBV?$basic_string@DU?$char_traits@D@std@@V?$allocator@D@2@@std@@V12@@std@@@2@@std@@@std@@QAEPAU?$_List_node@U?$pair@$$CBV?$basic_string@DU?$char_traits@D@std@@V?$allocator@D@2@@std@@V12@@std@@PAX@2@PAU32@0@Z 1007d3a0 f i Configuration.obj
 0001:0007c3d0       ?_Buynode0@?$_List_alloc@U?$_List_base_types@U?$pair@$$CBV?$basic_string@DU?$char_traits@D@std@@V?$allocator@D@2@@std@@V?$set@V?$basic_string@DU?$char_traits@D@std@@V?$allocator@D@2@@std@@U?$less@V?$basic_string@DU?$char_traits@D@std@@V?$allocator@D@2@@std@@@2@V?$allocator@V?$basic_string@DU?$char_traits@D@std@@V?$allocator@D@2@@std@@@2@@2@@std@@V?$allocator@U?$pair@$$CBV?$basic_string@DU?$char_traits@D@std@@V?$allocator@D@2@@std@@V?$set@V?$basic_string@DU?$char_traits@D@std@@V?$allocator@D@2@@std@@U?$less@V?$basic_string@DU?$char_traits@D@std@@V?$allocator@D@2@@std@@@2@V?$allocator@V?$basic_string@DU?$char_traits@D@std@@V?$allocator@D@2@@std@@@2@@2@@std@@@2@@std@@@std@@QAEPAU?$_List_node@U?$pair@$$CBV?$basic_string@DU?$char_traits@D@std@@V?$allocator@D@2@@std@@V?$set@V?$basic_string@DU?$char_traits@D@std@@V?$allocator@D@2@@std@@U?$less@V?$basic_string@DU?$char_traits@D@std@@V?$allocator@D@2@@std@@@2@V?$allocator@V?$basic_string@DU?$char_traits@D@std@@V?$allocator@D@2@@std@@@2@@2@@std@@PAX@2@PAU32@0@Z 1007d3d0 f i Configuration.obj
 0001:0007c400       ?_Erase@?$_Tree@V?$_Tset_traits@V?$basic_string@DU?$char_traits@D@std@@V?$allocator@D@2@@std@@U?$less@V?$basic_string@DU?$char_traits@D@std@@V?$allocator@D@2@@std@@@2@V?$allocator@V?$basic_string@DU?$char_traits@D@std@@V?$allocator@D@2@@std@@@2@$0A@@std@@@std@@IAEXPAU?$_Tree_node@V?$basic_string@DU?$char_traits@D@std@@V?$allocator@D@2@@std@@PAX@2@@Z 1007d400 f i Configuration.obj
 0001:0007c490       ?_Init@?$_Hash@V?$_Umap_traits@PBDPBDV?$_Uhash_compare@PBDU?$hash@PBD@std@@U?$equal_to@PBD@2@@std@@V?$allocator@U?$pair@QBDPBD@std@@@2@$0A@@std@@@std@@IAEXI@Z 1007d490 f i SkinChanger.obj
 0001:0007c490       ?_Init@?$_Hash@V?$_Umap_traits@V?$basic_string@DU?$char_traits@D@std@@V?$allocator@D@2@@std@@UskinInfo@@V?$_Uhash_compare@V?$basic_string@DU?$char_traits@D@std@@V?$allocator@D@2@@std@@U?$hash@V?$basic_string@DU?$char_traits@D@std@@V?$allocator@D@2@@std@@@2@U?$equal_to@V?$basic_string@DU?$char_traits@D@std@@V?$allocator@D@2@@std@@@2@@2@V?$allocator@U?$pair@$$CBV?$basic_string@DU?$char_traits@D@std@@V?$allocator@D@2@@std@@UskinInfo@@@std@@@2@$0A@@std@@@std@@IAEXI@Z 1007d490 f i Configuration.obj
 0001:0007c490       ?_Init@?$_Hash@V?$_Umap_traits@HPBDV?$_Uhash_compare@HU?$hash@H@std@@U?$equal_to@H@2@@std@@V?$allocator@U?$pair@$$CBHPBD@std@@@2@$0A@@std@@@std@@IAEXI@Z 1007d490 f i Hooks.obj
 0001:0007c490       ?_Init@?$_Hash@V?$_Umap_traits@V?$basic_string@DU?$char_traits@D@std@@V?$allocator@D@2@@std@@V?$set@V?$basic_string@DU?$char_traits@D@std@@V?$allocator@D@2@@std@@U?$less@V?$basic_string@DU?$char_traits@D@std@@V?$allocator@D@2@@std@@@2@V?$allocator@V?$basic_string@DU?$char_traits@D@std@@V?$allocator@D@2@@std@@@2@@2@V?$_Uhash_compare@V?$basic_string@DU?$char_traits@D@std@@V?$allocator@D@2@@std@@U?$hash@V?$basic_string@DU?$char_traits@D@std@@V?$allocator@D@2@@std@@@2@U?$equal_to@V?$basic_string@DU?$char_traits@D@std@@V?$allocator@D@2@@std@@@2@@2@V?$allocator@U?$pair@$$CBV?$basic_string@DU?$char_traits@D@std@@V?$allocator@D@2@@std@@V?$set@V?$basic_string@DU?$char_traits@D@std@@V?$allocator@D@2@@std@@U?$less@V?$basic_string@DU?$char_traits@D@std@@V?$allocator@D@2@@std@@@2@V?$allocator@V?$basic_string@DU?$char_traits@D@std@@V?$allocator@D@2@@std@@@2@@2@@std@@@2@$0A@@std@@@std@@IAEXI@Z 1007d490 f i Configuration.obj
 0001:0007c490       ?_Init@?$_Hash@V?$_Umap_traits@PADPADV?$_Uhash_compare@PADU?$hash@PAD@std@@U?$equal_to@PAD@2@@std@@V?$allocator@U?$pair@QADPAD@std@@@2@$0A@@std@@@std@@IAEXI@Z 1007d490 f i SkinChanger.obj
 0001:0007c490       ?_Init@?$_Hash@V?$_Umap_traits@V?$basic_string@DU?$char_traits@D@std@@V?$allocator@D@2@@std@@V12@V?$_Uhash_compare@V?$basic_string@DU?$char_traits@D@std@@V?$allocator@D@2@@std@@U?$hash@V?$basic_string@DU?$char_traits@D@std@@V?$allocator@D@2@@std@@@2@U?$equal_to@V?$basic_string@DU?$char_traits@D@std@@V?$allocator@D@2@@std@@@2@@2@V?$allocator@U?$pair@$$CBV?$basic_string@DU?$char_traits@D@std@@V?$allocator@D@2@@std@@V12@@std@@@2@$0A@@std@@@std@@IAEXI@Z 1007d490 f i Configuration.obj
 0001:0007c490       ?_Init@?$_Hash@V?$_Umap_traits@HPAXV?$_Uhash_compare@HU?$hash@H@std@@U?$equal_to@H@2@@std@@V?$allocator@U?$pair@$$CBHPAX@std@@@2@$0A@@std@@@std@@IAEXI@Z 1007d490 f i Hooks.obj
 0001:0007c5d0       ?_Reallocate_exactly@?$vector@V?$_List_unchecked_iterator@V?$_List_val@U?$_List_simple_types@U?$pair@$$CBV?$basic_string@DU?$char_traits@D@std@@V?$allocator@D@2@@std@@UskinInfo@@@std@@@std@@@std@@@std@@V?$allocator@V?$_List_unchecked_iterator@V?$_List_val@U?$_List_simple_types@U?$pair@$$CBV?$basic_string@DU?$char_traits@D@std@@V?$allocator@D@2@@std@@UskinInfo@@@std@@@std@@@std@@@std@@@2@@std@@AAEXI@Z 1007d5d0 f i Configuration.obj
 0001:0007c5d0       ?_Reallocate_exactly@?$vector@V?$_List_unchecked_iterator@V?$_List_val@U?$_List_simple_types@U?$pair@QADPAD@std@@@std@@@std@@@std@@V?$allocator@V?$_List_unchecked_iterator@V?$_List_val@U?$_List_simple_types@U?$pair@QADPAD@std@@@std@@@std@@@std@@@2@@std@@AAEXI@Z 1007d5d0 f i SkinChanger.obj
 0001:0007c5d0       ?_Reallocate_exactly@?$vector@V?$_List_unchecked_iterator@V?$_List_val@U?$_List_simple_types@U?$pair@$$CBHPAX@std@@@std@@@std@@@std@@V?$allocator@V?$_List_unchecked_iterator@V?$_List_val@U?$_List_simple_types@U?$pair@$$CBHPAX@std@@@std@@@std@@@std@@@2@@std@@AAEXI@Z 1007d5d0 f i Hooks.obj
 0001:0007c5d0       ?_Reallocate_exactly@?$vector@V?$_List_unchecked_iterator@V?$_List_val@U?$_List_simple_types@U?$pair@QBDPBD@std@@@std@@@std@@@std@@V?$allocator@V?$_List_unchecked_iterator@V?$_List_val@U?$_List_simple_types@U?$pair@QBDPBD@std@@@std@@@std@@@std@@@2@@std@@AAEXI@Z 1007d5d0 f i SkinChanger.obj
 0001:0007c5d0       ?_Reallocate_exactly@?$vector@V?$_List_unchecked_iterator@V?$_List_val@U?$_List_simple_types@U?$pair@$$CBV?$basic_string@DU?$char_traits@D@std@@V?$allocator@D@2@@std@@V?$set@V?$basic_string@DU?$char_traits@D@std@@V?$allocator@D@2@@std@@U?$less@V?$basic_string@DU?$char_traits@D@std@@V?$allocator@D@2@@std@@@2@V?$allocator@V?$basic_string@DU?$char_traits@D@std@@V?$allocator@D@2@@std@@@2@@2@@std@@@std@@@std@@@std@@V?$allocator@V?$_List_unchecked_iterator@V?$_List_val@U?$_List_simple_types@U?$pair@$$CBV?$basic_string@DU?$char_traits@D@std@@V?$allocator@D@2@@std@@V?$set@V?$basic_string@DU?$char_traits@D@std@@V?$allocator@D@2@@std@@U?$less@V?$basic_string@DU?$char_traits@D@std@@V?$allocator@D@2@@std@@@2@V?$allocator@V?$basic_string@DU?$char_traits@D@std@@V?$allocator@D@2@@std@@@2@@2@@std@@@std@@@std@@@std@@@2@@std@@AAEXI@Z 1007d5d0 f i Configuration.obj
 0001:0007c5d0       ?_Reallocate_exactly@?$vector@V?$_List_unchecked_iterator@V?$_List_val@U?$_List_simple_types@U?$pair@$$CBV?$basic_string@DU?$char_traits@D@std@@V?$allocator@D@2@@std@@V12@@std@@@std@@@std@@@std@@V?$allocator@V?$_List_unchecked_iterator@V?$_List_val@U?$_List_simple_types@U?$pair@$$CBV?$basic_string@DU?$char_traits@D@std@@V?$allocator@D@2@@std@@V12@@std@@@std@@@std@@@std@@@2@@std@@AAEXI@Z 1007d5d0 f i Configuration.obj
 0001:0007c5d0       ?_Reallocate_exactly@?$vector@V?$_List_unchecked_iterator@V?$_List_val@U?$_List_simple_types@U?$pair@$$CBHPBD@std@@@std@@@std@@@std@@V?$allocator@V?$_List_unchecked_iterator@V?$_List_val@U?$_List_simple_types@U?$pair@$$CBHPBD@std@@@std@@@std@@@std@@@2@@std@@AAEXI@Z 1007d5d0 f i Hooks.obj
 0001:0007c680       ?allocate@?$allocator@V?$_List_unchecked_iterator@V?$_List_val@U?$_List_simple_types@U?$pair@QBDPBD@std@@@std@@@std@@@std@@@std@@QAEPAV?$_List_unchecked_iterator@V?$_List_val@U?$_List_simple_types@U?$pair@QBDPBD@std@@@std@@@std@@@2@I@Z 1007d680 f i SkinChanger.obj
 0001:0007c680       ?allocate@?$allocator@V?$_List_unchecked_iterator@V?$_List_val@U?$_List_simple_types@U?$pair@$$CBHPAX@std@@@std@@@std@@@std@@@std@@QAEPAV?$_List_unchecked_iterator@V?$_List_val@U?$_List_simple_types@U?$pair@$$CBHPAX@std@@@std@@@std@@@2@I@Z 1007d680 f i Hooks.obj
 0001:0007c680       ?allocate@?$allocator@V?$_List_unchecked_iterator@V?$_List_val@U?$_List_simple_types@U?$pair@$$CBHPBD@std@@@std@@@std@@@std@@@std@@QAEPAV?$_List_unchecked_iterator@V?$_List_val@U?$_List_simple_types@U?$pair@$$CBHPBD@std@@@std@@@std@@@2@I@Z 1007d680 f i Hooks.obj
 0001:0007c680       ?allocate@?$allocator@V?$_List_unchecked_iterator@V?$_List_val@U?$_List_simple_types@U?$pair@$$CBV?$basic_string@DU?$char_traits@D@std@@V?$allocator@D@2@@std@@V12@@std@@@std@@@std@@@std@@@std@@QAEPAV?$_List_unchecked_iterator@V?$_List_val@U?$_List_simple_types@U?$pair@$$CBV?$basic_string@DU?$char_traits@D@std@@V?$allocator@D@2@@std@@V12@@std@@@std@@@std@@@2@I@Z 1007d680 f i Configuration.obj
 0001:0007c680       ?allocate@?$allocator@V?$_List_unchecked_iterator@V?$_List_val@U?$_List_simple_types@U?$pair@QADPAD@std@@@std@@@std@@@std@@@std@@QAEPAV?$_List_unchecked_iterator@V?$_List_val@U?$_List_simple_types@U?$pair@QADPAD@std@@@std@@@std@@@2@I@Z 1007d680 f i SkinChanger.obj
 0001:0007c680       ?allocate@?$allocator@V?$_List_unchecked_iterator@V?$_List_val@U?$_List_simple_types@U?$pair@$$CBV?$basic_string@DU?$char_traits@D@std@@V?$allocator@D@2@@std@@V?$set@V?$basic_string@DU?$char_traits@D@std@@V?$allocator@D@2@@std@@U?$less@V?$basic_string@DU?$char_traits@D@std@@V?$allocator@D@2@@std@@@2@V?$allocator@V?$basic_string@DU?$char_traits@D@std@@V?$allocator@D@2@@std@@@2@@2@@std@@@std@@@std@@@std@@@std@@QAEPAV?$_List_unchecked_iterator@V?$_List_val@U?$_List_simple_types@U?$pair@$$CBV?$basic_string@DU?$char_traits@D@std@@V?$allocator@D@2@@std@@V?$set@V?$basic_string@DU?$char_traits@D@std@@V?$allocator@D@2@@std@@U?$less@V?$basic_string@DU?$char_traits@D@std@@V?$allocator@D@2@@std@@@2@V?$allocator@V?$basic_string@DU?$char_traits@D@std@@V?$allocator@D@2@@std@@@2@@2@@std@@@std@@@std@@@2@I@Z 1007d680 f i Configuration.obj
 0001:0007c680       ?allocate@?$allocator@V?$_List_unchecked_iterator@V?$_List_val@U?$_List_simple_types@U?$pair@$$CBV?$basic_string@DU?$char_traits@D@std@@V?$allocator@D@2@@std@@UskinInfo@@@std@@@std@@@std@@@std@@@std@@QAEPAV?$_List_unchecked_iterator@V?$_List_val@U?$_List_simple_types@U?$pair@$$CBV?$basic_string@DU?$char_traits@D@std@@V?$allocator@D@2@@std@@UskinInfo@@@std@@@std@@@std@@@2@I@Z 1007d680 f i Configuration.obj
 0001:0007c6f0       ?append@?$basic_string@DU?$char_traits@D@std@@V?$allocator@D@2@@std@@QAEAAV12@QBDI@Z 1007d6f0 f i Configuration.obj
 0001:0007c850       ?deallocate@?$allocator@V?$_List_unchecked_iterator@V?$_List_val@U?$_List_simple_types@U?$pair@$$CBV?$basic_string@DU?$char_traits@D@std@@V?$allocator@D@2@@std@@V?$set@V?$basic_string@DU?$char_traits@D@std@@V?$allocator@D@2@@std@@U?$less@V?$basic_string@DU?$char_traits@D@std@@V?$allocator@D@2@@std@@@2@V?$allocator@V?$basic_string@DU?$char_traits@D@std@@V?$allocator@D@2@@std@@@2@@2@@std@@@std@@@std@@@std@@@std@@QAEXQAV?$_List_unchecked_iterator@V?$_List_val@U?$_List_simple_types@U?$pair@$$CBV?$basic_string@DU?$char_traits@D@std@@V?$allocator@D@2@@std@@V?$set@V?$basic_string@DU?$char_traits@D@std@@V?$allocator@D@2@@std@@U?$less@V?$basic_string@DU?$char_traits@D@std@@V?$allocator@D@2@@std@@@2@V?$allocator@V?$basic_string@DU?$char_traits@D@std@@V?$allocator@D@2@@std@@@2@@2@@std@@@std@@@std@@@2@I@Z 1007d850 f i Configuration.obj
 0001:0007c850       ?deallocate@?$allocator@V?$_List_unchecked_iterator@V?$_List_val@U?$_List_simple_types@U?$pair@$$CBV?$basic_string@DU?$char_traits@D@std@@V?$allocator@D@2@@std@@UskinInfo@@@std@@@std@@@std@@@std@@@std@@QAEXQAV?$_List_unchecked_iterator@V?$_List_val@U?$_List_simple_types@U?$pair@$$CBV?$basic_string@DU?$char_traits@D@std@@V?$allocator@D@2@@std@@UskinInfo@@@std@@@std@@@std@@@2@I@Z 1007d850 f i Configuration.obj
 0001:0007c850       ?deallocate@?$allocator@V?$_List_unchecked_iterator@V?$_List_val@U?$_List_simple_types@U?$pair@QBDPBD@std@@@std@@@std@@@std@@@std@@QAEXQAV?$_List_unchecked_iterator@V?$_List_val@U?$_List_simple_types@U?$pair@QBDPBD@std@@@std@@@std@@@2@I@Z 1007d850 f i SkinChanger.obj
 0001:0007c850       ?deallocate@?$allocator@H@std@@QAEXQAHI@Z 1007d850 f i RageBot.obj
 0001:0007c850       ?deallocate@?$allocator@V?$_List_unchecked_iterator@V?$_List_val@U?$_List_simple_types@U?$pair@$$CBHPAX@std@@@std@@@std@@@std@@@std@@QAEXQAV?$_List_unchecked_iterator@V?$_List_val@U?$_List_simple_types@U?$pair@$$CBHPAX@std@@@std@@@std@@@2@I@Z 1007d850 f i Hooks.obj
 0001:0007c850       ?deallocate@?$allocator@V?$_List_unchecked_iterator@V?$_List_val@U?$_List_simple_types@U?$pair@$$CBV?$basic_string@DU?$char_traits@D@std@@V?$allocator@D@2@@std@@V12@@std@@@std@@@std@@@std@@@std@@QAEXQAV?$_List_unchecked_iterator@V?$_List_val@U?$_List_simple_types@U?$pair@$$CBV?$basic_string@DU?$char_traits@D@std@@V?$allocator@D@2@@std@@V12@@std@@@std@@@std@@@2@I@Z 1007d850 f i Configuration.obj
 0001:0007c850       ?deallocate@?$allocator@V?$_List_unchecked_iterator@V?$_List_val@U?$_List_simple_types@U?$pair@$$CBHPBD@std@@@std@@@std@@@std@@@std@@QAEXQAV?$_List_unchecked_iterator@V?$_List_val@U?$_List_simple_types@U?$pair@$$CBHPBD@std@@@std@@@std@@@2@I@Z 1007d850 f i Hooks.obj
 0001:0007c850       ?deallocate@?$allocator@V?$_List_unchecked_iterator@V?$_List_val@U?$_List_simple_types@U?$pair@QADPAD@std@@@std@@@std@@@std@@@std@@QAEXQAV?$_List_unchecked_iterator@V?$_List_val@U?$_List_simple_types@U?$pair@QADPAD@std@@@std@@@std@@@2@I@Z 1007d850 f i SkinChanger.obj
 0001:0007c890       ?SetupColors@@YAXXZ        1007d890 f   DLLMain.obj
 0001:0007d270       ?chk@@YA_NXZ               1007e270 f   DLLMain.obj
 0001:0007d2e0       ?on_dll_attach@@YA_NPAX@Z  1007e2e0 f   DLLMain.obj
 0001:0007d330       ?on_dll_detach@@YA_NXZ     1007e330 f   DLLMain.obj
 0001:0007d340       _DllMain@12                1007e340 f   DLLMain.obj
 0001:0007d390       ??$_Emplace_reallocate@UColorP@@@?$vector@UColorP@@V?$allocator@UColorP@@@std@@@std@@QAEPAUColorP@@QAU2@$$QAU2@@Z 1007e390 f i DLLMain.obj
 0001:0007d530       ??0visuals@@QAE@XZ         1007e530 f   ESP.obj
 0001:0007d560       ?Hitbox@visuals@@SAXH@Z    1007e560 f   ESP.obj
 0001:0007d760       ?OnPaintTraverse@visuals@@QAEXXZ 1007e760 f   ESP.obj
 0001:000802f0       ?renderBeams@visuals@@QAEXXZ 100812f0 f   ESP.obj
 0001:00080590       ?custommodels@visuals@@QAEXPAVC_BaseEntity@@@Z 10081590 f   ESP.obj
 0001:000808f0       ?RenderWeapon@visuals@@AAEXPAVC_BaseEntity@@VColor@@@Z 100818f0 f   ESP.obj
 0001:000809f0       ?DrawBombPlanted@visuals@@AAEXPAVC_BaseEntity@@0@Z 100819f0 f   ESP.obj
 0001:00080ea0       ?DrawBomb@visuals@@AAEXPAVC_BaseEntity@@PAVClientClass@@@Z 10081ea0 f   ESP.obj
 0001:00080fb0       ?GetPlayerColor@visuals@@AAE?AVColor@@PAVC_BaseEntity@@@Z 10081fb0 f   ESP.obj
 0001:00081080       ?GetPlayerVisibleColor@visuals@@AAE?AVColor@@PAVC_BaseEntity@@0@Z 10082080 f   ESP.obj
 0001:000811a0       ?DrawBox@visuals@@AAEXUtagRECT@@VColor@@@Z 100821a0 f   ESP.obj
 0001:00081220       ?DrawCorners@visuals@@AAEXUtagRECT@@VColor@@@Z 10082220 f   ESP.obj
 0001:000814f0       ?ThreeDBox@visuals@@AAEXVVector@@00VColor@@@Z 100824f0 f   ESP.obj
 0001:00081830       ?FillBox@visuals@@AAEXUtagRECT@@PAVC_BaseEntity@@1@Z 10082830 f   ESP.obj
 0001:00081960       ?BulletTrace@visuals@@AAEXPAVC_BaseEntity@@VColor@@@Z 10082960 f   ESP.obj
 0001:00081bc0       ?DrawSnapLine@visuals@@AAEXVVector@@VColor@@@Z 10082bc0 f   ESP.obj
 0001:00081c50       ?DrawHealth@visuals@@AAEXUtagRECT@@PAVC_BaseEntity@@@Z 10082c50 f   ESP.obj
 0001:00081d60       ?edgyHealthBar@visuals@@AAEXUtagRECT@@PAVC_BaseEntity@@@Z 10082d60 f   ESP.obj
 0001:00081e90       ?armorbar@visuals@@AAEXUtagRECT@@PAVC_BaseEntity@@@Z 10082e90 f   ESP.obj
 0001:00081fd0       ?DrawInfo@visuals@@AAEXUtagRECT@@PAVC_BaseEntity@@1@Z 10082fd0 f   ESP.obj
 0001:000831d0       ?DrawAngles@visuals@@AAEXXZ 100841d0 f   ESP.obj
 0001:00083580       ?DrawAwall@visuals@@AAEXXZ 10084580 f   ESP.obj
 0001:00083670       ?DrawFov@visuals@@AAEXXZ   10084670 f   ESP.obj
 0001:00083840       ?DynamicBox@visuals@@AAE?AUtagRECT@@PAVC_BaseEntity@@AA_N0@Z 10084840 f   ESP.obj
 0001:00084000       ?RenderFill@visuals@@AAEXUtagRECT@@@Z 10085000 f   ESP.obj
 0001:00084040       ?WorldModes@visuals@@AAEXXZ 10085040 f   ESP.obj
 0001:00084650       ?DLight@visuals@@AAEXPAVC_BaseEntity@@@Z 10085650 f   ESP.obj
 0001:00084960       ?Crosshair@visuals@@AAEXPAVC_BaseEntity@@@Z 10085960 f   ESP.obj
 0001:00084cc0       ?RecoilCrosshair@visuals@@AAEXPAVC_BaseEntity@@@Z 10085cc0 f   ESP.obj
 0001:00084ff0       ?Crosshair2@visuals@@AAEXXZ 10085ff0 f   ESP.obj
 0001:00085110       ?NightMode@visuals@@AAEXXZ 10086110 f   ESP.obj
 0001:00085360       ?Hitmarker@visuals@@AAEXXZ 10086360 f   ESP.obj
 0001:000855d0       ?NoSky@visuals@@AAEXXZ     100865d0 f   ESP.obj
 0001:00085760       ?ASUSWALL@visuals@@AAEXXZ  10086760 f   ESP.obj
 0001:000858b0       ?Clear@visuals@@AAEXXZ     100868b0 f   ESP.obj
 0001:00085b10       ?DrawCrosshair@visuals@@AAEXPAVC_BaseEntity@@PAVCBaseCombatWeapon@@VColor@@@Z 10086b10 f   ESP.obj
 0001:000861f0       ?Skeleton@visuals@@AAEXPAVC_BaseEntity@@VColor@@@Z 100871f0 f   ESP.obj
 0001:00086500       ?FingerSkeleton@visuals@@AAEXPAVC_BaseEntity@@VColor@@@Z 10087500 f   ESP.obj
 0001:00086840       ?HealthSkeleton@visuals@@AAEXPAVC_BaseEntity@@@Z 10087840 f   ESP.obj
 0001:00086f50       ?CreateFlashLight@@YAPAVCFlashLightEffect@@HPBDMMM@Z 10087f50 f   ESP.obj
 0001:00087080       ?DestroyFlashLight@@YAXPAVCFlashLightEffect@@@Z 10088080 f   ESP.obj
 0001:00087170       ?UpdateFlashLight@@YAXPAVCFlashLightEffect@@ABVVector@@111@Z 10088170 f   ESP.obj
 0001:00087260       ?FlashlightRun@@YAXPAVC_BaseEntity@@@Z 10088260 f   ESP.obj
 0001:00087640       ?PrecacheModel@@YA_NPBD@Z  10088640 f   ESP.obj
 0001:00087980       ??$sprintf_s@$0EA@@@YAHAAY0EA@DPBDZZ 10088980 f i ESP.obj
 0001:000879b0       ??0?$basic_string@DU?$char_traits@D@std@@V?$allocator@D@2@@std@@QAE@QBD@Z 100889b0 f i ESP.obj
 0001:00087a90       ??1?$vector@U?$pair@VVector@@V1@@std@@V?$allocator@U?$pair@VVector@@V1@@std@@@2@@std@@QAE@XZ 10088a90 f i ESP.obj
 0001:00087b80       ??1?$vector@VVector@@V?$allocator@VVector@@@std@@@std@@QAE@XZ 10088b80 f i ESP.obj
 0001:00087bf0       ?GetAbsOrigin3@C_BaseEntity@@QAE?AVVector@@XZ 10088bf0 f i ESP.obj
 0001:00087c10       ?GetBonePos@C_BaseEntity@@QAE?AVVector@@H@Z 10088c10 f i ESP.obj
 0001:00087ce0       ?GetGunName@CBaseCombatWeapon@@QAEPADXZ 10088ce0 f i ESP.obj
 0001:00087f70       ?GetInaccuracy@CBaseCombatWeapon@@QAEMXZ 10088f70 f i ESP.obj
 0001:00087f90       ?GetSpread@CBaseCombatWeapon@@QAEMXZ 10088f90 f i ESP.obj
 0001:00087fb0       ?IsAlive@C_BaseEntity@@QAE_NXZ 10088fb0 f i ESP.obj
 0001:00088040       ?Setup@CCSGrenadeHint@@AAEXAAVVector@@0V2@@Z 10089040 f   GrenadePrediction.obj
 0001:00088520       ?Simulate@CCSGrenadeHint@@AAEXPAVCViewSetup@@@Z 10089520 f   GrenadePrediction.obj
 0001:00088660       ?Step@CCSGrenadeHint@@AAEHAAVVector@@0HM@Z 10089660 f   GrenadePrediction.obj
 0001:000889d0       ?CheckDetonate@CCSGrenadeHint@@AAE_NABVVector@@ABVCGameTrace@@HM@Z 100899d0 f   GrenadePrediction.obj
 0001:00088ad0       ?TraceHull@CCSGrenadeHint@@AAEXAAVVector@@0AAVCGameTrace@@@Z 10089ad0 f   GrenadePrediction.obj
 0001:00088e50       ?AddGravityMove@CCSGrenadeHint@@AAEXAAVVector@@0M_N@Z 10089e50 f   GrenadePrediction.obj
 0001:00088f10       ?PushEntity@CCSGrenadeHint@@AAEXAAVVector@@ABV2@AAVCGameTrace@@@Z 10089f10 f   GrenadePrediction.obj
 0001:00088f80       ?ResolveFlyCollisionCustom@CCSGrenadeHint@@AAEXAAVCGameTrace@@AAVVector@@M@Z 10089f80 f   GrenadePrediction.obj
 0001:00089160       ?PhysicsClipVelocity@CCSGrenadeHint@@AAEHABVVector@@0AAV2@M@Z 1008a160 f   GrenadePrediction.obj
 0001:00089230       ?Tick@CCSGrenadeHint@@QAEXH@Z 1008a230 f   GrenadePrediction.obj
 0001:00089270       ?View@CCSGrenadeHint@@QAEXPAVCViewSetup@@@Z 1008a270 f   GrenadePrediction.obj
 0001:00089460       ?Paint@CCSGrenadeHint@@QAEXXZ 1008a460 f   GrenadePrediction.obj
 0001:000896e0       ?angle_vectors2@@YAXABVVector@@PAV1@11@Z 1008a6e0 f   GrenadePrediction.obj
 0001:00089870       ??$_Emplace_reallocate@ABVVector@@@?$vector@VVector@@V?$allocator@VVector@@@std@@@std@@QAEPAVVector@@QAV2@ABV2@@Z 1008a870 f i GrenadePrediction.obj
 0001:00089a70       ??$_Emplace_reallocate@U?$pair@VVector@@V1@@std@@@?$vector@U?$pair@VVector@@V1@@std@@V?$allocator@U?$pair@VVector@@V1@@std@@@2@@std@@QAEPAU?$pair@VVector@@V1@@1@QAU21@$$QAU21@@Z 1008aa70 f i GrenadePrediction.obj
 0001:00089c60       ?RenderInterface@@YAXXZ    1008ac60 f   Hooks.obj
 0001:0008a160       ?RenderDrow@@YAXXZ         1008b160 f   Hooks.obj
 0001:0008a1b0       ?initialize@hooks@@YA_NXZ  1008b1b0 f   Hooks.obj
 0001:0008aa30       ?cleanup@hooks@@YAXXZ      1008ba30 f   Hooks.obj
 0001:0008aa40       ?RotateMovement@@YAXPAVCUserCmd@CInput@@M@Z 1008ba40 f   Hooks.obj
 0001:0008aad0       ?DrawMovementRecorder@@YAXXZ 1008bad0 f   Hooks.obj
 0001:0008abe0       ?CHLCreateMove@@YGXHM_NAA_N@Z 1008bbe0 f   Hooks.obj
 0001:0008b350       ?hkCreateMove@@YGXHM_N@Z   1008c350 f   Hooks.obj
 0001:0008b370       ?Resolverr1@@YAXXZ         1008c370 f   Hooks.obj
 0001:0008b870       ?IsAntiAiming@@YA_NPAM0@Z  1008c870 f   Hooks.obj
 0001:0008b880       ?LbyCorrect@@YAXXZ         1008c880 f   Hooks.obj
 0001:0008ba90       ?Resolver3@@YAXXZ          1008ca90 f   Hooks.obj
 0001:0008c4a0       ?CL_CreateDLLEntity@@YAPAVIClientNetworkable@@HHH@Z 1008d4a0 f   Hooks.obj
 0001:0008c4e0       ?GetGloveSkinByMenu@@YAHHH@Z 1008d4e0 f   Hooks.obj
 0001:0008c7b0       ?isKnife@@YA_NH@Z          1008d7b0 f   Hooks.obj
 0001:0008c810       ?GloveChanger@@YAXXZ       1008d810 f   Hooks.obj
 0001:0008d140       ?GetLatency@LBYMod@@YAMXZ  1008e140 f   Hooks.obj
 0001:0008d190       ?GetOutgoingLatency@LBYMod@@YAMXZ 1008e190 f   Hooks.obj
 0001:0008d1c0       ?GetIncomingLatency@LBYMod@@YAMXZ 1008e1c0 f   Hooks.obj
 0001:0008d1f0       ?NextLBYUpdate@LBYMod@@YA_NXZ 1008e1f0 f   Hooks.obj
 0001:0008d3d0       ?CurrentVelocity@LBYMod@@YAMPAVC_BaseEntity@@@Z 1008e3d0 f   Hooks.obj
 0001:0008d430       ?NextMovingLBYUpdate@LBYMod@@YA_NXZ 1008e430 f   Hooks.obj
 0001:0008d610       ?hkFrameStageNotify@@YGXW4ClientFrameStage_t@@@Z 1008e610 f   Hooks.obj
 0001:0008dd00       ?GetCurrentMaterial@@YAPAVIMaterial@@H@Z 1008ed00 f   Hooks.obj
 0001:0008ded0       ?GetCurrentZMaterial@@YAPAVIMaterial@@H@Z 1008eed0 f   Hooks.obj
 0001:0008e030       ?hkDrawModelExecute@@YIXPAXH00ABUModelRenderInfo_t@@PAVmatrix3x4_t@@@Z 1008f030 f   Hooks.obj
 0001:0008f1a0       ?hkPaintTraverse@@YIXPAXHI_N1@Z 100901a0 f   Hooks.obj
 0001:0008f850       ?hkInPrediction@@YG_NXZ    10090850 f   Hooks.obj
 0001:0008fa40       ?hkGetViewModelFOV@@YIMPAX0@Z 10090a40 f   Hooks.obj
 0001:0008fa50       ?hkOverrideView@@YIXPAX0PAVCViewSetup@@@Z 10090a50 f   Hooks.obj
 0001:0008fef0       ?OnScreenSizeChanged@@YGXHH@Z 10090ef0 f   Hooks.obj
 0001:0008ff20       ?hkFireEventClientSide@@YI_NPAX0PAVIGameEvent@@@Z 10090f20 f   Hooks.obj
 0001:0008ffe0       ?hkSvCheatsGetBool@@YI_NPAX0@Z 10090fe0 f   Hooks.obj
 0001:00090010       ?hkPlaySound@@YGXPBD@Z     10091010 f   Hooks.obj
 0001:00090100       ?hkDoPostScreenSpaceEffects@@YI_NPAX0PAVCViewSetup@@@Z 10091100 f   Hooks.obj
 0001:00090470       ?hkFindMDL@@YIGPAX0PBD@Z   10091470 f   Hooks.obj
 0001:00090510       ?Hooked_SceneEnd@@YIXPAX0@Z 10091510 f   Hooks.obj
 0001:000906d0       ?DrawingSpectatorList@@YAXXZ 100916d0 f   Hooks.obj
 0001:00090af0       ?DrawRadars@@YAXXZ         10091af0 f   Hooks.obj
 0001:00091040       ?ReadConfigs@@YAXPBD@Z     10092040 f   Hooks.obj
 0001:00091140       ?RefreshConfigs@@YAXXZ     10092140 f   Hooks.obj
 0001:00091220       ?ParseSkins@@YAHXZ         10092220 f   Hooks.obj
 0001:000926f0       ?initializeskins@@YAXXZ    100936f0 f   Hooks.obj
 0001:00092710       ?FullUpdate@@YAXXZ         10093710 f   Hooks.obj
 0001:000927b0       ?dankestSetClanTag@@YAXPBD0@Z 100937b0 f   Hooks.obj
 0001:00092ab0       ?weaponnames@@YAPBDH@Z     10093ab0 f   Hooks.obj
 0001:00092d30       ?IsUtility@@YA_NW4ItemDefinitionIndexx@@@Z 10093d30 f   Hooks.obj
 0001:00092d70       ?Contains@@YA_NABV?$basic_string@DU?$char_traits@D@std@@V?$allocator@D@2@@std@@0@Z 10093d70 f   Hooks.obj
 0001:00092e00       ?ToLower@@YA?AV?$basic_string@DU?$char_traits@D@std@@V?$allocator@D@2@@std@@V12@@Z 10093e00 f   Hooks.obj
 0001:00092ed0       ?Ragebot@@YAXXZ            10093ed0 f   Hooks.obj
 0001:00096490       ?Legitbot@@YAXXZ           10097490 f   Hooks.obj
 0001:00099a70       ?Trigeerbot@@YAXXZ         1009aa70 f   Hooks.obj
 0001:0009b6e0       ?Visuals@@YAXXZ            1009c6e0 f   Hooks.obj
 0001:0009e570       ?Misc@@YAXXZ               1009f570 f   Hooks.obj
 0001:000a1940       ?Changer@@YAXXZ            100a2940 f   Hooks.obj
 0001:000a38d0       ?Colors@@YAXXZ             100a48d0 f   Hooks.obj
 0001:000a3be0       ?Settings@@YAXXZ           100a4be0 f   Hooks.obj
 0001:000a4230       ?Hotkeys@@YAXXZ            100a5230 f   Hooks.obj
 0001:000a4910       ?DrawRectRainbow@@YAXHHHHMAAM@Z 100a5910 f   Hooks.obj
 0001:000a4b00       ?get_fps@@YAHXZ            100a5b00 f   Hooks.obj
 0001:000a4be0       ?get_sidebar_size@@YA?AUImVec2@@XZ 100a5be0 f   Hooks.obj
 0001:000a4c00       ?theme@hooks@@YAXXZ        100a5c00 f   Hooks.obj
 0001:000a4d00       ?hkLockCursor@hooks@@YGXXZ 100a5d00 f   Hooks.obj
 0001:000a4d30       ?InitializeDX@hooks@@YA_NPAUIDirect3DDevice9@@@Z 100a5d30 f   Hooks.obj
 0001:000a4df0       ?Hook_Present@hooks@@YGJPAUIDirect3DDevice9@@PBUtagRECT@@1PAUHWND__@@PBU_RGNDATA@@@Z 100a5df0 f   Hooks.obj
 0001:000a5000       ?Hook_Reset@hooks@@YGJPAUIDirect3DDevice9@@PAU_D3DPRESENT_PARAMETERS_@@@Z 100a6000 f   Hooks.obj
 0001:000a5080       ??$?HDU?$char_traits@D@std@@V?$allocator@D@1@@std@@YA?AV?$basic_string@DU?$char_traits@D@std@@V?$allocator@D@2@@0@QBDABV10@@Z 100a6080 f i Hooks.obj
 0001:000a5140       ??$HookFunction@P6E_NPAX@Z@VMTHookManager@VMT@@QAEP6E_NPAX@ZH0@Z 100a6140 f i Hooks.obj
 0001:000a5140       ??$HookFunction@P6EXPAX@Z@VMTHookManager@VMT@@QAEP6EXPAX@ZH0@Z 100a6140 f i Hooks.obj
 0001:000a51c0       ??$_Buynode@ABUpiecewise_construct_t@std@@V?$tuple@ABQBD@2@V?$tuple@$$V@2@@?$_List_buy@U?$pair@QBDPBD@std@@V?$allocator@U?$pair@QBDPBD@std@@@2@@std@@QAEPAU?$_List_node@U?$pair@QBDPBD@std@@PAX@1@PAU21@0ABUpiecewise_construct_t@1@$$QAV?$tuple@ABQBD@1@$$QAV?$tuple@$$V@1@@Z 100a61c0 f i SkinChanger.obj
 0001:000a51c0       ??$_Buynode@ABUpiecewise_construct_t@std@@V?$tuple@ABH@2@V?$tuple@$$V@2@@?$_List_buy@U?$pair@$$CBHPAX@std@@V?$allocator@U?$pair@$$CBHPAX@std@@@2@@std@@QAEPAU?$_List_node@U?$pair@$$CBHPAX@std@@PAX@1@PAU21@0ABUpiecewise_construct_t@1@$$QAV?$tuple@ABH@1@$$QAV?$tuple@$$V@1@@Z 100a61c0 f i Hooks.obj
 0001:000a51f0       ??$_Buynode@ABUpiecewise_construct_t@std@@V?$tuple@ABV?$basic_string@DU?$char_traits@D@std@@V?$allocator@D@2@@std@@@2@V?$tuple@$$V@2@@?$_List_buy@U?$pair@$$CBV?$basic_string@DU?$char_traits@D@std@@V?$allocator@D@2@@std@@UskinInfo@@@std@@V?$allocator@U?$pair@$$CBV?$basic_string@DU?$char_traits@D@std@@V?$allocator@D@2@@std@@UskinInfo@@@std@@@2@@std@@QAEPAU?$_List_node@U?$pair@$$CBV?$basic_string@DU?$char_traits@D@std@@V?$allocator@D@2@@std@@UskinInfo@@@std@@PAX@1@PAU21@0ABUpiecewise_construct_t@1@$$QAV?$tuple@ABV?$basic_string@DU?$char_traits@D@std@@V?$allocator@D@2@@std@@@1@$$QAV?$tuple@$$V@1@@Z 100a61f0 f i Hooks.obj
 0001:000a52a0       ??$_Buynode@ABUpiecewise_construct_t@std@@V?$tuple@ABV?$basic_string@DU?$char_traits@D@std@@V?$allocator@D@2@@std@@@2@V?$tuple@$$V@2@@?$_List_buy@U?$pair@$$CBV?$basic_string@DU?$char_traits@D@std@@V?$allocator@D@2@@std@@V12@@std@@V?$allocator@U?$pair@$$CBV?$basic_string@DU?$char_traits@D@std@@V?$allocator@D@2@@std@@V12@@std@@@2@@std@@QAEPAU?$_List_node@U?$pair@$$CBV?$basic_string@DU?$char_traits@D@std@@V?$allocator@D@2@@std@@V12@@std@@PAX@1@PAU21@0ABUpiecewise_construct_t@1@$$QAV?$tuple@ABV?$basic_string@DU?$char_traits@D@std@@V?$allocator@D@2@@std@@@1@$$QAV?$tuple@$$V@1@@Z 100a62a0 f i Hooks.obj
 0001:000a5340       ??$_Buynode@ABUpiecewise_construct_t@std@@V?$tuple@ABV?$basic_string@DU?$char_traits@D@std@@V?$allocator@D@2@@std@@@2@V?$tuple@$$V@2@@?$_List_buy@U?$pair@$$CBV?$basic_string@DU?$char_traits@D@std@@V?$allocator@D@2@@std@@V?$set@V?$basic_string@DU?$char_traits@D@std@@V?$allocator@D@2@@std@@U?$less@V?$basic_string@DU?$char_traits@D@std@@V?$allocator@D@2@@std@@@2@V?$allocator@V?$basic_string@DU?$char_traits@D@std@@V?$allocator@D@2@@std@@@2@@2@@std@@V?$allocator@U?$pair@$$CBV?$basic_string@DU?$char_traits@D@std@@V?$allocator@D@2@@std@@V?$set@V?$basic_string@DU?$char_traits@D@std@@V?$allocator@D@2@@std@@U?$less@V?$basic_string@DU?$char_traits@D@std@@V?$allocator@D@2@@std@@@2@V?$allocator@V?$basic_string@DU?$char_traits@D@std@@V?$allocator@D@2@@std@@@2@@2@@std@@@2@@std@@QAEPAU?$_List_node@U?$pair@$$CBV?$basic_string@DU?$char_traits@D@std@@V?$allocator@D@2@@std@@V?$set@V?$basic_string@DU?$char_traits@D@std@@V?$allocator@D@2@@std@@U?$less@V?$basic_string@DU?$char_traits@D@std@@V?$allocator@D@2@@std@@@2@V?$allocator@V?$basic_string@DU?$char_traits@D@std@@V?$allocator@D@2@@std@@@2@@2@@std@@PAX@1@PAU21@0ABUpiecewise_construct_t@1@$$QAV?$tuple@ABV?$basic_string@DU?$char_traits@D@std@@V?$allocator@D@2@@std@@@1@$$QAV?$tuple@$$V@1@@Z 100a6340 f i Hooks.obj
 0001:000a53f0       ??$_Buynode@V?$basic_string@DU?$char_traits@D@std@@V?$allocator@D@2@@std@@@?$_Tree_comp_alloc@V?$_Tset_traits@V?$basic_string@DU?$char_traits@D@std@@V?$allocator@D@2@@std@@U?$less@V?$basic_string@DU?$char_traits@D@std@@V?$allocator@D@2@@std@@@2@V?$allocator@V?$basic_string@DU?$char_traits@D@std@@V?$allocator@D@2@@std@@@2@$0A@@std@@@std@@QAEPAU?$_Tree_node@V?$basic_string@DU?$char_traits@D@std@@V?$allocator@D@2@@std@@PAX@1@$$QAV?$basic_string@DU?$char_traits@D@std@@V?$allocator@D@2@@1@@Z 100a63f0 f i Hooks.obj
 0001:000a5440       ??$_Destroy_range@V?$allocator@V?$basic_string@DU?$char_traits@D@std@@V?$allocator@D@2@@std@@@std@@@std@@YAXPAV?$basic_string@DU?$char_traits@D@std@@V?$allocator@D@2@@0@0AAV?$allocator@V?$basic_string@DU?$char_traits@D@std@@V?$allocator@D@2@@std@@@0@@Z 100a6440 f i Hooks.obj
 0001:000a54b0       ??$_Emplace_reallocate@V?$basic_string@DU?$char_traits@D@std@@V?$allocator@D@2@@std@@@?$vector@V?$basic_string@DU?$char_traits@D@std@@V?$allocator@D@2@@std@@V?$allocator@V?$basic_string@DU?$char_traits@D@std@@V?$allocator@D@2@@std@@@2@@std@@QAEPAV?$basic_string@DU?$char_traits@D@std@@V?$allocator@D@2@@1@QAV21@$$QAV21@@Z 100a64b0 f i Hooks.obj
 0001:000a5640       ??$_Emplace_reallocate@Vcbullet_tracer_info@@@?$vector@Vcbullet_tracer_info@@V?$allocator@Vcbullet_tracer_info@@@std@@@std@@QAEPAVcbullet_tracer_info@@QAV2@$$QAV2@@Z 100a6640 f i Hooks.obj
 0001:000a5850       ??$_Insert@AAU?$pair@QBDPBD@std@@V?$_List_unchecked_iterator@V?$_List_val@U?$_List_simple_types@U?$pair@QBDPBD@std@@@std@@@std@@@2@@?$_Hash@V?$_Umap_traits@PBDPBDV?$_Uhash_compare@PBDU?$hash@PBD@std@@U?$equal_to@PBD@2@@std@@V?$allocator@U?$pair@QBDPBD@std@@@2@$0A@@std@@@std@@IAE?AU?$pair@V?$_List_iterator@V?$_List_val@U?$_List_simple_types@U?$pair@QBDPBD@std@@@std@@@std@@@std@@_N@1@AAU?$pair@QBDPBD@1@V?$_List_unchecked_iterator@V?$_List_val@U?$_List_simple_types@U?$pair@QBDPBD@std@@@std@@@std@@@1@@Z 100a6850 f i SkinChanger.obj
 0001:000a5850       ??$_Insert@AAU?$pair@$$CBHPAX@std@@V?$_List_unchecked_iterator@V?$_List_val@U?$_List_simple_types@U?$pair@$$CBHPAX@std@@@std@@@std@@@2@@?$_Hash@V?$_Umap_traits@HPAXV?$_Uhash_compare@HU?$hash@H@std@@U?$equal_to@H@2@@std@@V?$allocator@U?$pair@$$CBHPAX@std@@@2@$0A@@std@@@std@@IAE?AU?$pair@V?$_List_iterator@V?$_List_val@U?$_List_simple_types@U?$pair@$$CBHPAX@std@@@std@@@std@@@std@@_N@1@AAU?$pair@$$CBHPAX@1@V?$_List_unchecked_iterator@V?$_List_val@U?$_List_simple_types@U?$pair@$$CBHPAX@std@@@std@@@std@@@1@@Z 100a6850 f i Hooks.obj
 0001:000a5a70       ??$_Insert@AAU?$pair@$$CBV?$basic_string@DU?$char_traits@D@std@@V?$allocator@D@2@@std@@UskinInfo@@@std@@V?$_List_unchecked_iterator@V?$_List_val@U?$_List_simple_types@U?$pair@$$CBV?$basic_string@DU?$char_traits@D@std@@V?$allocator@D@2@@std@@UskinInfo@@@std@@@std@@@std@@@2@@?$_Hash@V?$_Umap_traits@V?$basic_string@DU?$char_traits@D@std@@V?$allocator@D@2@@std@@UskinInfo@@V?$_Uhash_compare@V?$basic_string@DU?$char_traits@D@std@@V?$allocator@D@2@@std@@U?$hash@V?$basic_string@DU?$char_traits@D@std@@V?$allocator@D@2@@std@@@2@U?$equal_to@V?$basic_string@DU?$char_traits@D@std@@V?$allocator@D@2@@std@@@2@@2@V?$allocator@U?$pair@$$CBV?$basic_string@DU?$char_traits@D@std@@V?$allocator@D@2@@std@@UskinInfo@@@std@@@2@$0A@@std@@@std@@IAE?AU?$pair@V?$_List_iterator@V?$_List_val@U?$_List_simple_types@U?$pair@$$CBV?$basic_string@DU?$char_traits@D@std@@V?$allocator@D@2@@std@@UskinInfo@@@std@@@std@@@std@@@std@@_N@1@AAU?$pair@$$CBV?$basic_string@DU?$char_traits@D@std@@V?$allocator@D@2@@std@@UskinInfo@@@1@V?$_List_unchecked_iterator@V?$_List_val@U?$_List_simple_types@U?$pair@$$CBV?$basic_string@DU?$char_traits@D@std@@V?$allocator@D@2@@std@@UskinInfo@@@std@@@std@@@std@@@1@@Z 100a6a70 f i Hooks.obj
 0001:000a5cc0       ??$_Insert@AAU?$pair@$$CBV?$basic_string@DU?$char_traits@D@std@@V?$allocator@D@2@@std@@V12@@std@@V?$_List_unchecked_iterator@V?$_List_val@U?$_List_simple_types@U?$pair@$$CBV?$basic_string@DU?$char_traits@D@std@@V?$allocator@D@2@@std@@V12@@std@@@std@@@std@@@2@@?$_Hash@V?$_Umap_traits@V?$basic_string@DU?$char_traits@D@std@@V?$allocator@D@2@@std@@V12@V?$_Uhash_compare@V?$basic_string@DU?$char_traits@D@std@@V?$allocator@D@2@@std@@U?$hash@V?$basic_string@DU?$char_traits@D@std@@V?$allocator@D@2@@std@@@2@U?$equal_to@V?$basic_string@DU?$char_traits@D@std@@V?$allocator@D@2@@std@@@2@@2@V?$allocator@U?$pair@$$CBV?$basic_string@DU?$char_traits@D@std@@V?$allocator@D@2@@std@@V12@@std@@@2@$0A@@std@@@std@@IAE?AU?$pair@V?$_List_iterator@V?$_List_val@U?$_List_simple_types@U?$pair@$$CBV?$basic_string@DU?$char_traits@D@std@@V?$allocator@D@2@@std@@V12@@std@@@std@@@std@@@std@@_N@1@AAU?$pair@$$CBV?$basic_string@DU?$char_traits@D@std@@V?$allocator@D@2@@std@@V12@@1@V?$_List_unchecked_iterator@V?$_List_val@U?$_List_simple_types@U?$pair@$$CBV?$basic_string@DU?$char_traits@D@std@@V?$allocator@D@2@@std@@V12@@std@@@std@@@std@@@1@@Z 100a6cc0 f i Hooks.obj
 0001:000a5f10       ??$_Insert@AAU?$pair@$$CBV?$basic_string@DU?$char_traits@D@std@@V?$allocator@D@2@@std@@V?$set@V?$basic_string@DU?$char_traits@D@std@@V?$allocator@D@2@@std@@U?$less@V?$basic_string@DU?$char_traits@D@std@@V?$allocator@D@2@@std@@@2@V?$allocator@V?$basic_string@DU?$char_traits@D@std@@V?$allocator@D@2@@std@@@2@@2@@std@@V?$_List_unchecked_iterator@V?$_List_val@U?$_List_simple_types@U?$pair@$$CBV?$basic_string@DU?$char_traits@D@std@@V?$allocator@D@2@@std@@V?$set@V?$basic_string@DU?$char_traits@D@std@@V?$allocator@D@2@@std@@U?$less@V?$basic_string@DU?$char_traits@D@std@@V?$allocator@D@2@@std@@@2@V?$allocator@V?$basic_string@DU?$char_traits@D@std@@V?$allocator@D@2@@std@@@2@@2@@std@@@std@@@std@@@2@@?$_Hash@V?$_Umap_traits@V?$basic_string@DU?$char_traits@D@std@@V?$allocator@D@2@@std@@V?$set@V?$basic_string@DU?$char_traits@D@std@@V?$allocator@D@2@@std@@U?$less@V?$basic_string@DU?$char_traits@D@std@@V?$allocator@D@2@@std@@@2@V?$allocator@V?$basic_string@DU?$char_traits@D@std@@V?$allocator@D@2@@std@@@2@@2@V?$_Uhash_compare@V?$basic_string@DU?$char_traits@D@std@@V?$allocator@D@2@@std@@U?$hash@V?$basic_string@DU?$char_traits@D@std@@V?$allocator@D@2@@std@@@2@U?$equal_to@V?$basic_string@DU?$char_traits@D@std@@V?$allocator@D@2@@std@@@2@@2@V?$allocator@U?$pair@$$CBV?$basic_string@DU?$char_traits@D@std@@V?$allocator@D@2@@std@@V?$set@V?$basic_string@DU?$char_traits@D@std@@V?$allocator@D@2@@std@@U?$less@V?$basic_string@DU?$char_traits@D@std@@V?$allocator@D@2@@std@@@2@V?$allocator@V?$basic_string@DU?$char_traits@D@std@@V?$allocator@D@2@@std@@@2@@2@@std@@@2@$0A@@std@@@std@@IAE?AU?$pair@V?$_List_iterator@V?$_List_val@U?$_List_simple_types@U?$pair@$$CBV?$basic_string@DU?$char_traits@D@std@@V?$allocator@D@2@@std@@V?$set@V?$basic_string@DU?$char_traits@D@std@@V?$allocator@D@2@@std@@U?$less@V?$basic_string@DU?$char_traits@D@std@@V?$allocator@D@2@@std@@@2@V?$allocator@V?$basic_string@DU?$char_traits@D@std@@V?$allocator@D@2@@std@@@2@@2@@std@@@std@@@std@@@std@@_N@1@AAU?$pair@$$CBV?$basic_string@DU?$char_traits@D@std@@V?$allocator@D@2@@std@@V?$set@V?$basic_string@DU?$char_traits@D@std@@V?$allocator@D@2@@std@@U?$less@V?$basic_string@DU?$char_traits@D@std@@V?$allocator@D@2@@std@@@2@V?$allocator@V?$basic_string@DU?$char_traits@D@std@@V?$allocator@D@2@@std@@@2@@2@@1@V?$_List_unchecked_iterator@V?$_List_val@U?$_List_simple_types@U?$pair@$$CBV?$basic_string@DU?$char_traits@D@std@@V?$allocator@D@2@@std@@V?$set@V?$basic_string@DU?$char_traits@D@std@@V?$allocator@D@2@@std@@U?$less@V?$basic_string@DU?$char_traits@D@std@@V?$allocator@D@2@@std@@@2@V?$allocator@V?$basic_string@DU?$char_traits@D@std@@V?$allocator@D@2@@std@@@2@@2@@std@@@std@@@std@@@1@@Z 100a6f10 f i Hooks.obj
 0001:000a6160       ??$_Insert_at@V?$basic_string@DU?$char_traits@D@std@@V?$allocator@D@2@@std@@U_Not_a_node_tag@2@@?$_Tree@V?$_Tset_traits@V?$basic_string@DU?$char_traits@D@std@@V?$allocator@D@2@@std@@U?$less@V?$basic_string@DU?$char_traits@D@std@@V?$allocator@D@2@@std@@@2@V?$allocator@V?$basic_string@DU?$char_traits@D@std@@V?$allocator@D@2@@std@@@2@$0A@@std@@@std@@IAE?AV?$_Tree_const_iterator@V?$_Tree_val@U?$_Tree_simple_types@V?$basic_string@DU?$char_traits@D@std@@V?$allocator@D@2@@std@@@std@@@std@@@1@_NPAU?$_Tree_node@V?$basic_string@DU?$char_traits@D@std@@V?$allocator@D@2@@std@@PAX@1@$$QAV?$basic_string@DU?$char_traits@D@std@@V?$allocator@D@2@@1@U_Not_a_node_tag@1@@Z 100a7160 f i Hooks.obj
 0001:000a62c0       ??$_Insert_nohint@V?$basic_string@DU?$char_traits@D@std@@V?$allocator@D@2@@std@@U_Not_a_node_tag@2@@?$_Tree@V?$_Tset_traits@V?$basic_string@DU?$char_traits@D@std@@V?$allocator@D@2@@std@@U?$less@V?$basic_string@DU?$char_traits@D@std@@V?$allocator@D@2@@std@@@2@V?$allocator@V?$basic_string@DU?$char_traits@D@std@@V?$allocator@D@2@@std@@@2@$0A@@std@@@std@@IAE?AU?$pair@V?$_Tree_const_iterator@V?$_Tree_val@U?$_Tree_simple_types@V?$basic_string@DU?$char_traits@D@std@@V?$allocator@D@2@@std@@@std@@@std@@@std@@_N@1@_N$$QAV?$basic_string@DU?$char_traits@D@std@@V?$allocator@D@2@@1@U_Not_a_node_tag@1@@Z 100a72c0 f i Hooks.obj
 0001:000a6480       ??$_Range_construct_or_tidy@PBV?$basic_string@DU?$char_traits@D@std@@V?$allocator@D@2@@std@@@?$vector@V?$basic_string@DU?$char_traits@D@std@@V?$allocator@D@2@@std@@V?$allocator@V?$basic_string@DU?$char_traits@D@std@@V?$allocator@D@2@@std@@@2@@std@@AAEXPBV?$basic_string@DU?$char_traits@D@std@@V?$allocator@D@2@@1@0Uforward_iterator_tag@1@@Z 100a7480 f i Hooks.obj
 0001:000a6570       ??$_Traits_compare@U?$char_traits@D@std@@@std@@YAHQBDI0I@Z 100a7570 f i Hooks.obj
 0001:000a6600       ??$_Traits_equal@U?$char_traits@D@std@@@std@@YA_NQBDI0I@Z 100a7600 f i Hooks.obj
 0001:000a6670       ??$_Traits_find@U?$char_traits@D@std@@@std@@YAIQBDII0I@Z 100a7670 f i Hooks.obj
 0001:000a6760       ??$_Try_emplace@ABV?$basic_string@DU?$char_traits@D@std@@V?$allocator@D@2@@std@@$$V@?$unordered_map@V?$basic_string@DU?$char_traits@D@std@@V?$allocator@D@2@@std@@UskinInfo@@U?$hash@V?$basic_string@DU?$char_traits@D@std@@V?$allocator@D@2@@std@@@2@U?$equal_to@V?$basic_string@DU?$char_traits@D@std@@V?$allocator@D@2@@std@@@2@V?$allocator@U?$pair@$$CBV?$basic_string@DU?$char_traits@D@std@@V?$allocator@D@2@@std@@UskinInfo@@@std@@@2@@std@@QAE?AU?$pair@V?$_List_iterator@V?$_List_val@U?$_List_simple_types@U?$pair@$$CBV?$basic_string@DU?$char_traits@D@std@@V?$allocator@D@2@@std@@UskinInfo@@@std@@@std@@@std@@@std@@_N@1@ABV?$basic_string@DU?$char_traits@D@std@@V?$allocator@D@2@@1@@Z 100a7760 f i Hooks.obj
 0001:000a68d0       ??$_Try_emplace@ABV?$basic_string@DU?$char_traits@D@std@@V?$allocator@D@2@@std@@$$V@?$unordered_map@V?$basic_string@DU?$char_traits@D@std@@V?$allocator@D@2@@std@@V12@U?$hash@V?$basic_string@DU?$char_traits@D@std@@V?$allocator@D@2@@std@@@2@U?$equal_to@V?$basic_string@DU?$char_traits@D@std@@V?$allocator@D@2@@std@@@2@V?$allocator@U?$pair@$$CBV?$basic_string@DU?$char_traits@D@std@@V?$allocator@D@2@@std@@V12@@std@@@2@@std@@QAE?AU?$pair@V?$_List_iterator@V?$_List_val@U?$_List_simple_types@U?$pair@$$CBV?$basic_string@DU?$char_traits@D@std@@V?$allocator@D@2@@std@@V12@@std@@@std@@@std@@@std@@_N@1@ABV?$basic_string@DU?$char_traits@D@std@@V?$allocator@D@2@@1@@Z 100a78d0 f i Hooks.obj
 0001:000a6a40       ??$_Try_emplace@ABV?$basic_string@DU?$char_traits@D@std@@V?$allocator@D@2@@std@@$$V@?$unordered_map@V?$basic_string@DU?$char_traits@D@std@@V?$allocator@D@2@@std@@V?$set@V?$basic_string@DU?$char_traits@D@std@@V?$allocator@D@2@@std@@U?$less@V?$basic_string@DU?$char_traits@D@std@@V?$allocator@D@2@@std@@@2@V?$allocator@V?$basic_string@DU?$char_traits@D@std@@V?$allocator@D@2@@std@@@2@@2@U?$hash@V?$basic_string@DU?$char_traits@D@std@@V?$allocator@D@2@@std@@@2@U?$equal_to@V?$basic_string@DU?$char_traits@D@std@@V?$allocator@D@2@@std@@@2@V?$allocator@U?$pair@$$CBV?$basic_string@DU?$char_traits@D@std@@V?$allocator@D@2@@std@@V?$set@V?$basic_string@DU?$char_traits@D@std@@V?$allocator@D@2@@std@@U?$less@V?$basic_string@DU?$char_traits@D@std@@V?$allocator@D@2@@std@@@2@V?$allocator@V?$basic_string@DU?$char_traits@D@std@@V?$allocator@D@2@@std@@@2@@2@@std@@@2@@std@@QAE?AU?$pair@V?$_List_iterator@V?$_List_val@U?$_List_simple_types@U?$pair@$$CBV?$basic_string@DU?$char_traits@D@std@@V?$allocator@D@2@@std@@V?$set@V?$basic_string@DU?$char_traits@D@std@@V?$allocator@D@2@@std@@U?$less@V?$basic_string@DU?$char_traits@D@std@@V?$allocator@D@2@@std@@@2@V?$allocator@V?$basic_string@DU?$char_traits@D@std@@V?$allocator@D@2@@std@@@2@@2@@std@@@std@@@std@@@std@@_N@1@ABV?$basic_string@DU?$char_traits@D@std@@V?$allocator@D@2@@1@@Z 100a7a40 f i Hooks.obj
 0001:000a6bb0       ??$_Uninitialized_move@PAV?$basic_string@DU?$char_traits@D@std@@V?$allocator@D@2@@std@@PAV12@V?$allocator@V?$basic_string@DU?$char_traits@D@std@@V?$allocator@D@2@@std@@@2@@std@@YAPAV?$basic_string@DU?$char_traits@D@std@@V?$allocator@D@2@@0@QAV10@0PAV10@AAV?$allocator@V?$basic_string@DU?$char_traits@D@std@@V?$allocator@D@2@@std@@@0@@Z 100a7bb0 f i Hooks.obj
 0001:000a6c20       ??$erase@V?$_List_iterator@V?$_List_val@U?$_List_simple_types@U?$pair@QBDPBD@std@@@std@@@std@@@std@@X@?$_Hash@V?$_Umap_traits@PBDPBDV?$_Uhash_compare@PBDU?$hash@PBD@std@@U?$equal_to@PBD@2@@std@@V?$allocator@U?$pair@QBDPBD@std@@@2@$0A@@std@@@std@@QAE?AV?$_List_iterator@V?$_List_val@U?$_List_simple_types@U?$pair@QBDPBD@std@@@std@@@std@@@1@V21@@Z 100a7c20 f i SkinChanger.obj
 0001:000a6c20       ??$erase@V?$_List_iterator@V?$_List_val@U?$_List_simple_types@U?$pair@$$CBHPAX@std@@@std@@@std@@@std@@X@?$_Hash@V?$_Umap_traits@HPAXV?$_Uhash_compare@HU?$hash@H@std@@U?$equal_to@H@2@@std@@V?$allocator@U?$pair@$$CBHPAX@std@@@2@$0A@@std@@@std@@QAE?AV?$_List_iterator@V?$_List_val@U?$_List_simple_types@U?$pair@$$CBHPAX@std@@@std@@@std@@@1@V21@@Z 100a7c20 f i Hooks.obj
 0001:000a6cd0       ??$erase@V?$_List_iterator@V?$_List_val@U?$_List_simple_types@U?$pair@$$CBV?$basic_string@DU?$char_traits@D@std@@V?$allocator@D@2@@std@@UskinInfo@@@std@@@std@@@std@@@std@@X@?$_Hash@V?$_Umap_traits@V?$basic_string@DU?$char_traits@D@std@@V?$allocator@D@2@@std@@UskinInfo@@V?$_Uhash_compare@V?$basic_string@DU?$char_traits@D@std@@V?$allocator@D@2@@std@@U?$hash@V?$basic_string@DU?$char_traits@D@std@@V?$allocator@D@2@@std@@@2@U?$equal_to@V?$basic_string@DU?$char_traits@D@std@@V?$allocator@D@2@@std@@@2@@2@V?$allocator@U?$pair@$$CBV?$basic_string@DU?$char_traits@D@std@@V?$allocator@D@2@@std@@UskinInfo@@@std@@@2@$0A@@std@@@std@@QAE?AV?$_List_iterator@V?$_List_val@U?$_List_simple_types@U?$pair@$$CBV?$basic_string@DU?$char_traits@D@std@@V?$allocator@D@2@@std@@UskinInfo@@@std@@@std@@@std@@@1@V21@@Z 100a7cd0 f i Hooks.obj
 0001:000a6d90       ??$erase@V?$_List_iterator@V?$_List_val@U?$_List_simple_types@U?$pair@$$CBV?$basic_string@DU?$char_traits@D@std@@V?$allocator@D@2@@std@@V12@@std@@@std@@@std@@@std@@X@?$_Hash@V?$_Umap_traits@V?$basic_string@DU?$char_traits@D@std@@V?$allocator@D@2@@std@@V12@V?$_Uhash_compare@V?$basic_string@DU?$char_traits@D@std@@V?$allocator@D@2@@std@@U?$hash@V?$basic_string@DU?$char_traits@D@std@@V?$allocator@D@2@@std@@@2@U?$equal_to@V?$basic_string@DU?$char_traits@D@std@@V?$allocator@D@2@@std@@@2@@2@V?$allocator@U?$pair@$$CBV?$basic_string@DU?$char_traits@D@std@@V?$allocator@D@2@@std@@V12@@std@@@2@$0A@@std@@@std@@QAE?AV?$_List_iterator@V?$_List_val@U?$_List_simple_types@U?$pair@$$CBV?$basic_string@DU?$char_traits@D@std@@V?$allocator@D@2@@std@@V12@@std@@@std@@@std@@@1@V21@@Z 100a7d90 f i Hooks.obj
 0001:000a6e50       ??$erase@V?$_List_iterator@V?$_List_val@U?$_List_simple_types@U?$pair@$$CBV?$basic_string@DU?$char_traits@D@std@@V?$allocator@D@2@@std@@V?$set@V?$basic_string@DU?$char_traits@D@std@@V?$allocator@D@2@@std@@U?$less@V?$basic_string@DU?$char_traits@D@std@@V?$allocator@D@2@@std@@@2@V?$allocator@V?$basic_string@DU?$char_traits@D@std@@V?$allocator@D@2@@std@@@2@@2@@std@@@std@@@std@@@std@@X@?$_Hash@V?$_Umap_traits@V?$basic_string@DU?$char_traits@D@std@@V?$allocator@D@2@@std@@V?$set@V?$basic_string@DU?$char_traits@D@std@@V?$allocator@D@2@@std@@U?$less@V?$basic_string@DU?$char_traits@D@std@@V?$allocator@D@2@@std@@@2@V?$allocator@V?$basic_string@DU?$char_traits@D@std@@V?$allocator@D@2@@std@@@2@@2@V?$_Uhash_compare@V?$basic_string@DU?$char_traits@D@std@@V?$allocator@D@2@@std@@U?$hash@V?$basic_string@DU?$char_traits@D@std@@V?$allocator@D@2@@std@@@2@U?$equal_to@V?$basic_string@DU?$char_traits@D@std@@V?$allocator@D@2@@std@@@2@@2@V?$allocator@U?$pair@$$CBV?$basic_string@DU?$char_traits@D@std@@V?$allocator@D@2@@std@@V?$set@V?$basic_string@DU?$char_traits@D@std@@V?$allocator@D@2@@std@@U?$less@V?$basic_string@DU?$char_traits@D@std@@V?$allocator@D@2@@std@@@2@V?$allocator@V?$basic_string@DU?$char_traits@D@std@@V?$allocator@D@2@@std@@@2@@2@@std@@@2@$0A@@std@@@std@@QAE?AV?$_List_iterator@V?$_List_val@U?$_List_simple_types@U?$pair@$$CBV?$basic_string@DU?$char_traits@D@std@@V?$allocator@D@2@@std@@V?$set@V?$basic_string@DU?$char_traits@D@std@@V?$allocator@D@2@@std@@U?$less@V?$basic_string@DU?$char_traits@D@std@@V?$allocator@D@2@@std@@@2@V?$allocator@V?$basic_string@DU?$char_traits@D@std@@V?$allocator@D@2@@std@@@2@@2@@std@@@std@@@std@@@1@V21@@Z 100a7e50 f i Hooks.obj
 0001:000a6f10       ??$transform@V?$_String_iterator@V?$_String_val@U?$_Simple_types@D@std@@@std@@@std@@V12@P6AGG@Z@std@@YA?AV?$_String_iterator@V?$_String_val@U?$_Simple_types@D@std@@@std@@@0@V10@0V10@P6AGG@Z@Z 100a7f10 f i Hooks.obj
 0001:000a6f60       ??0?$shared_ptr@VNode@valve_parser@@@std@@QAE@ABV01@@Z 100a7f60 f i Hooks.obj
 0001:000a6f90       ??0AppLog@@QAE@XZ          100a7f90 f i Hooks.obj
 0001:000a7010       ??0VMTHookManager@VMT@@QAE@XZ 100a8010 f i Hooks.obj
 0001:000a70c0       ??1?$_Uninitialized_backout_al@PAV?$basic_string@DU?$char_traits@D@std@@V?$allocator@D@2@@std@@V?$allocator@V?$basic_string@DU?$char_traits@D@std@@V?$allocator@D@2@@std@@@2@@std@@QAE@XZ 100a80c0 f i Hooks.obj
 0001:000a70e0       ??1?$deque@V?$shared_ptr@VNode@valve_parser@@@std@@V?$allocator@V?$shared_ptr@VNode@valve_parser@@@std@@@2@@std@@QAE@XZ 100a80e0 f i Hooks.obj
 0001:000a71d0       ??1?$list@U?$pair@$$CBHPAX@std@@V?$allocator@U?$pair@$$CBHPAX@std@@@2@@std@@QAE@XZ 100a81d0 f i Hooks.obj
 0001:000a71d0       ??1?$list@U?$pair@$$CBHPBD@std@@V?$allocator@U?$pair@$$CBHPBD@std@@@2@@std@@QAE@XZ 100a81d0 f i SkinChanger.obj
 0001:000a71d0       ??1?$list@U?$pair@QADPAD@std@@V?$allocator@U?$pair@QADPAD@std@@@2@@std@@QAE@XZ 100a81d0 f i SkinChanger.obj
 0001:000a71d0       ??1?$list@U?$pair@QBDPBD@std@@V?$allocator@U?$pair@QBDPBD@std@@@2@@std@@QAE@XZ 100a81d0 f i SkinChanger.obj
 0001:000a7220       ??1?$pair@$$CBV?$basic_string@DU?$char_traits@D@std@@V?$allocator@D@2@@std@@UskinInfo@@@std@@QAE@XZ 100a8220 f i Hooks.obj
 0001:000a72b0       ??1?$pair@$$CBV?$basic_string@DU?$char_traits@D@std@@V?$allocator@D@2@@std@@V12@@std@@QAE@XZ 100a82b0 f i Hooks.obj
 0001:000a7340       ??1?$pair@$$CBV?$basic_string@DU?$char_traits@D@std@@V?$allocator@D@2@@std@@V?$set@V?$basic_string@DU?$char_traits@D@std@@V?$allocator@D@2@@std@@U?$less@V?$basic_string@DU?$char_traits@D@std@@V?$allocator@D@2@@std@@@2@V?$allocator@V?$basic_string@DU?$char_traits@D@std@@V?$allocator@D@2@@std@@@2@@2@@std@@QAE@XZ 100a8340 f i Hooks.obj
 0001:000a7400       ??1?$vector@Vcbullet_tracer_info@@V?$allocator@Vcbullet_tracer_info@@@std@@@std@@QAE@XZ 100a8400 f i Hooks.obj
 0001:000a7470       ??1Document@valve_parser@@QAE@XZ 100a8470 f i Hooks.obj
 0001:000a74c0       ??1skinInfo@@QAE@XZ        100a84c0 f i Hooks.obj
 0001:000a7510       ??4?$basic_string@DU?$char_traits@D@std@@V?$allocator@D@2@@std@@QAEAAV01@$$QAV01@@Z 100a8510 f i Hooks.obj
 0001:000a7550       ??A?$unordered_map@HPAXU?$hash@H@std@@U?$equal_to@H@2@V?$allocator@U?$pair@$$CBHPAX@std@@@2@@std@@QAEAAPAXABH@Z 100a8550 f i Hooks.obj
 0001:000a7640       ??_E?$_Ref_count_obj@VNode@valve_parser@@@std@@UAEPAXI@Z 100a8640 f i Hooks.obj
 0001:000a7640       ??_G?$_Ref_count_obj@VNode@valve_parser@@@std@@UAEPAXI@Z 100a8640 f i Hooks.obj
 0001:000a7660       ??_GIGameEventListener2@@UAEPAXI@Z 100a8660 f i Hooks.obj
 0001:000a7660       ??_Gitem_purchase_listener@item_purchase@@UAEPAXI@Z 100a8660 f i Hooks.obj
 0001:000a7660       ??_EIGameEventListener2@@UAEPAXI@Z 100a8660 f i Hooks.obj
 0001:000a7660       ??_Eitem_purchase_listener@item_purchase@@UAEPAXI@Z 100a8660 f i Hooks.obj
 0001:000a7690       ?AddLog@AppLog@@QAAXPBDZZ  100a8690 f i Hooks.obj
 0001:000a7770       ?BreadthFirstSearch@Document@valve_parser@@QAE?AV?$shared_ptr@VNode@valve_parser@@@std@@PAD_N@Z 100a8770 f i Hooks.obj
 0001:000a7b60       ?BreadthFirstSearchMultiple@Document@valve_parser@@QAE?AV?$vector@V?$shared_ptr@VNode@valve_parser@@@std@@V?$allocator@V?$shared_ptr@VNode@valve_parser@@@std@@@2@@std@@PAD_N@Z 100a8b60 f i Hooks.obj
 0001:000a8210       ?FireGameEvent@item_purchase_listener@item_purchase@@UAEXPAVIGameEvent@@@Z 100a9210 f i Hooks.obj
 0001:000a8370       ?GetChecksum@CUserCmd@CInput@@QBEKXZ 100a9370 f i Hooks.obj
 0001:000a9780       ?GetEventDebugID@item_purchase_listener@item_purchase@@UAEHXZ 100aa780 f i Hooks.obj
 0001:000a9790       ?GetEyePosition@C_BaseEntity@@QAE?AVVector@@XZ 100aa790 f i Hooks.obj
 0001:000a97f0       ?Load@Document@valve_parser@@QAE_NPADW4ENCODING@2@@Z 100aa7f0 f i Hooks.obj
 0001:000a9ce0       ?NET_SetConVar@@YAXPBD0@Z  100aace0 f i Hooks.obj
 0001:000a9da0       ?SearchFiles@@YAHPBDP6AX0@ZH@Z 100aada0 f i Hooks.obj
 0001:000aa030       ?SetAngle2@C_BaseEntity@@QAEXVVector@@@Z 100ab030 f i Hooks.obj
 0001:000aa130       ?StrEqu@Util@valve_parser@@SA_NVStr@2@PAD@Z 100ab130 f i Hooks.obj
 0001:000aa260       ?StrEquI@Util@valve_parser@@SA_NVStr@2@PAD@Z 100ab260 f i Hooks.obj
 0001:000aa300       ?_Buyheadnode@?$_Tree_comp_alloc@V?$_Tset_traits@V?$basic_string@DU?$char_traits@D@std@@V?$allocator@D@2@@std@@U?$less@V?$basic_string@DU?$char_traits@D@std@@V?$allocator@D@2@@std@@@2@V?$allocator@V?$basic_string@DU?$char_traits@D@std@@V?$allocator@D@2@@std@@@2@$0A@@std@@@std@@QAEPAU?$_Tree_node@V?$basic_string@DU?$char_traits@D@std@@V?$allocator@D@2@@std@@PAX@2@XZ 100ab300 f i Hooks.obj
 0001:000aa320       ?_Buynode0@?$_List_alloc@U?$_List_base_types@U?$pair@QBDPBD@std@@V?$allocator@U?$pair@QBDPBD@std@@@2@@std@@@std@@QAEPAU?$_List_node@U?$pair@QBDPBD@std@@PAX@2@PAU32@0@Z 100ab320 f i SkinChanger.obj
 0001:000aa320       ?_Buynode0@?$_List_alloc@U?$_List_base_types@U?$pair@$$CBHPBD@std@@V?$allocator@U?$pair@$$CBHPBD@std@@@2@@std@@@std@@QAEPAU?$_List_node@U?$pair@$$CBHPBD@std@@PAX@2@PAU32@0@Z 100ab320 f i SkinChanger.obj
 0001:000aa320       ?_Buynode0@?$_List_alloc@U?$_List_base_types@U?$pair@QADPAD@std@@V?$allocator@U?$pair@QADPAD@std@@@2@@std@@@std@@QAEPAU?$_List_node@U?$pair@QADPAD@std@@PAX@2@PAU32@0@Z 100ab320 f i SkinChanger.obj
 0001:000aa320       ?_Buynode0@?$_List_alloc@U?$_List_base_types@U?$pair@$$CBHPAX@std@@V?$allocator@U?$pair@$$CBHPAX@std@@@2@@std@@@std@@QAEPAU?$_List_node@U?$pair@$$CBHPAX@std@@PAX@2@PAU32@0@Z 100ab320 f i Hooks.obj
 0001:000aa350       ?_Buynode0@?$_Tree_comp_alloc@V?$_Tset_traits@V?$basic_string@DU?$char_traits@D@std@@V?$allocator@D@2@@std@@U?$less@V?$basic_string@DU?$char_traits@D@std@@V?$allocator@D@2@@std@@@2@V?$allocator@V?$basic_string@DU?$char_traits@D@std@@V?$allocator@D@2@@std@@@2@$0A@@std@@@std@@QAEPAU?$_Tree_node@V?$basic_string@DU?$char_traits@D@std@@V?$allocator@D@2@@std@@PAX@2@XZ 100ab350 f i Hooks.obj
 0001:000aa370       ?_Growmap@?$deque@V?$shared_ptr@VNode@valve_parser@@@std@@V?$allocator@V?$shared_ptr@VNode@valve_parser@@@std@@@2@@std@@IAEXI@Z 100ab370 f i Hooks.obj
 0001:000aa510       ?_Make_iter@?$_Hash@V?$_Umap_traits@V?$basic_string@DU?$char_traits@D@std@@V?$allocator@D@2@@std@@UskinInfo@@V?$_Uhash_compare@V?$basic_string@DU?$char_traits@D@std@@V?$allocator@D@2@@std@@U?$hash@V?$basic_string@DU?$char_traits@D@std@@V?$allocator@D@2@@std@@@2@U?$equal_to@V?$basic_string@DU?$char_traits@D@std@@V?$allocator@D@2@@std@@@2@@2@V?$allocator@U?$pair@$$CBV?$basic_string@DU?$char_traits@D@std@@V?$allocator@D@2@@std@@UskinInfo@@@std@@@2@$0A@@std@@@std@@QBE?AV?$_List_iterator@V?$_List_val@U?$_List_simple_types@U?$pair@$$CBV?$basic_string@DU?$char_traits@D@std@@V?$allocator@D@2@@std@@UskinInfo@@@std@@@std@@@std@@@2@V?$_List_unchecked_const_iterator@V?$_List_val@U?$_List_simple_types@U?$pair@$$CBV?$basic_string@DU?$char_traits@D@std@@V?$allocator@D@2@@std@@UskinInfo@@@std@@@std@@@std@@U_Iterator_base0@2@@2@@Z 100ab510 f i Hooks.obj
 0001:000aa510       ?_Make_iter@?$_Hash@V?$_Umap_traits@PBDPBDV?$_Uhash_compare@PBDU?$hash@PBD@std@@U?$equal_to@PBD@2@@std@@V?$allocator@U?$pair@QBDPBD@std@@@2@$0A@@std@@@std@@QBE?AV?$_List_iterator@V?$_List_val@U?$_List_simple_types@U?$pair@QBDPBD@std@@@std@@@std@@@2@V?$_List_unchecked_const_iterator@V?$_List_val@U?$_List_simple_types@U?$pair@QBDPBD@std@@@std@@@std@@U_Iterator_base0@2@@2@@Z 100ab510 f i SkinChanger.obj
 0001:000aa510       ?_Make_iter@?$_Hash@V?$_Umap_traits@HPAXV?$_Uhash_compare@HU?$hash@H@std@@U?$equal_to@H@2@@std@@V?$allocator@U?$pair@$$CBHPAX@std@@@2@$0A@@std@@@std@@QBE?AV?$_List_iterator@V?$_List_val@U?$_List_simple_types@U?$pair@$$CBHPAX@std@@@std@@@std@@@2@V?$_List_unchecked_const_iterator@V?$_List_val@U?$_List_simple_types@U?$pair@$$CBHPAX@std@@@std@@@std@@U_Iterator_base0@2@@2@@Z 100ab510 f i Hooks.obj
 0001:000aa510       ?_Make_iter@?$_Hash@V?$_Umap_traits@V?$basic_string@DU?$char_traits@D@std@@V?$allocator@D@2@@std@@V?$set@V?$basic_string@DU?$char_traits@D@std@@V?$allocator@D@2@@std@@U?$less@V?$basic_string@DU?$char_traits@D@std@@V?$allocator@D@2@@std@@@2@V?$allocator@V?$basic_string@DU?$char_traits@D@std@@V?$allocator@D@2@@std@@@2@@2@V?$_Uhash_compare@V?$basic_string@DU?$char_traits@D@std@@V?$allocator@D@2@@std@@U?$hash@V?$basic_string@DU?$char_traits@D@std@@V?$allocator@D@2@@std@@@2@U?$equal_to@V?$basic_string@DU?$char_traits@D@std@@V?$allocator@D@2@@std@@@2@@2@V?$allocator@U?$pair@$$CBV?$basic_string@DU?$char_traits@D@std@@V?$allocator@D@2@@std@@V?$set@V?$basic_string@DU?$char_traits@D@std@@V?$allocator@D@2@@std@@U?$less@V?$basic_string@DU?$char_traits@D@std@@V?$allocator@D@2@@std@@@2@V?$allocator@V?$basic_string@DU?$char_traits@D@std@@V?$allocator@D@2@@std@@@2@@2@@std@@@2@$0A@@std@@@std@@QBE?AV?$_List_iterator@V?$_List_val@U?$_List_simple_types@U?$pair@$$CBV?$basic_string@DU?$char_traits@D@std@@V?$allocator@D@2@@std@@V?$set@V?$basic_string@DU?$char_traits@D@std@@V?$allocator@D@2@@std@@U?$less@V?$basic_string@DU?$char_traits@D@std@@V?$allocator@D@2@@std@@@2@V?$allocator@V?$basic_string@DU?$char_traits@D@std@@V?$allocator@D@2@@std@@@2@@2@@std@@@std@@@std@@@2@V?$_List_unchecked_const_iterator@V?$_List_val@U?$_List_simple_types@U?$pair@$$CBV?$basic_string@DU?$char_traits@D@std@@V?$allocator@D@2@@std@@V?$set@V?$basic_string@DU?$char_traits@D@std@@V?$allocator@D@2@@std@@U?$less@V?$basic_string@DU?$char_traits@D@std@@V?$allocator@D@2@@std@@@2@V?$allocator@V?$basic_string@DU?$char_traits@D@std@@V?$allocator@D@2@@std@@@2@@2@@std@@@std@@@std@@U_Iterator_base0@2@@2@@Z 100ab510 f i Hooks.obj
 0001:000aa510       ?_Make_iter@?$_Hash@V?$_Umap_traits@V?$basic_string@DU?$char_traits@D@std@@V?$allocator@D@2@@std@@V12@V?$_Uhash_compare@V?$basic_string@DU?$char_traits@D@std@@V?$allocator@D@2@@std@@U?$hash@V?$basic_string@DU?$char_traits@D@std@@V?$allocator@D@2@@std@@@2@U?$equal_to@V?$basic_string@DU?$char_traits@D@std@@V?$allocator@D@2@@std@@@2@@2@V?$allocator@U?$pair@$$CBV?$basic_string@DU?$char_traits@D@std@@V?$allocator@D@2@@std@@V12@@std@@@2@$0A@@std@@@std@@QBE?AV?$_List_iterator@V?$_List_val@U?$_List_simple_types@U?$pair@$$CBV?$basic_string@DU?$char_traits@D@std@@V?$allocator@D@2@@std@@V12@@std@@@std@@@std@@@2@V?$_List_unchecked_const_iterator@V?$_List_val@U?$_List_simple_types@U?$pair@$$CBV?$basic_string@DU?$char_traits@D@std@@V?$allocator@D@2@@std@@V12@@std@@@std@@@std@@U_Iterator_base0@2@@2@@Z 100ab510 f i Hooks.obj
 0001:000aa520       ?_Tidy@?$vector@V?$basic_string@DU?$char_traits@D@std@@V?$allocator@D@2@@std@@V?$allocator@V?$basic_string@DU?$char_traits@D@std@@V?$allocator@D@2@@std@@@2@@std@@AAEXXZ 100ab520 f i Hooks.obj
 0001:000aa5a0       ?_Xlen@?$deque@V?$shared_ptr@VNode@valve_parser@@@std@@V?$allocator@V?$shared_ptr@VNode@valve_parser@@@std@@@2@@std@@IBEXXZ 100ab5a0 f i Hooks.obj
 0001:000aa5a0       ?_Xlen@?$deque@UKit_t@@V?$allocator@UKit_t@@@std@@@std@@IBEXXZ 100ab5a0 f i SkinChanger.obj
 0001:000aa5b0       ?_Xran@?$deque@UKit_t@@V?$allocator@UKit_t@@@std@@@std@@IBEXXZ 100ab5b0 f i Hooks.obj
 0001:000aa5c0       ?allocate@?$allocator@V?$basic_string@DU?$char_traits@D@std@@V?$allocator@D@2@@std@@@std@@QAEPAV?$basic_string@DU?$char_traits@D@std@@V?$allocator@D@2@@2@I@Z 100ab5c0 f i Hooks.obj
 0001:000aa630       ?at@?$deque@UKit_t@@V?$allocator@UKit_t@@@std@@@std@@QAEAAUKit_t@@I@Z 100ab630 f i Hooks.obj
 0001:000aa690       ?at@?$map@W4ItemDefinitionIndexx@@UDefItem_t@@U?$less@W4ItemDefinitionIndexx@@@std@@V?$allocator@U?$pair@$$CBW4ItemDefinitionIndexx@@UDefItem_t@@@std@@@4@@std@@QBEABUDefItem_t@@ABW4ItemDefinitionIndexx@@@Z 100ab690 f i Hooks.obj
 0001:000aa6e0       ?beam@item_purchase@@QAEXPAVIGameEvent@@@Z 100ab6e0 f i Hooks.obj
 0001:000aae60       ?change_name@@YAXPBD@Z     100abe60 f i Hooks.obj
 0001:000aaea0       ?cnv_to_utf32@Document@valve_parser@@AAEXPADW4ENCODING@2@@Z 100abea0 f i Hooks.obj
 0001:000ab1d0       ?cnv_utf8@Document@valve_parser@@AAEXPAD@Z 100ac1d0 f i Hooks.obj
 0001:000ab320       ?deallocate@?$allocator@U?$_List_node@U?$pair@$$CBV?$basic_string@DU?$char_traits@D@std@@V?$allocator@D@2@@std@@UskinInfo@@@std@@PAX@std@@@std@@QAEXQAU?$_List_node@U?$pair@$$CBV?$basic_string@DU?$char_traits@D@std@@V?$allocator@D@2@@std@@UskinInfo@@@std@@PAX@2@I@Z 100ac320 f i Hooks.obj
 0001:000ab360       ?deallocate@?$allocator@U?$_List_node@U?$pair@$$CBV?$basic_string@DU?$char_traits@D@std@@V?$allocator@D@2@@std@@V12@@std@@PAX@std@@@std@@QAEXQAU?$_List_node@U?$pair@$$CBV?$basic_string@DU?$char_traits@D@std@@V?$allocator@D@2@@std@@V12@@std@@PAX@2@I@Z 100ac360 f i Hooks.obj
 0001:000ab3b0       ?deallocate@?$allocator@U?$_List_node@U?$pair@$$CBV?$basic_string@DU?$char_traits@D@std@@V?$allocator@D@2@@std@@V?$set@V?$basic_string@DU?$char_traits@D@std@@V?$allocator@D@2@@std@@U?$less@V?$basic_string@DU?$char_traits@D@std@@V?$allocator@D@2@@std@@@2@V?$allocator@V?$basic_string@DU?$char_traits@D@std@@V?$allocator@D@2@@std@@@2@@2@@std@@PAX@std@@@std@@QAEXQAU?$_List_node@U?$pair@$$CBV?$basic_string@DU?$char_traits@D@std@@V?$allocator@D@2@@std@@V?$set@V?$basic_string@DU?$char_traits@D@std@@V?$allocator@D@2@@std@@U?$less@V?$basic_string@DU?$char_traits@D@std@@V?$allocator@D@2@@std@@@2@V?$allocator@V?$basic_string@DU?$char_traits@D@std@@V?$allocator@D@2@@std@@@2@@2@@std@@PAX@2@I@Z 100ac3b0 f i Hooks.obj
 0001:000ab3f0       ?instance@?$singleton@VCCSGrenadeHint@@@@SAAAVCCSGrenadeHint@@XZ 100ac3f0 f i Hooks.obj
 0001:000ab4f0       ?instance@?$singleton@VCSkin@@@@SAAAVCSkin@@XZ 100ac4f0 f i Hooks.obj
 0001:000ab550       ?m_iShotsFired@C_BaseEntity@@QAEHXZ 100ac550 f i Hooks.obj
 0001:000ab5f0       ?now@steady_clock@chrono@std@@SA?AV?$time_point@Usteady_clock@chrono@std@@V?$duration@_JU?$ratio@$00$0DLJKMKAA@@std@@@23@@23@XZ 100ac5f0 f i Hooks.obj
 0001:000ab660       ?on_fire_DMG@item_purchase@@QAEXPAVIGameEvent@@_N@Z 100ac660 f i Hooks.obj
 0001:000abb20       ?on_fire_weapons@item_purchase@@QAEXPAVIGameEvent@@_N@Z 100acb20 f i Hooks.obj
 0001:000abf40       ?push_back@?$ImVector@D@@QAEXABD@Z 100acf40 f i Hooks.obj
 0001:000abfc0       ?push_back@?$deque@V?$shared_ptr@VNode@valve_parser@@@std@@V?$allocator@V?$shared_ptr@VNode@valve_parser@@@std@@@2@@std@@QAEXABV?$shared_ptr@VNode@valve_parser@@@2@@Z 100acfc0 f i Hooks.obj
 0001:000ac070       ?replace@?$basic_string@DU?$char_traits@D@std@@V?$allocator@D@2@@std@@QAEAAV12@IIQBDI@Z 100ad070 f i Hooks.obj
 0001:000ac2f0       ?reserve@?$basic_string@DU?$char_traits@D@std@@V?$allocator@D@2@@std@@QAEXI@Z 100ad2f0 f i Hooks.obj
 0001:000ac410       ?set@GlowObjectDefinition_t@CGlowObjectManager@@QAEXMMMM@Z 100ad410 f i Hooks.obj
 0001:000ac470       ?singleton@item_purchase@@SAPAV1@XZ 100ad470 f i Hooks.obj
 0001:000ac520       ?skipBOM@Document@valve_parser@@AAEPADPADW4ENCODING@2@@Z 100ad520 f i Hooks.obj
 0001:000ac5a0       ?substr@?$basic_string@DU?$char_traits@D@std@@V?$allocator@D@2@@std@@QBE?AV12@II@Z 100ad5a0 f i Hooks.obj
 0001:000ac5f0       ?toInt@Str@valve_parser@@QAEHXZ 100ad5f0 f i Hooks.obj
 0001:000ac6d0       ?vectorAnglesVec@@YAXVVector@@AAV1@@Z 100ad6d0 f i Hooks.obj
 0001:000ac900       ?InitialiseInterfaces@Interfaces@@SA_NXZ 100ad900 f   Interfaces.obj
 0001:000ace40       ?Client@Interfaces@@SAPAVIBaseClientDLL@@XZ 100ade40 f   Interfaces.obj
 0001:000acec0       ?Engine@Interfaces@@SAPAVIVEngineClient@@XZ 100adec0 f   Interfaces.obj
 0001:000acf10       ?Panel@Interfaces@@SAPAVIPanel@@XZ 100adf10 f   Interfaces.obj
 0001:000acf60       ?EntityList@Interfaces@@SAPAVC_BaseEntityList@@XZ 100adf60 f   Interfaces.obj
 0001:000acfb0       ?Surface@Interfaces@@SAPAVISurface@@XZ 100adfb0 f   Interfaces.obj
 0001:000ad000       ?DebugOverlay@Interfaces@@SAPAVIVDebugOverlay@@XZ 100ae000 f   Interfaces.obj
 0001:000ad050       ?ClientMode@Interfaces@@SAPAVIClientMode@@XZ 100ae050 f   Interfaces.obj
 0001:000ad070       ?Globals@Interfaces@@SAPAVCGlobalVarsBase@@XZ 100ae070 f   Interfaces.obj
 0001:000ad090       ?Prediction@Interfaces@@SAPAVIPrediction@@XZ 100ae090 f   Interfaces.obj
 0001:000ad0e0       ?MaterialSystem@Interfaces@@SAPAVCMaterialSystem@@XZ 100ae0e0 f   Interfaces.obj
 0001:000ad130       ?RenderView@Interfaces@@SAPAVCVRenderView@@XZ 100ae130 f   Interfaces.obj
 0001:000ad180       ?ModelRender@Interfaces@@SAPAVIVModelRender@@XZ 100ae180 f   Interfaces.obj
 0001:000ad1d0       ?ModelInfo@Interfaces@@SAPAVCModelInfo@@XZ 100ae1d0 f   Interfaces.obj
 0001:000ad220       ?EngineTrace@Interfaces@@SAPAVIEngineTrace@@XZ 100ae220 f   Interfaces.obj
 0001:000ad270       ?PhysProps@Interfaces@@SAPAVIPhysicsSurfaceProps@@XZ 100ae270 f   Interfaces.obj
 0001:000ad2c0       ?CVar@Interfaces@@SAPAVICVar@@XZ 100ae2c0 f   Interfaces.obj
 0001:000ad310       ?Dlight@Interfaces@@SAPAVIVEffects@@XZ 100ae310 f   Interfaces.obj
 0001:000ad360       ?Input@Interfaces@@SAPAVCInput@@XZ 100ae360 f   Interfaces.obj
 0001:000ad390       ?InputSystem@Interfaces@@SAPAVIInputSystem@@XZ 100ae390 f   Interfaces.obj
 0001:000ad3e0       ?EventManager@Interfaces@@SAPAVIGameEventManager2@@XZ 100ae3e0 f   Interfaces.obj
 0001:000ad430       ?GetLocalize@Interfaces@@SAPAVILocalize@@XZ 100ae430 f   Interfaces.obj
 0001:000ad480       ?CaptureFactory@@YAP6APAXPBDPAH@ZPAD@Z 100ae480 f i Interfaces.obj
 0001:000ad4c0       ?IsTickValid@BackTrack@@AAE_NH@Z 100ae4c0 f   LagComp.obj
 0001:000ad500       ?UpdateRecord@BackTrack@@AAEXH@Z 100ae500 f   LagComp.obj
 0001:000ad5b0       ?RunLBYBackTrack@BackTrack@@QAE_NHPAVCUserCmd@CInput@@AAVVector@@@Z 100ae5b0 f   LagComp.obj
 0001:000ad620       ?Update@BackTrack@@QAEXH@Z 100ae620 f   LagComp.obj
 0001:000ad6e0       ?legitBackTrack@BackTrack@@QAEXPAVCUserCmd@CInput@@PAVC_BaseEntity@@@Z 100ae6e0 f   LagComp.obj
 0001:000adb60       ?RageBackTrack@BackTrack@@QAEXPAVCUserCmd@CInput@@PAVC_BaseEntity@@@Z 100aeb60 f   LagComp.obj
 0001:000adfa0       ??0legitbot@@QAE@XZ        100aefa0 f   LegitBot.obj
 0001:000ae0a0       ?OnCreateMove@legitbot@@QAEXPAVCUserCmd@CInput@@PAVC_BaseEntity@@AA_N@Z 100af0a0 f   LegitBot.obj
 0001:000ae4a0       ?weapon_settings@legitbot@@AAEXPAVCBaseCombatWeapon@@@Z 100af4a0 f   LegitBot.obj
 0001:000aea00       ?hit_chance@legitbot@@AAE_NPAVC_BaseEntity@@PAVCUserCmd@CInput@@PAVCBaseCombatWeapon@@0@Z 100afa00 f   LegitBot.obj
 0001:000af1a0       ?LegitAA@legitbot@@AAEXPAVC_BaseEntity@@PAVCBaseCombatWeapon@@PAVCUserCmd@CInput@@AA_N@Z 100b01a0 f   LegitBot.obj
 0001:000af220       ?FakeLag@legitbot@@AAEXPAVC_BaseEntity@@PAVCUserCmd@CInput@@AA_N@Z 100b0220 f   LegitBot.obj
 0001:000af3d0       ?do_aimbot@legitbot@@AAEXPAVC_BaseEntity@@PAVCBaseCombatWeapon@@PAVCUserCmd@CInput@@@Z 100b03d0 f   LegitBot.obj
 0001:000af5e0       ?triggerbot@legitbot@@AAEXPAVCUserCmd@CInput@@PAVC_BaseEntity@@PAVCBaseCombatWeapon@@@Z 100b05e0 f   LegitBot.obj
 0001:000afb40       ?AutoPistol@legitbot@@AAEXPAVCUserCmd@CInput@@PAVC_BaseEntity@@PAVCBaseCombatWeapon@@@Z 100b0b40 f   LegitBot.obj
 0001:000afba0       ?FastZoom@legitbot@@AAEXPAVCUserCmd@CInput@@PAVC_BaseEntity@@PAVCBaseCombatWeapon@@@Z 100b0ba0 f   LegitBot.obj
 0001:000afc00       ?AimSniper@legitbot@@AAEXPAVC_BaseEntity@@@Z 100b0c00 f   LegitBot.obj
 0001:000afcb0       ?get_hitbox@legitbot@@AAE_NPAVC_BaseEntity@@0AAVVector@@@Z 100b0cb0 f   LegitBot.obj
 0001:000b0070       ?get_target@legitbot@@AAEHPAVC_BaseEntity@@PAVCBaseCombatWeapon@@PAVCUserCmd@CInput@@AAVVector@@@Z 100b1070 f   LegitBot.obj
 0001:000b0400       ?RCS@legitbot@@AAEXPAVC_BaseEntity@@PAVCUserCmd@CInput@@PAVCBaseCombatWeapon@@@Z 100b1400 f   LegitBot.obj
 0001:000b0700       ?get_fov@@YAMABVVector@@0@Z 100b1700 f   LegitBot.obj
 0001:000b07a0       ?get_hitbox_pos@@YA_NPAVC_BaseEntity@@HAAVVector@@@Z 100b17a0 f   LegitBot.obj
 0001:000b0920       ?CanAttack@@YA_NXZ         100b1920 f i LegitBot.obj
 0001:000b0a50       ?RandomFloat@@YAMMM@Z      100b1a50 f i LegitBot.obj
 0001:000b0ae0       ?compute_angle@@YA?AVVector@@ABV1@0@Z 100b1ae0 f i LegitBot.obj
 0001:000b0b80       ?SinCos@@YAXMPAM0@Z        100b1b80 f   MathFunctions.obj
 0001:000b0bc0       ?ClampAngles@@YAXAAVVector@@@Z 100b1bc0 f   MathFunctions.obj
 0001:000b0c30       ?VectorAngles1@@YAXABVVector@@AAV1@@Z 100b1c30 f   MathFunctions.obj
 0001:000b0e30       ?VectorAngles@@YAXABVVector@@AAV1@@Z 100b1e30 f   MathFunctions.obj
 0001:000b1070       ?AngleVectors@@YAXABVVector@@PAV1@@Z 100b2070 f   MathFunctions.obj
 0001:000b1110       ?AngleVector@@YA?AVVector@@V1@@Z 100b2110 f   MathFunctions.obj
 0001:000b11c0       ?Normalize@@YAXAAVVector@@0@Z 100b21c0 f   MathFunctions.obj
 0001:000b1240       ?AngleNormalize@@YAXAAVVector@@@Z 100b2240 f   MathFunctions.obj
 0001:000b12e0       ?CalcAngle@@YAXVVector@@0AAV1@@Z 100b22e0 f   MathFunctions.obj
 0001:000b13b0       ?AverageDifference@@YAXABVVector@@0AAM@Z 100b23b0 f   MathFunctions.obj
 0001:000b1410       ?CalcAngle@@YA?AVVector@@V1@0@Z 100b2410 f   MathFunctions.obj
 0001:000b14c0       ?AngleVectors@@YAXABVVector@@PAV1@11@Z 100b24c0 f   MathFunctions.obj
 0001:000b1650       ?SmoothAngles@@YAXVVector@@0AAV1@M@Z 100b2650 f   MathFunctions.obj
 0001:000b17c0       ?LineGoesThroughSmoke@@YA_NVVector@@0@Z 100b27c0 f   MathFunctions.obj
 0001:000b1840       ?DistancePointToLine@@YAMVVector@@00@Z 100b2840 f   MathFunctions.obj
 0001:000b18f0       ?sanitize_angles@@YA_NAAVVector@@@Z 100b28f0 f   MathFunctions.obj
 0001:000b1a70       ?delay@CTimer@@QAE_NK@Z    100b2a70 f   MathFunctions.obj
 0001:000b1ad0       ?reset@CTimer@@QAEXXZ      100b2ad0 f   MathFunctions.obj
 0001:000b1af0       ?stop@CTimer@@QAEXXZ       100b2af0 f   MathFunctions.obj
 0001:000b1b00       ?normalize_angles@@YAXAAVVector@@@Z 100b2b00 f   MathFunctions.obj
 0001:000b1bb0       ?GetNetvars@Offsetz@@QAEXXZ 100b2bb0 f   memesets.obj
 0001:000b30e0       ?OnCreateMove@misc@@QAEXPAVCUserCmd@CInput@@PAVC_BaseEntity@@AA_N@Z 100b40e0 f   Misc.obj
 0001:000b5260       ?StandAloneRCS@misc@@QAEXPAVC_BaseEntity@@PAVCUserCmd@CInput@@@Z 100b6260 f   Misc.obj
 0001:000b5450       ?AutoStrafe@misc@@SAXPAVCUserCmd@CInput@@PAVC_BaseEntity@@VVector@@@Z 100b6450 f   Misc.obj
 0001:000b57e0       ?EdgeJump@misc@@QAEXPAVCUserCmd@CInput@@@Z 100b67e0 f   Misc.obj
 0001:000b5ac0       ?blockbot@misc@@QAEXPAVCUserCmd@CInput@@@Z 100b6ac0 f   Misc.obj
 0001:000b5ce0       ?FakeWalk@misc@@SAXPAVCUserCmd@CInput@@@Z 100b6ce0 f   Misc.obj
 0001:000b5dc0       ?moonwalk@misc@@SAXPAVCUserCmd@CInput@@@Z 100b6dc0 f   Misc.obj
 0001:000b5e70       ?SlowMove@misc@@SAXPAVCUserCmd@CInput@@AA_NPAVC_BaseEntity@@@Z 100b6e70 f   Misc.obj
 0001:000b5f90       ?Knifebot@misc@@SAXPAVCUserCmd@CInput@@@Z 100b6f90 f   Misc.obj
 0001:000b61c0       ?find@?$basic_string@DU?$char_traits@D@std@@V?$allocator@D@2@@std@@QBEIQBDI@Z 100b71c0 f i Misc.obj
 0001:000b62d0       ?insert@?$basic_string@DU?$char_traits@D@std@@V?$allocator@D@2@@std@@QAEAAV12@IID@Z 100b72d0 f i Misc.obj
 0001:000b6470       ?movementfix@@YAXVVector@@PAVCUserCmd@CInput@@@Z 100b7470 f i Misc.obj
 0001:000b65e0       ?setclantag@@YAXPBD@Z      100b75e0 f i Misc.obj
 0001:000b67e0       ?strafe_line_opt@AutoStrafer@@QAEXAANAAH1QAN2NNN22@Z 100b77e0 f i Misc.obj
 0001:000b6a30       ?strafe_side@AutoStrafer@@AAEXAANAAH1QANNNNH@Z 100b7a30 f i Misc.obj
 0001:000b6d80       ?Initialize@CNetVarManager@@QAEXXZ 100b7d80 f   NetVarManager.obj
 0001:000b6dd0       ?GetOffset@CNetVarManager@@QAEHPBD0@Z 100b7dd0 f   NetVarManager.obj
 0001:000b6df0       ?HookProp@CNetVarManager@@QAE_NPBD0P6AXPBVCRecvProxyData@@PAX2@Z@Z 100b7df0 f   NetVarManager.obj
 0001:000b6e30       ?hookProp@CNetVarManager@@QAEKPBD0PAX1@Z 100b7e30 f   NetVarManager.obj
 0001:000b6e70       ?Get_Prop@CNetVarManager@@AAEHPBD0PAPAURecvProp@@@Z 100b7e70 f   NetVarManager.obj
 0001:000b6ed0       ?Get_Prop@CNetVarManager@@AAEHPAURecvTable@@PBDPAPAURecvProp@@@Z 100b7ed0 f   NetVarManager.obj
 0001:000b6f70       ?GetTable@CNetVarManager@@AAEPAURecvTable@@PBD@Z 100b7f70 f   NetVarManager.obj
 0001:000b6fd0       ??0ragebot@@QAE@XZ         100b7fd0 f   RageBot.obj
 0001:000b6ff0       ?OnCreateMove@ragebot@@QAEXPAVCUserCmd@CInput@@AA_N@Z 100b7ff0 f   RageBot.obj
 0001:000b7340       ?hit_chance@ragebot@@QAE_NPAVC_BaseEntity@@PAVCUserCmd@CInput@@PAVCBaseCombatWeapon@@0@Z 100b8340 f   RageBot.obj
 0001:000b7c30       ?BestPoint@ragebot@@QAE?AVVector@@PAVC_BaseEntity@@AAV2@@Z 100b8c30 f   RageBot.obj
 0001:000b7d60       ?FovToPlayer@ragebot@@AAEMVVector@@0PAVC_BaseEntity@@H@Z 100b8d60 f   RageBot.obj
 0001:000b7e60       ?GetTargetCrosshair@ragebot@@AAEHXZ 100b8e60 f   RageBot.obj
 0001:000b7fc0       ?GetTargetDistance@ragebot@@AAEHXZ 100b8fc0 f   RageBot.obj
 0001:000b8170       ?GetTargetHealth@ragebot@@AAEHXZ 100b9170 f   RageBot.obj
 0001:000b82d0       ?GetTargetThreat@ragebot@@AAEHPAVCUserCmd@CInput@@@Z 100b92d0 f   RageBot.obj
 0001:000b8730       ?AutoZeus@ragebot@@AAEXPAVC_BaseEntity@@PAVCUserCmd@CInput@@@Z 100b9730 f   RageBot.obj
 0001:000b8880       ?TargetMeetsRequirements@ragebot@@AAE_NPAVC_BaseEntity@@@Z 100b9880 f   RageBot.obj
 0001:000b89b0       ?HitScan@ragebot@@AAEHPAVC_BaseEntity@@@Z 100b99b0 f   RageBot.obj
 0001:000b9370       ?DoNoRecoil@ragebot@@AAEXPAVCUserCmd@CInput@@@Z 100ba370 f   RageBot.obj
 0001:000b9450       ?AimAtPoint@ragebot@@AAE_NPAVC_BaseEntity@@VVector@@PAVCUserCmd@CInput@@@Z 100ba450 f   RageBot.obj
 0001:000b9540       ?DoAimbot@ragebot@@AAEXPAVCUserCmd@CInput@@AA_N@Z 100ba540 f   RageBot.obj
 0001:000ba160       ?DoAntiAim@ragebot@@AAEXPAVCUserCmd@CInput@@AA_N@Z 100bb160 f   RageBot.obj
 0001:000bb520       ?AIFakeLag@ragebot@@AAEXPAVC_BaseEntity@@AA_N@Z 100bc520 f   RageBot.obj
 0001:000bb850       ?aimAtPlayer@ragebot@@AAEXPAVCUserCmd@CInput@@@Z 100bc850 f   RageBot.obj
 0001:000bb9e0       ?DoNoSpread@ragebot@@AAEXPAVCUserCmd@CInput@@PAVCBaseCombatWeapon@@PAVC_BaseEntity@@2@Z 100bc9e0 f   RageBot.obj
 0001:000bbeb0       ?FAKELAG@ragebot@@AAEXAA_N@Z 100bceb0 f   RageBot.obj
 0001:000bbfc0       ?GetFov@@YAMABVVector@@0@Z 100bcfc0 f   RageBot.obj
 0001:000bc060       ?VectorDistance@@YAMVVector@@0@Z 100bd060 f   RageBot.obj
 0001:000bc0b0       ?FovToPoint@@YAMVVector@@00@Z 100bd0b0 f   RageBot.obj
 0001:000bc190       ?VectorAngles2@@YAXABVVector@@AAV1@@Z 100bd190 f   RageBot.obj
 0001:000bc3f0       ?EdgeAntiAim@@YA_NPAVC_BaseEntity@@PAVCUserCmd@CInput@@MM@Z 100bd3f0 f   RageBot.obj
 0001:000bcc60       ?FASTSQRT@@YINN@Z          100bdc60 f i RageBot.obj
 0001:000bcc70       ?push_back@?$vector@HV?$allocator@H@std@@@std@@QAEX$$QAH@Z 100bdc70 f i RageBot.obj
 0001:000bcca0       ?SetupFonts@Render@@QAEXXZ 100bdca0 f   Render.obj
 0001:000bcea0       ?Clear@Render@@QAEXHHHHVColor@@@Z 100bdea0 f   Render.obj
 0001:000bcee0       ?DrawOutlinedRect@Render@@QAEXHHHHVColor@@@Z 100bdee0 f   Render.obj
 0001:000bcf20       ?Outline@Render@@QAEXHHHHVColor@@@Z 100bdf20 f   Render.obj
 0001:000bcf60       ?DrawString2@Render@@QAAXKHHVColor@@KPBDZZ 100bdf60 f   Render.obj
 0001:000bd0d0       ?DrawRect@Render@@QAEXHHHHVColor@@@Z 100be0d0 f   Render.obj
 0001:000bd110       ?OutlineRainbow@Render@@QAEXHHHHMAAM@Z 100be110 f   Render.obj
 0001:000bd2d0       ?Line@Render@@QAEXHHHHVColor@@@Z 100be2d0 f   Render.obj
 0001:000bd310       ?DrawTexturedPoly@Render@@QAEXHPAUVertex_t@@VColor@@@Z 100be310 f   Render.obj
 0001:000bd420       ?DrawCircle@Render@@QAEXMMMMVColor@@@Z 100be420 f   Render.obj
 0001:000bd530       ?PolyLine@Render@@QAEXPAH0HVColor@@@Z 100be530 f   Render.obj
 0001:000bd560       ?Polygon@Render@@QAEXHPAUVertex_t@@VColor@@@Z 100be560 f   Render.obj
 0001:000bd670       ?PolygonOutline@Render@@QAEXHPAUVertex_t@@VColor@@1@Z 100be670 f   Render.obj
 0001:000bd7e0       ?PolyLine@Render@@QAEXHPAUVertex_t@@VColor@@@Z 100be7e0 f   Render.obj
 0001:000bd840       ?OutlineCircle@Render@@QAEXHHHHVColor@@@Z 100be840 f   Render.obj
 0001:000bd8d0       ?Pixel@Render@@QAEXHHVColor@@@Z 100be8d0 f   Render.obj
 0001:000bd910       ?Draw3DCube@Render@@QAEXMVVector@@0VColor@@@Z 100be910 f   Render.obj
 0001:000be290       ?DrawFilledCircle2@Render@@QAEXHHHHVColor@@@Z 100bf290 f   Render.obj
 0001:000be530       ?TexturedPolygon@Render@@QAEXHV?$vector@UVertex_t@@V?$allocator@UVertex_t@@@std@@@std@@VColor@@@Z 100bf530 f   Render.obj
 0001:000be680       ?DrawFilledCircle@Render@@QAEXVVector2D@@VColor@@MM@Z 100bf680 f   Render.obj
 0001:000be8a0       ?DrawBox@Render@@QAEXHHHHVColor@@@Z 100bf8a0 f   Render.obj
 0001:000be970       ?GradientV@Render@@QAEXHHHHVColor@@0@Z 100bf970 f   Render.obj
 0001:000bea40       ?GradientH@Render@@QAEXHHHHVColor@@0@Z 100bfa40 f   Render.obj
 0001:000beb00       ?Text@Render@@QAAXHHVColor@@KPBDZZ 100bfb00 f   Render.obj
 0001:000bebd0       ?Textf@Render@@QAAXHHVColor@@KPBDZZ 100bfbd0 f   Render.obj
 0001:000bec80       ?Text@Render@@QAEXHHVColor@@KPB_W@Z 100bfc80 f   Render.obj
 0001:000becf0       ?Text@Render@@QAEXHHKPB_W@Z 100bfcf0 f   Render.obj
 0001:000bed50       ?GetTextSize@Render@@QAE?AUtagRECT@@KPBD@Z 100bfd50 f   Render.obj
 0001:000bee50       ?WorldToScreen@Render@@QAE_NABVVector@@AAV2@@Z 100bfe50 f   Render.obj
 0001:000befd0       ?ScanColorFromCvar@Render@@QAE_NPBDPAM@Z 100bffd0 f   Render.obj
 0001:000bf060       ?GetViewport@Render@@QAE?AUtagRECT@@XZ 100c0060 f   Render.obj
 0001:000bf0b0       ??$_Emplace_reallocate@UVertex_t@@@?$vector@UVertex_t@@V?$allocator@UVertex_t@@@std@@@std@@QAEPAUVertex_t@@QAU2@$$QAU2@@Z 100c00b0 f i Render.obj
 0001:000bf200       ??0?$vector@UVertex_t@@V?$allocator@UVertex_t@@@std@@@std@@QAE@ABV01@@Z 100c0200 f i Render.obj
 0001:000bf290       ??1?$vector@UVertex_t@@V?$allocator@UVertex_t@@@std@@@std@@QAE@XZ 100c0290 f i Render.obj
 0001:000bf2f0       ?_Umove@?$vector@UVertex_t@@V?$allocator@UVertex_t@@@std@@@std@@AAEPAUVertex_t@@PAU3@00@Z 100c02f0 f i Render.obj
 0001:000bf340       ?allocate@?$allocator@UVertex_t@@@std@@QAEPAUVertex_t@@I@Z 100c0340 f i Render.obj
 0001:000bf3b0       ?FSN@ResolverSetup@@QAEXW4ClientFrameStage_t@@@Z 100c03b0 f   Resolver2.obj
 0001:000bf660       ?CM@ResolverSetup@@QAEXPAVC_BaseEntity@@@Z 100c0660 f   Resolver2.obj
 0001:000bf7e0       ?OverrideResolver@ResolverSetup@@QAEXPAVC_BaseEntity@@@Z 100c07e0 f   Resolver2.obj
 0001:000bf980       ?Resolve@ResolverSetup@@QAEXPAVC_BaseEntity@@@Z 100c0980 f   Resolver2.obj
 0001:000c0450       ?StoreThings@ResolverSetup@@QAEXPAVC_BaseEntity@@@Z 100c1450 f   Resolver2.obj
 0001:000c0530       ?StoreFGE@ResolverSetup@@QAEXPAVC_BaseEntity@@@Z 100c1530 f   Resolver2.obj
 0001:000c0560       ?LowerBodyYawFix@@YAXPAVC_BaseEntity@@@Z 100c1560 f   Resolver2.obj
 0001:000c0620       ??$_Buynode@ABUpiecewise_construct_t@std@@V?$tuple@$$QAH@2@V?$tuple@$$V@2@@?$_Tree_comp_alloc@V?$_Tmap_traits@HMU?$less@H@std@@V?$allocator@U?$pair@$$CBHM@std@@@2@$0A@@std@@@std@@QAEPAU?$_Tree_node@U?$pair@$$CBHM@std@@PAX@1@ABUpiecewise_construct_t@1@$$QAV?$tuple@$$QAH@1@$$QAV?$tuple@$$V@1@@Z 100c1620 f i Resolver2.obj
 0001:000c0650       ??$_Buynode@ABUpiecewise_construct_t@std@@V?$tuple@$$QAH@2@V?$tuple@$$V@2@@?$_Tree_comp_alloc@V?$_Tmap_traits@HVVector@@U?$less@H@std@@V?$allocator@U?$pair@$$CBHVVector@@@std@@@3@$0A@@std@@@std@@QAEPAU?$_Tree_node@U?$pair@$$CBHVVector@@@std@@PAX@1@ABUpiecewise_construct_t@1@$$QAV?$tuple@$$QAH@1@$$QAV?$tuple@$$V@1@@Z 100c1650 f i Resolver2.obj
 0001:000c06e0       ??$_Insert_at@AAU?$pair@$$CBHM@std@@PAU?$_Tree_node@U?$pair@$$CBHM@std@@PAX@2@@?$_Tree@V?$_Tmap_traits@HMU?$less@H@std@@V?$allocator@U?$pair@$$CBHM@std@@@2@$0A@@std@@@std@@IAE?AV?$_Tree_iterator@V?$_Tree_val@U?$_Tree_simple_types@U?$pair@$$CBHM@std@@@std@@@std@@@1@_NPAU?$_Tree_node@U?$pair@$$CBHM@std@@PAX@1@AAU?$pair@$$CBHM@1@1@Z 100c16e0 f i Resolver2.obj
 0001:000c0840       ??$_Insert_at@AAU?$pair@$$CBHVVector@@@std@@PAU?$_Tree_node@U?$pair@$$CBHVVector@@@std@@PAX@2@@?$_Tree@V?$_Tmap_traits@HVVector@@U?$less@H@std@@V?$allocator@U?$pair@$$CBHVVector@@@std@@@3@$0A@@std@@@std@@IAE?AV?$_Tree_iterator@V?$_Tree_val@U?$_Tree_simple_types@U?$pair@$$CBHVVector@@@std@@@std@@@std@@@1@_NPAU?$_Tree_node@U?$pair@$$CBHVVector@@@std@@PAX@1@AAU?$pair@$$CBHVVector@@@1@1@Z 100c1840 f i Resolver2.obj
 0001:000c09a0       ??$_Insert_hint@AAU?$pair@$$CBHM@std@@PAU?$_Tree_node@U?$pair@$$CBHM@std@@PAX@2@@?$_Tree@V?$_Tmap_traits@HMU?$less@H@std@@V?$allocator@U?$pair@$$CBHM@std@@@2@$0A@@std@@@std@@IAE?AV?$_Tree_iterator@V?$_Tree_val@U?$_Tree_simple_types@U?$pair@$$CBHM@std@@@std@@@std@@@1@V?$_Tree_const_iterator@V?$_Tree_val@U?$_Tree_simple_types@U?$pair@$$CBHM@std@@@std@@@std@@@1@AAU?$pair@$$CBHM@1@PAU?$_Tree_node@U?$pair@$$CBHM@std@@PAX@1@@Z 100c19a0 f i Resolver2.obj
 0001:000c0bc0       ??$_Insert_hint@AAU?$pair@$$CBHVVector@@@std@@PAU?$_Tree_node@U?$pair@$$CBHVVector@@@std@@PAX@2@@?$_Tree@V?$_Tmap_traits@HVVector@@U?$less@H@std@@V?$allocator@U?$pair@$$CBHVVector@@@std@@@3@$0A@@std@@@std@@IAE?AV?$_Tree_iterator@V?$_Tree_val@U?$_Tree_simple_types@U?$pair@$$CBHVVector@@@std@@@std@@@std@@@1@V?$_Tree_const_iterator@V?$_Tree_val@U?$_Tree_simple_types@U?$pair@$$CBHVVector@@@std@@@std@@@std@@@1@AAU?$pair@$$CBHVVector@@@1@PAU?$_Tree_node@U?$pair@$$CBHVVector@@@std@@PAX@1@@Z 100c1bc0 f i Resolver2.obj
 0001:000c0de0       ??$_Insert_nohint@AAU?$pair@$$CBHM@std@@PAU?$_Tree_node@U?$pair@$$CBHM@std@@PAX@2@@?$_Tree@V?$_Tmap_traits@HMU?$less@H@std@@V?$allocator@U?$pair@$$CBHM@std@@@2@$0A@@std@@@std@@IAE?AU?$pair@V?$_Tree_iterator@V?$_Tree_val@U?$_Tree_simple_types@U?$pair@$$CBHM@std@@@std@@@std@@@std@@_N@1@_NAAU?$pair@$$CBHM@1@PAU?$_Tree_node@U?$pair@$$CBHM@std@@PAX@1@@Z 100c1de0 f i Resolver2.obj
 0001:000c0f00       ??$_Insert_nohint@AAU?$pair@$$CBHVVector@@@std@@PAU?$_Tree_node@U?$pair@$$CBHVVector@@@std@@PAX@2@@?$_Tree@V?$_Tmap_traits@HVVector@@U?$less@H@std@@V?$allocator@U?$pair@$$CBHVVector@@@std@@@3@$0A@@std@@@std@@IAE?AU?$pair@V?$_Tree_iterator@V?$_Tree_val@U?$_Tree_simple_types@U?$pair@$$CBHVVector@@@std@@@std@@@std@@@std@@_N@1@_NAAU?$pair@$$CBHVVector@@@1@PAU?$_Tree_node@U?$pair@$$CBHVVector@@@std@@PAX@1@@Z 100c1f00 f i Resolver2.obj
 0001:000c1020       ??A?$map@HMU?$less@H@std@@V?$allocator@U?$pair@$$CBHM@std@@@2@@std@@QAEAAM$$QAH@Z 100c2020 f i Resolver2.obj
 0001:000c10a0       ??A?$map@HVVector@@U?$less@H@std@@V?$allocator@U?$pair@$$CBHVVector@@@std@@@3@@std@@QAEAAVVector@@$$QAH@Z 100c20a0 f i Resolver2.obj
 0001:000c1120       ?_Buynode0@?$_Tree_comp_alloc@V?$_Tmap_traits@HMU?$less@H@std@@V?$allocator@U?$pair@$$CBHM@std@@@2@$0A@@std@@@std@@QAEPAU?$_Tree_node@U?$pair@$$CBHM@std@@PAX@2@XZ 100c2120 f i Resolver2.obj
 0001:000c1140       ?_Buynode0@?$_Tree_comp_alloc@V?$_Tmap_traits@HVVector@@U?$less@H@std@@V?$allocator@U?$pair@$$CBHVVector@@@std@@@3@$0A@@std@@@std@@QAEPAU?$_Tree_node@U?$pair@$$CBHVVector@@@std@@PAX@2@XZ 100c2140 f i Resolver2.obj
 0001:000c1160       ?_Destroy_if_node@?$_Tree@V?$_Tmap_traits@HMU?$less@H@std@@V?$allocator@U?$pair@$$CBHM@std@@@2@$0A@@std@@@std@@IAEXPAU?$_Tree_node@U?$pair@$$CBHM@std@@PAX@2@@Z 100c2160 f i Resolver2.obj
 0001:000c1180       ?_Freenode0@?$_Tree_comp_alloc@V?$_Tmap_traits@HVVector@@U?$less@H@std@@V?$allocator@U?$pair@$$CBHVVector@@@std@@@3@$0A@@std@@@std@@QAEXPAU?$_Tree_node@U?$pair@$$CBHVVector@@@std@@PAX@2@@Z 100c2180 f i Resolver2.obj
 0001:000c1180       ?_Destroy_if_node@?$_Tree@V?$_Tmap_traits@HVVector@@U?$less@H@std@@V?$allocator@U?$pair@$$CBHVVector@@@std@@@3@$0A@@std@@@std@@IAEXPAU?$_Tree_node@U?$pair@$$CBHVVector@@@std@@PAX@2@@Z 100c2180 f i Resolver2.obj
 0001:000c11a0       ?SkinChanger@@YAXXZ        100c21a0 f   SkinChanger.obj
 0001:000c1580       ?InitializeKits@@YAXXZ     100c2580 f   SkinChanger.obj
 0001:000c1fb0       ?SetKillIconCfg@CSkin@@QAEXXZ 100c2fb0 f   SkinChanger.obj
 0001:000c20a0       ?ApplyCustomKillIcon@CSkin@@QAE_NPAVIGameEvent@@@Z 100c30a0 f   SkinChanger.obj
 0001:000c2190       ?isWeaponKnife@@YA_NH@Z    100c3190 f   SkinChanger.obj
 0001:000c2200       ?Hooked_GetStickerAttributeBySlotIndexFloat@@YIMPAX0HW4StickerAttributeType_t@@M@Z 100c3200 f   SkinChanger.obj
 0001:000c2270       ?Hooked_GetStickerAttributeBySlotIndexInt@@YIIPAX0HW4StickerAttributeType_t@@I@Z 100c3270 f   SkinChanger.obj
 0001:000c22e0       ?IsCodePtr@@YA_NPAX@Z      100c32e0 f   SkinChanger.obj
 0001:000c2320       ?ApplyStickers@@YAXPAVCBaseCombatWeapon@@@Z 100c3320 f   SkinChanger.obj
 0001:000c23d0       ?GetKnifeDefinitionIndex@@YAHH@Z 100c33d0 f   SkinChanger.obj
 0001:000c2460       ?GetCurrentKnifeModel@@YAHH@Z 100c3460 f   SkinChanger.obj
 0001:000c2580       ??$_Insertion_sort_unchecked@V?$_Deque_unchecked_iterator@V?$_Deque_val@U?$_Deque_simple_types@UKit_t@@@std@@@std@@@std@@U?$less@X@2@@std@@YA?AV?$_Deque_unchecked_iterator@V?$_Deque_val@U?$_Deque_simple_types@UKit_t@@@std@@@std@@@0@V10@V10@U?$less@X@0@@Z 100c3580 f i SkinChanger.obj
 0001:000c2930       ??$_Med3_unchecked@V?$_Deque_unchecked_iterator@V?$_Deque_val@U?$_Deque_simple_types@UKit_t@@@std@@@std@@@std@@U?$less@X@2@@std@@YAXV?$_Deque_unchecked_iterator@V?$_Deque_val@U?$_Deque_simple_types@UKit_t@@@std@@@std@@@0@00U?$less@X@0@@Z 100c3930 f i SkinChanger.obj
 0001:000c2a60       ??$_Partition_by_median_guess_unchecked@V?$_Deque_unchecked_iterator@V?$_Deque_val@U?$_Deque_simple_types@UKit_t@@@std@@@std@@@std@@U?$less@X@2@@std@@YA?AU?$pair@V?$_Deque_unchecked_iterator@V?$_Deque_val@U?$_Deque_simple_types@UKit_t@@@std@@@std@@@std@@V12@@0@V?$_Deque_unchecked_iterator@V?$_Deque_val@U?$_Deque_simple_types@UKit_t@@@std@@@std@@@0@0U?$less@X@0@@Z 100c3a60 f i SkinChanger.obj
 0001:000c3250       ??$_Pop_heap_hole_by_index@V?$_Deque_unchecked_iterator@V?$_Deque_val@U?$_Deque_simple_types@UKit_t@@@std@@@std@@@std@@UKit_t@@U?$less@X@2@@std@@YAXV?$_Deque_unchecked_iterator@V?$_Deque_val@U?$_Deque_simple_types@UKit_t@@@std@@@std@@@0@HH$$QAUKit_t@@U?$less@X@0@@Z 100c4250 f i SkinChanger.obj
 0001:000c3410       ??$_Push_heap_by_index@V?$_Deque_unchecked_iterator@V?$_Deque_val@U?$_Deque_simple_types@UKit_t@@@std@@@std@@@std@@UKit_t@@U?$less@X@2@@std@@YAXV?$_Deque_unchecked_iterator@V?$_Deque_val@U?$_Deque_simple_types@UKit_t@@@std@@@std@@@0@HH$$QAUKit_t@@U?$less@X@0@@Z 100c4410 f i SkinChanger.obj
 0001:000c35d0       ??$_Reverse_unchecked1@V?$_Deque_unchecked_iterator@V?$_Deque_val@U?$_Deque_simple_types@UKit_t@@@std@@@std@@@std@@@std@@YAXV?$_Deque_unchecked_iterator@V?$_Deque_val@U?$_Deque_simple_types@UKit_t@@@std@@@std@@@0@0U?$integral_constant@I$0A@@0@@Z 100c45d0 f i SkinChanger.obj
 0001:000c3780       ??$_Sort_heap_unchecked@V?$_Deque_unchecked_iterator@V?$_Deque_val@U?$_Deque_simple_types@UKit_t@@@std@@@std@@@std@@U?$less@X@2@@std@@YAXV?$_Deque_unchecked_iterator@V?$_Deque_val@U?$_Deque_simple_types@UKit_t@@@std@@@std@@@0@0U?$less@X@0@@Z 100c4780 f i SkinChanger.obj
 0001:000c3900       ??$_Sort_unchecked@V?$_Deque_unchecked_iterator@V?$_Deque_val@U?$_Deque_simple_types@UKit_t@@@std@@@std@@@std@@U?$less@X@2@@std@@YAXV?$_Deque_unchecked_iterator@V?$_Deque_val@U?$_Deque_simple_types@UKit_t@@@std@@@std@@@0@0HU?$less@X@0@@Z 100c4900 f i SkinChanger.obj
 0001:000c3ac0       ??$emplace@UKit_t@@@?$deque@UKit_t@@V?$allocator@UKit_t@@@std@@@std@@QAE?AV?$_Deque_iterator@V?$_Deque_val@U?$_Deque_simple_types@UKit_t@@@std@@@std@@@1@V?$_Deque_const_iterator@V?$_Deque_val@U?$_Deque_simple_types@UKit_t@@@std@@@std@@@1@$$QAUKit_t@@@Z 100c4ac0 f i SkinChanger.obj
 0001:000c3d70       ??$iter_swap@V?$_Deque_unchecked_iterator@V?$_Deque_val@U?$_Deque_simple_types@UKit_t@@@std@@@std@@@std@@V12@@std@@YAXV?$_Deque_unchecked_iterator@V?$_Deque_val@U?$_Deque_simple_types@UKit_t@@@std@@@std@@@0@0@Z 100c4d70 f i SkinChanger.obj
 0001:000c3e90       ??$rotate@V?$_Deque_iterator@V?$_Deque_val@U?$_Deque_simple_types@UKit_t@@@std@@@std@@@std@@@std@@YA?AV?$_Deque_iterator@V?$_Deque_val@U?$_Deque_simple_types@UKit_t@@@std@@@std@@@0@V10@00@Z 100c4e90 f i SkinChanger.obj
 0001:000c3f50       ??$sort@V?$_Deque_iterator@V?$_Deque_val@U?$_Deque_simple_types@UKit_t@@@std@@@std@@@std@@@std@@YAXV?$_Deque_iterator@V?$_Deque_val@U?$_Deque_simple_types@UKit_t@@@std@@@std@@@0@0@Z 100c4f50 f i SkinChanger.obj
 0001:000c3fb0       ??0range_error@std@@QAE@ABV01@@Z 100c4fb0 f i SkinChanger.obj
 0001:000c3ff0       ??0range_error@std@@QAE@PBD@Z 100c4ff0 f i SkinChanger.obj
 0001:000c4040       ??0runtime_error@std@@QAE@ABV01@@Z 100c5040 f i SkinChanger.obj
 0001:000c4080       ??1?$_Hash@V?$_Umap_traits@HPAXV?$_Uhash_compare@HU?$hash@H@std@@U?$equal_to@H@2@@std@@V?$allocator@U?$pair@$$CBHPAX@std@@@2@$0A@@std@@@std@@QAE@XZ 100c5080 f i VMT.obj
 0001:000c4080       ??1?$_Hash@V?$_Umap_traits@PADPADV?$_Uhash_compare@PADU?$hash@PAD@std@@U?$equal_to@PAD@2@@std@@V?$allocator@U?$pair@QADPAD@std@@@2@$0A@@std@@@std@@QAE@XZ 100c5080 f i SkinChanger.obj
 0001:000c4080       ??1?$_Hash@V?$_Umap_traits@HPBDV?$_Uhash_compare@HU?$hash@H@std@@U?$equal_to@H@2@@std@@V?$allocator@U?$pair@$$CBHPBD@std@@@2@$0A@@std@@@std@@QAE@XZ 100c5080 f i SkinChanger.obj
 0001:000c4080       ??1?$_Hash@V?$_Umap_traits@PBDPBDV?$_Uhash_compare@PBDU?$hash@PBD@std@@U?$equal_to@PBD@2@@std@@V?$allocator@U?$pair@QBDPBD@std@@@2@$0A@@std@@@std@@QAE@XZ 100c5080 f i SkinChanger.obj
 0001:000c40e0       ??1?$basic_string@_WU?$char_traits@_W@std@@V?$allocator@_W@2@@std@@QAE@XZ 100c50e0 f i SkinChanger.obj
 0001:000c40f0       ??1?$deque@UKit_t@@V?$allocator@UKit_t@@@std@@@std@@QAE@XZ 100c50f0 f i SkinChanger.obj
 0001:000c41f0       ??1?$wstring_convert@V?$codecvt_utf8_utf16@_W$0BAPPPP@$0A@@std@@_WV?$allocator@_W@2@V?$allocator@D@2@@std@@UAE@XZ 100c51f0 f i SkinChanger.obj
 0001:000c42a0       ??1Kit_t@@QAE@XZ           100c52a0 f i SkinChanger.obj
 0001:000c42f0       ??4Kit_t@@QAEAAU0@$$QAU0@@Z 100c52f0 f i SkinChanger.obj
 0001:000c4340       ??A?$unordered_map@PBDPBDU?$hash@PBD@std@@U?$equal_to@PBD@2@V?$allocator@U?$pair@QBDPBD@std@@@2@@std@@QAEAAPBDABQBD@Z 100c5340 f i SkinChanger.obj
 0001:000c4430       ??_E?$codecvt_utf8_utf16@_W$0BAPPPP@$0A@@std@@UAEPAXI@Z 100c5430 f i SkinChanger.obj
 0001:000c4430       ??_G?$codecvt_utf8_utf16@_W$0BAPPPP@$0A@@std@@UAEPAXI@Z 100c5430 f i SkinChanger.obj
 0001:000c4460       ??_E?$wstring_convert@V?$codecvt_utf8_utf16@_W$0BAPPPP@$0A@@std@@_WV?$allocator@_W@2@V?$allocator@D@2@@std@@UAEPAXI@Z 100c5460 f i SkinChanger.obj
 0001:000c4460       ??_G?$wstring_convert@V?$codecvt_utf8_utf16@_W$0BAPPPP@$0A@@std@@_WV?$allocator@_W@2@V?$allocator@D@2@@std@@UAEPAXI@Z 100c5460 f i SkinChanger.obj
 0001:000c4490       ?_Growmap@?$deque@UKit_t@@V?$allocator@UKit_t@@@std@@@std@@IAEXI@Z 100c5490 f i SkinChanger.obj
 0001:000c4630       ?_Tidy_deallocate@?$basic_string@_WU?$char_traits@_W@std@@V?$allocator@_W@2@@std@@QAEXXZ 100c5630 f i SkinChanger.obj
 0001:000c4690       ?append@?$basic_string@DU?$char_traits@D@std@@V?$allocator@D@2@@std@@QAEAAV12@ID@Z 100c5690 f i SkinChanger.obj
 0001:000c47f0       ?do_always_noconv@?$codecvt_utf8_utf16@_W$0BAPPPP@$0A@@std@@MBE_NXZ 100c57f0 f i SkinChanger.obj
 0001:000c4800       ?do_in@?$codecvt_utf8_utf16@_W$0BAPPPP@$0A@@std@@MBEHAAU_Mbstatet@@PBD1AAPBDPA_W3AAPA_W@Z 100c5800 f i SkinChanger.obj
 0001:000c4a00       ?do_length@?$codecvt_utf8_utf16@_W$0BAPPPP@$0A@@std@@MBEHAAU_Mbstatet@@PBD1I@Z 100c5a00 f i SkinChanger.obj
 0001:000c4ac0       ?do_max_length@?$codecvt_utf8_utf16@_W$0BAPPPP@$0A@@std@@MBEHXZ 100c5ac0 f i SkinChanger.obj
 0001:000c4ad0       ?do_out@?$codecvt_utf8_utf16@_W$0BAPPPP@$0A@@std@@MBEHAAU_Mbstatet@@PB_W1AAPB_WPAD3AAPAD@Z 100c5ad0 f i SkinChanger.obj
 0001:000c4c30       ?do_unshift@?$codecvt_utf8_utf16@_W$0BAPPPP@$0A@@std@@MBEHAAU_Mbstatet@@PAD1AAPAD@Z 100c5c30 f i SkinChanger.obj
 0001:000c4c50       ?to_bytes@?$wstring_convert@V?$codecvt_utf8_utf16@_W$0BAPPPP@$0A@@std@@_WV?$allocator@_W@2@V?$allocator@D@2@@std@@QAE?AV?$basic_string@DU?$char_traits@D@std@@V?$allocator@D@2@@2@PB_W0@Z 100c5c50 f i SkinChanger.obj
 0001:000c5070       _snprintf                  100c6070 f i SkinChanger.obj
 0001:000c50b0       ??0SpoofedConvar@@QAE@PBD@Z 100c60b0 f   SpoofedConvar.obj
 0001:000c50f0       ??0SpoofedConvar@@QAE@PAVConVar@@@Z 100c60f0 f   SpoofedConvar.obj
 0001:000c5110       ??1SpoofedConvar@@QAE@XZ   100c6110 f   SpoofedConvar.obj
 0001:000c51e0       ?IsSpoofed@SpoofedConvar@@QAE_NXZ 100c61e0 f   SpoofedConvar.obj
 0001:000c51f0       ?Spoof@SpoofedConvar@@QAEXXZ 100c61f0 f   SpoofedConvar.obj
 0001:000c5320       ?SetFlags@SpoofedConvar@@QAEXH@Z 100c6320 f   SpoofedConvar.obj
 0001:000c5340       ?GetFlags@SpoofedConvar@@QAEHXZ 100c6340 f   SpoofedConvar.obj
 0001:000c5350       ?SetBool@SpoofedConvar@@QAEX_N@Z 100c6350 f   SpoofedConvar.obj
 0001:000c5370       ?SetInt@SpoofedConvar@@QAEXH@Z 100c6370 f   SpoofedConvar.obj
 0001:000c5390       ?SetFloat@SpoofedConvar@@QAEXM@Z 100c6390 f   SpoofedConvar.obj
 0001:000c53c0       ?SetString@SpoofedConvar@@QAEXPBD@Z 100c63c0 f   SpoofedConvar.obj
 0001:000c53e0       ??0MinspecCvar@@QAE@PBDPADM@Z 100c63e0 f   SpoofedConvar.obj
 0001:000c5470       ??1MinspecCvar@@QAE@XZ     100c6470 f   SpoofedConvar.obj
 0001:000c54f0       ?ValidCvar@MinspecCvar@@QAE_NXZ 100c64f0 f   SpoofedConvar.obj
 0001:000c5500       ?Spoof@MinspecCvar@@QAEXXZ 100c6500 f   SpoofedConvar.obj
 0001:000c5560       ?GetInt@MinspecCvar@@QAEHXZ 100c6560 f   SpoofedConvar.obj
 0001:000c5570       ?GetFloat@MinspecCvar@@QAEMXZ 100c6570 f   SpoofedConvar.obj
 0001:000c5590       ?GetString@MinspecCvar@@QAEPBDXZ 100c6590 f   SpoofedConvar.obj
 0001:000c55a0       ?IsVisible@MiscFunctions@@YA_NPAVC_BaseEntity@@0@Z 100c65a0 f   MiscFunctions.obj
 0001:000c58f0       ?IsKnife@MiscFunctions@@YA_NPAX@Z 100c68f0 f   MiscFunctions.obj
 0001:000c5920       ?IsPistol@MiscFunctions@@YA_NPAX@Z 100c6920 f   MiscFunctions.obj
 0001:000c5980       ?IsSniper@MiscFunctions@@YA_NPAX@Z 100c6980 f   MiscFunctions.obj
 0001:000c59c0       ?IsGrenade@MiscFunctions@@YA_NPAX@Z 100c69c0 f   MiscFunctions.obj
 0001:000c5a10       ?IsRifle@MiscFunctions@@YA_NPAX@Z 100c6a10 f   MiscFunctions.obj
 0001:000c5a60       ?IsSmg@MiscFunctions@@YA_NPAX@Z 100c6a60 f   MiscFunctions.obj
 0001:000c5ab0       ?IsHeavy@MiscFunctions@@YA_NPAX@Z 100c6ab0 f   MiscFunctions.obj
 0001:000c5b00       ?IsRevolver@MiscFunctions@@YA_NPAX@Z 100c6b00 f   MiscFunctions.obj
 0001:000c5b30       ?IsBomb@MiscFunctions@@YA_NPAX@Z 100c6b30 f   MiscFunctions.obj
 0001:000c5b60       ?SayInChat@@YAXPBD@Z       100c6b60 f   MiscFunctions.obj
 0001:000c5bb0       ?GetHitboxPosition@@YA?AVVector@@PAVC_BaseEntity@@H@Z 100c6bb0 f   MiscFunctions.obj
 0001:000c5d80       ?GetHitboxPositionFromMatrix@@YA?AVVector@@PAVC_BaseEntity@@QAVmatrix3x4_t@@H@Z 100c6d80 f   MiscFunctions.obj
 0001:000c5e80       ?GenerateRandomFloat@@YAMMM@Z 100c6e80 f   MiscFunctions.obj
 0001:000c5ec0       ??$sprintf_s@$0PK@@@YAHAAY0PK@DPBDZZ 100c6ec0 f i MiscFunctions.obj
 0001:000c5f00       ??0Vector@@QAE@XZ          100c6f00 f   Vector.obj
 0001:000c5f20       ??0Vector@@QAE@MMM@Z       100c6f20 f   Vector.obj
 0001:000c5f50       ??0Vector@@QAE@PAM@Z       100c6f50 f   Vector.obj
 0001:000c5f70       ?Init@Vector@@QAEXMMM@Z    100c6f70 f   Vector.obj
 0001:000c5fa0       ?IsValid@Vector@@QBE_NXZ   100c6fa0 f   Vector.obj
 0001:000c6010       ?Invalidate@Vector@@QAEXXZ 100c7010 f   Vector.obj
 0001:000c6030       ??AVector@@QBEMH@Z         100c7030 f   Vector.obj
 0001:000c6040       ??AVector@@QAEAAMH@Z       100c7040 f   Vector.obj
 0001:000c6050       ?Base@Vector@@QAEPAMXZ     100c7050 f   Vector.obj
 0001:000c6060       ?Base@Vector@@QBEPBMXZ     100c7060 f   Vector.obj
 0001:000c6070       ?Random@Vector@@QAEXMM@Z   100c7070 f   Vector.obj
 0001:000c6100       ?Zero@Vector@@QAEXXZ       100c7100 f   Vector.obj
 0001:000c6120       ??8Vector@@QBE_NABV0@@Z    100c7120 f   Vector.obj
 0001:000c6160       ??9Vector@@QBE_NABV0@@Z    100c7160 f   Vector.obj
 0001:000c61a0       ?Negate@Vector@@QAEXXZ     100c71a0 f   Vector.obj
 0001:000c61d0       ?Length@Vector@@QBEMXZ     100c71d0 f   Vector.obj
 0001:000c6220       ?NormalizeInPlace@Vector@@QAEMXZ 100c7220 f   Vector.obj
 0001:000c62d0       ?Normalized@Vector@@QBE?AV1@XZ 100c72d0 f   Vector.obj
 0001:000c6380       ?WithinAABox@Vector@@QAE_NABV1@0@Z 100c7380 f   Vector.obj
 0001:000c63e0       ?DistTo@Vector@@QBEMABV1@@Z 100c73e0 f   Vector.obj
 0001:000c6440       ?CopyToArray@Vector@@QBEXPAM@Z 100c7440 f   Vector.obj
 0001:000c6460       ?MulAdd@Vector@@QAEXABV1@0M@Z 100c7460 f   Vector.obj
 0001:000c64b0       ?Dot@Vector@@QBEMABV1@@Z   100c74b0 f   Vector.obj
 0001:000c64d0       ??4Vector@@QAEAAV0@ABV0@@Z 100c74d0 f   Vector.obj
 0001:000c64f0       ?ProjectOnto@Vector@@QAE?AV1@ABV1@@Z 100c74f0 f   Vector.obj
 0001:000c6570       ?Direction@Vector@@QAE?AV1@XZ 100c7570 f   Vector.obj
 0001:000c66e0       ?Forward@Vector@@QAE?AV1@XZ 100c76e0 f   Vector.obj
 0001:000c6850       ?Up@Vector@@QAE?AV1@XZ     100c7850 f   Vector.obj
 0001:000c69c0       ?Right@Vector@@QAE?AV1@XZ  100c79c0 f   Vector.obj
 0001:000c6b30       ??GVector@@QBE?AV0@XZ      100c7b30 f   Vector.obj
 0001:000c6b70       ??HVector@@QBE?AV0@ABV0@@Z 100c7b70 f   Vector.obj
 0001:000c6bb0       ??GVector@@QBE?AV0@ABV0@@Z 100c7bb0 f   Vector.obj
 0001:000c6bf0       ??DVector@@QBE?AV0@ABV0@@Z 100c7bf0 f   Vector.obj
 0001:000c6c30       ??KVector@@QBE?AV0@ABV0@@Z 100c7c30 f   Vector.obj
 0001:000c6c70       ??DVector@@QBE?AV0@M@Z     100c7c70 f   Vector.obj
 0001:000c6cb0       ??KVector@@QBE?AV0@M@Z     100c7cb0 f   Vector.obj
 0001:000c6cf0       ?Cross@Vector@@QBE?AV1@ABV1@@Z 100c7cf0 f   Vector.obj
 0001:000c6d60       ?Min@Vector@@QBE?AV1@ABV1@@Z 100c7d60 f   Vector.obj
 0001:000c6da0       ?Max@Vector@@QBE?AV1@ABV1@@Z 100c7da0 f   Vector.obj
 0001:000c6de0       ?VectorTransform@@YAXABVVector@@ABVmatrix3x4_t@@AAV1@@Z 100c7de0 f   Vector.obj
 0001:000c6e80       ?VectorCopy@@YAXABVVector@@AAV1@@Z 100c7e80 f   Vector.obj
 0001:000c6ea0       ?VectorLength@@YAMABVVector@@@Z 100c7ea0 f   Vector.obj
 0001:000c6ef0       ?VectorLerp@@YAXABVVector@@0MAAV1@@Z 100c7ef0 f   Vector.obj
 0001:000c6f50       ?VectorCrossProduct@@YAXABVVector@@0AAV1@@Z 100c7f50 f   Vector.obj
 0001:000c6fb0       ?NormalizeVector@@YAMAAVVector@@@Z 100c7fb0 f   Vector.obj
 0001:000c7060       ?VectorLerp@@YA?AVVector@@ABV1@0M@Z 100c8060 f   Vector.obj
 0001:000c70c0       ?VectorClear@@YAXAAVVector@@@Z 100c80c0 f   Vector.obj
 0001:000c70e0       ??D@YA?AVVector@@MABV0@@Z  100c80e0 f   Vector.obj
 0001:000c7120       ??0Vector4D@@QAE@XZ        100c8120 f   Vector4D.obj
 0001:000c7140       ??0Vector4D@@QAE@MMMM@Z    100c8140 f   Vector4D.obj
 0001:000c7170       ??0Vector4D@@QAE@PAM@Z     100c8170 f   Vector4D.obj
 0001:000c71a0       ?Init@Vector4D@@QAEXMMMM@Z 100c81a0 f   Vector4D.obj
 0001:000c71d0       ?IsValid@Vector4D@@QBE_NXZ 100c81d0 f   Vector4D.obj
 0001:000c7260       ?Invalidate@Vector4D@@QAEXXZ 100c8260 f   Vector4D.obj
 0001:000c7280       ??AVector4D@@QBEMH@Z       100c8280 f   Vector4D.obj
 0001:000c7290       ??AVector4D@@QAEAAMH@Z     100c8290 f   Vector4D.obj
 0001:000c72a0       ?Base@Vector4D@@QAEPAMXZ   100c82a0 f   Vector4D.obj
 0001:000c72b0       ?Base@Vector4D@@QBEPBMXZ   100c82b0 f   Vector4D.obj
 0001:000c72c0       ?Random@Vector4D@@QAEXMM@Z 100c82c0 f   Vector4D.obj
 0001:000c7370       ?Zero@Vector4D@@QAEXXZ     100c8370 f   Vector4D.obj
 0001:000c7390       ??8Vector4D@@QBE_NABV0@@Z  100c8390 f   Vector4D.obj
 0001:000c73e0       ??9Vector4D@@QBE_NABV0@@Z  100c83e0 f   Vector4D.obj
 0001:000c7430       ?Negate@Vector4D@@QAEXXZ   100c8430 f   Vector4D.obj
 0001:000c7440       ?Length@Vector4D@@QBEMXZ   100c8440 f   Vector4D.obj
 0001:000c74a0       ?WithinAABox@Vector4D@@QAE_NABV1@0@Z 100c84a0 f   Vector4D.obj
 0001:000c7510       ?DistTo@Vector4D@@QBEMABV1@@Z 100c8510 f   Vector4D.obj
 0001:000c7580       ?CopyToArray@Vector4D@@QBEXPAM@Z 100c8580 f   Vector4D.obj
 0001:000c75a0       ?MulAdd@Vector4D@@QAEXABV1@0M@Z 100c85a0 f   Vector4D.obj
 0001:000c7600       ?Dot@Vector4D@@QBEMABV1@@Z 100c8600 f   Vector4D.obj
 0001:000c7650       ??4Vector4D@@QAEAAV0@ABV0@@Z 100c8650 f   Vector4D.obj
 0001:000c7680       ?ProjectOnto@Vector4D@@QAE?AV1@ABV1@@Z 100c8680 f   Vector4D.obj
 0001:000c76f0       ??GVector4D@@QBE?AV0@XZ    100c86f0 f   Vector4D.obj
 0001:000c7710       ??HVector4D@@QBE?AV0@ABV0@@Z 100c8710 f   Vector4D.obj
 0001:000c7730       ??GVector4D@@QBE?AV0@ABV0@@Z 100c8730 f   Vector4D.obj
 0001:000c7750       ??DVector4D@@QBE?AV0@ABV0@@Z 100c8750 f   Vector4D.obj
 0001:000c7770       ??KVector4D@@QBE?AV0@ABV0@@Z 100c8770 f   Vector4D.obj
 0001:000c7790       ??DVector4D@@QBE?AV0@M@Z   100c8790 f   Vector4D.obj
 0001:000c77b0       ??KVector4D@@QBE?AV0@M@Z   100c87b0 f   Vector4D.obj
 0001:000c77d0       ?Min@Vector4D@@QBE?AV1@ABV1@@Z 100c87d0 f   Vector4D.obj
 0001:000c7820       ?Max@Vector4D@@QBE?AV1@ABV1@@Z 100c8820 f   Vector4D.obj
 0001:000c7870       ?VectorCopy@@YAXABVVector4D@@AAV1@@Z 100c8870 f   Vector4D.obj
 0001:000c78a0       ?VectorLerp@@YAXABVVector4D@@0MAAV1@@Z 100c88a0 f   Vector4D.obj
 0001:000c7910       ?VectorLength@@YAMABVVector4D@@@Z 100c8910 f   Vector4D.obj
 0001:000c7970       ?NormalizeVector@@YAMAAVVector4D@@@Z 100c8970 f   Vector4D.obj
 0001:000c7a10       ?VectorLerp@@YA?AVVector4D@@ABV1@0M@Z 100c8a10 f   Vector4D.obj
 0001:000c7a40       ?VectorClear@@YAXAAVVector4D@@@Z 100c8a40 f   Vector4D.obj
 0001:000c7a70       ??D@YA?AVVector4D@@MABV0@@Z 100c8a70 f   Vector4D.obj
 0001:000c7a90       ??0VMTHookManager@VMT@@QAE@PAX@Z 100c8a90 f   VMT.obj
 0001:000c7b80       ??1VMTHookManager@VMT@@QAE@XZ 100c8b80 f   VMT.obj
 0001:000c7c70       ?Init@VMTHookManager@VMT@@QAEXPAX@Z 100c8c70 f   VMT.obj
 0001:000c7ce0       ?Restore@VMTHookManager@VMT@@QAEXXZ 100c8ce0 f   VMT.obj
 0001:000c7dc0       ?UnHookFunction@VMTHookManager@VMT@@QAEXH@Z 100c8dc0 f   VMT.obj
 0001:000c7ed0       ?VProtect@VMTHookManager@VMT@@AAEXPAXIKPAK@Z 100c8ed0 f   VMT.obj
 0001:000c7ee0       ?clear@?$_Hash@V?$_Umap_traits@HPAXV?$_Uhash_compare@HU?$hash@H@std@@U?$equal_to@H@2@@std@@V?$allocator@U?$pair@$$CBHPAX@std@@@2@$0A@@std@@@std@@QAEXXZ 100c8ee0 f i VMT.obj
 0001:000c7f50       ?erase@?$_Hash@V?$_Umap_traits@HPAXV?$_Uhash_compare@HU?$hash@H@std@@U?$equal_to@H@2@@std@@V?$allocator@U?$pair@$$CBHPAX@std@@@2@$0A@@std@@@std@@QAEIABH@Z 100c8f50 f i VMT.obj
 0001:000c8140       ?find@?$_Hash@V?$_Umap_traits@HPAXV?$_Uhash_compare@HU?$hash@H@std@@U?$equal_to@H@2@@std@@V?$allocator@U?$pair@$$CBHPAX@std@@@2@$0A@@std@@@std@@QAE?AV?$_List_iterator@V?$_List_val@U?$_List_simple_types@U?$pair@$$CBHPAX@std@@@std@@@std@@@2@ABH@Z 100c9140 f i VMT.obj
 0001:000c81ce       _K32GetModuleInformation@16 100c91ce f   kernel32:KERNEL32.dll
 0001:000c81d4       ?_Xlength_error@std@@YAXPBD@Z 100c91d4 f   msvcprt:MSVCP140.dll
 0001:000c81da       ?showmanyc@?$basic_streambuf@DU?$char_traits@D@std@@@std@@MAE_JXZ 100c91da f   msvcprt:MSVCP140.dll
 0001:000c81e0       ?uncaught_exception@std@@YA_NXZ 100c91e0 f   msvcprt:MSVCP140.dll
 0001:000c81e6       ?_Xout_of_range@std@@YAXPBD@Z 100c91e6 f   msvcprt:MSVCP140.dll
 0001:000c81ec       ??1_Fac_node@std@@QAE@XZ   100c91ec f i msvcprt:locale0_implib.obj
 0001:000c824b       ??1_Fac_tidy_reg_t@std@@QAE@XZ 100c924b f i msvcprt:locale0_implib.obj
 0001:000c8272       ?_Facet_Register@std@@YAXPAV_Facet_base@1@@Z 100c9272 f   msvcprt:locale0_implib.obj
 0001:000c829e       ?_Getgloballocale@locale@std@@CAPAV_Locimp@12@XZ 100c929e f   msvcprt:MSVCP140.dll
 0001:000c82a4       ?_Fiopen@std@@YAPAU_iobuf@@PBDHH@Z 100c92a4 f   msvcprt:MSVCP140.dll
 0001:000c82aa       ?_Xinvalid_argument@std@@YAXPBD@Z 100c92aa f   msvcprt:MSVCP140.dll
 0001:000c82b0       __Query_perf_counter       100c92b0 f   msvcprt:MSVCP140.dll
 0001:000c82b6       __Query_perf_frequency     100c92b6 f   msvcprt:MSVCP140.dll
 0001:000c82bc       ?_Init@locale@std@@CAPAV_Locimp@12@_N@Z 100c92bc f   msvcprt:MSVCP140.dll
 0001:000c82c2       ?_Decref@facet@locale@std@@UAEPAV_Facet_base@3@XZ 100c92c2 f   msvcprt:MSVCP140.dll
 0001:000c82c8       ?_Incref@facet@locale@std@@UAEXXZ 100c92c8 f   msvcprt:MSVCP140.dll
 0001:000c82ce       ??2@YAPAXI@Z               100c92ce f   MSVCRT:new_scalar.obj
 0001:000c82fe       ??3@YAXPAXI@Z              100c92fe f   MSVCRT:delete_scalar_size.obj
 0001:000c8350       ___scrt_acquire_startup_lock 100c9350 f   MSVCRT:utility.obj
 0001:000c8382       ___scrt_dllmain_after_initialize_c 100c9382 f   MSVCRT:utility.obj
 0001:000c83ad       ___scrt_dllmain_before_initialize_c 100c93ad f   MSVCRT:utility.obj
 0001:000c83bb       ___scrt_dllmain_crt_thread_attach 100c93bb f   MSVCRT:utility.obj
 0001:000c83da       ___scrt_dllmain_crt_thread_detach 100c93da f   MSVCRT:utility.obj
 0001:000c83e7       ___scrt_dllmain_exception_filter 100c93e7 f   MSVCRT:utility.obj
 0001:000c841b       ___scrt_dllmain_uninitialize_c 100c941b f   MSVCRT:utility.obj
 0001:000c843e       ___scrt_dllmain_uninitialize_critical 100c943e f   MSVCRT:utility.obj
 0001:000c844b       ___scrt_initialize_crt     100c944b f   MSVCRT:utility.obj
 0001:000c8484       ___scrt_initialize_onexit_tables 100c9484 f   MSVCRT:utility.obj
 0001:000c8529       ___scrt_is_nonwritable_in_current_image 100c9529 f   MSVCRT:utility.obj
 0001:000c85bd       ___scrt_release_startup_lock 100c95bd f   MSVCRT:utility.obj
 0001:000c85da       ___scrt_uninitialize_crt   100c95da f   MSVCRT:utility.obj
 0001:000c8602       __onexit                   100c9602 f   MSVCRT:utility.obj
 0001:000c863d       _atexit                    100c963d f   MSVCRT:utility.obj
 0001:000c8652       @__security_check_cookie@4 100c9652 f   MSVCRT:_secchk_.obj
 0001:000c8663       ??_Etype_info@@UAEPAXI@Z   100c9663 f i MSVCRT:std_type_info_static.obj
 0001:000c8663       ??_Gtype_info@@UAEPAXI@Z   100c9663 f i MSVCRT:std_type_info_static.obj
 0001:000c8686       ___raise_securityfailure   100c9686 f   MSVCRT:gs_report.obj
 0001:000c86ae       ___report_gsfailure        100c96ae f   MSVCRT:gs_report.obj
 0001:000c87a7       ___report_rangecheckfailure 100c97a7 f   MSVCRT:gs_report.obj
 0001:000c87b3       ___report_securityfailure  100c97b3 f   MSVCRT:gs_report.obj
 0001:000c8890       __ftoui3                   100c9890 f   MSVCRT:_ftol3_.obj
 0001:000c889f       __ftoul3                   100c989f f   MSVCRT:_ftol3_.obj
 0001:000c88ae       __ftol3                    100c98ae f   MSVCRT:_ftol3_.obj
 0001:000c88bb       __ftol3_NaN                100c98bb f   MSVCRT:_ftol3_.obj
 0001:000c88d3       __ftol3_work               100c98d3 f   MSVCRT:_ftol3_.obj
 0001:000c8959       __ftol3_common             100c9959 f   MSVCRT:_ftol3_.obj
 0001:000c8a1b       __ftol3_arg_error          100c9a1b f   MSVCRT:_ftol3_.obj
 0001:000c8a2d       __ftol3_except             100c9a2d f   MSVCRT:_ftol3_.obj
 0001:000c8a71       __dtoui3                   100c9a71 f   MSVCRT:_ftol3_.obj
 0001:000c8a80       __dtoul3                   100c9a80 f   MSVCRT:_ftol3_.obj
 0001:000c8a8f       __dtol3                    100c9a8f f   MSVCRT:_ftol3_.obj
 0001:000c8a9c       __dtol3_NaN                100c9a9c f   MSVCRT:_ftol3_.obj
 0001:000c8ab9       __dtol3_work               100c9ab9 f   MSVCRT:_ftol3_.obj
 0001:000c8ba0       __ultod3                   100c9ba0 f   MSVCRT:_ftol3_.obj
 0001:000c8be0       __ltod3                    100c9be0 f   MSVCRT:_ftol3_.obj
 0001:000c8c07       ??_L@YGXPAXIIP6EX0@Z1@Z    100c9c07 f   MSVCRT:ehvecctr.obj
 0001:000c8c7b       ??_M@YGXPAXIIP6EX0@Z@Z     100c9c7b f   MSVCRT:ehvecdtr.obj
 0001:000c8d00       ?__ArrayUnwind@@YGXPAXIIP6EX0@Z@Z 100c9d00 f   MSVCRT:ehvecdtr.obj
 0001:000c8da0       ??$__crt_fast_encode_pointer@P6GHPAU_RTL_CONDITION_VARIABLE@@PAU_RTL_CRITICAL_SECTION@@K@Z@@YAP6GHPAU_RTL_CONDITION_VARIABLE@@PAU_RTL_CRITICAL_SECTION@@K@ZQ6GH01K@Z@Z 100c9da0 f i MSVCRT:thread_safe_statics.obj
 0001:000c8da0       ??$__crt_fast_encode_pointer@P6GXPAU_RTL_CONDITION_VARIABLE@@@Z@@YAP6GXPAU_RTL_CONDITION_VARIABLE@@@ZQ6GX0@Z@Z 100c9da0 f i MSVCRT:thread_safe_statics.obj
 0001:000c8ec8       __Init_thread_abort        100c9ec8 f   MSVCRT:thread_safe_statics.obj
 0001:000c8eec       __Init_thread_footer       100c9eec f   MSVCRT:thread_safe_statics.obj
 0001:000c8f36       __Init_thread_header       100c9f36 f   MSVCRT:thread_safe_statics.obj
 0001:000c8f88       __Init_thread_notify       100c9f88 f   MSVCRT:thread_safe_statics.obj
 0001:000c8fca       __Init_thread_wait         100c9fca f   MSVCRT:thread_safe_statics.obj
 0001:000c9030       ___vdecl_cos2              100ca030 f   MSVCRT:_svml_dcos2_dispatch_.obj
 0001:000c9040       ___vdecl_sin2              100ca040 f   MSVCRT:_svml_dsin2_dispatch_.obj
 0001:000c9045       ___libm_sse2_sincos_       100ca045 f   MSVCRT:_svml_dsin2_dispatch_.obj
 0001:000c90a0       __alloca_probe_16          100ca0a0 f   MSVCRT:alloca16.obj
 0001:000c90b6       __alloca_probe_8           100ca0b6     MSVCRT:alloca16.obj
 0001:000c90d0       __ftol2_sse                100ca0d0 f   MSVCRT:_ftol2_.obj
 0001:000c90d9       __ftol2_pentium4           100ca0d9 f   MSVCRT:_ftol2_.obj
 0001:000c90ec       __ftol2_sse_excpt          100ca0ec f   MSVCRT:_ftol2_.obj
 0001:000c9110       __ftol2                    100ca110 f   MSVCRT:_ftol2_.obj
 0001:000c9185       ??_U@YAPAXI@Z              100ca185 f   MSVCRT:new_array.obj
 0001:000c9190       __chkstk                   100ca190 f   MSVCRT:chkstk.obj
 0001:000c9190       __alloca_probe             100ca190 f   MSVCRT:chkstk.obj
 0001:000c91bd       ??_V@YAXPAX@Z              100ca1bd f   MSVCRT:delete_array.obj
 0001:000c91d0       __alldiv                   100ca1d0 f   MSVCRT:lldiv.obj
 0001:000c9280       __alldvrm                  100ca280 f   MSVCRT:lldvrm.obj
 0001:000c9360       __allmul                   100ca360 f   MSVCRT:llmul.obj
 0001:000c96b4       __DllMainCRTStartup@12     100ca6b4 f   MSVCRT:dll_dllmain.obj
 0001:000c96d7       ??0bad_alloc@std@@QAE@ABV01@@Z 100ca6d7 f i MSVCRT:throw_bad_alloc.obj
 0001:000c96f2       ??0bad_alloc@std@@QAE@XZ   100ca6f2 f i MSVCRT:throw_bad_alloc.obj
 0001:000c970a       ??0bad_array_new_length@std@@QAE@ABV01@@Z 100ca70a f i MSVCRT:throw_bad_alloc.obj
 0001:000c9725       ??0bad_array_new_length@std@@QAE@XZ 100ca725 f i MSVCRT:throw_bad_alloc.obj
 0001:000c973d       ??_Ebad_alloc@std@@UAEPAXI@Z 100ca73d f i MSVCRT:throw_bad_alloc.obj
 0001:000c973d       ??_Ebad_array_new_length@std@@UAEPAXI@Z 100ca73d f i MSVCRT:throw_bad_alloc.obj
 0001:000c973d       ??_Gbad_alloc@std@@UAEPAXI@Z 100ca73d f i MSVCRT:throw_bad_alloc.obj
 0001:000c973d       ??_Gbad_array_new_length@std@@UAEPAXI@Z 100ca73d f i MSVCRT:throw_bad_alloc.obj
 0001:000c976a       ?__scrt_throw_std_bad_alloc@@YAXXZ 100ca76a f   MSVCRT:throw_bad_alloc.obj
 0001:000c9787       ?__scrt_throw_std_bad_array_new_length@@YAXXZ 100ca787 f   MSVCRT:throw_bad_alloc.obj
 0001:000c97a4       ??3@YAXPAX@Z               100ca7a4 f   MSVCRT:delete_scalar.obj
 0001:000c97a9       ___isa_available_init      100ca7a9 f   MSVCRT:_cpu_disp_.obj
 0001:000c9940       __get_startup_argv_mode    100ca940 f   MSVCRT:argv_mode.obj
 0001:000c9944       ___scrt_is_ucrt_dll_in_use 100ca944 f   MSVCRT:ucrt_detection.obj
 0001:000c9950       ___scrt_fastfail           100ca950 f   MSVCRT:utility_desktop.obj
 0001:000c9a6a       __crt_debugger_hook        100caa6a f   MSVCRT:utility_desktop.obj
 0001:000c9a80       __SEH_prolog4              100caa80 f   MSVCRT:_sehprolg4_.obj
 0001:000c9ac6       __SEH_epilog4              100caac6 f   MSVCRT:_sehprolg4_.obj
 0001:000c9adb       __except_handler4          100caadb f   MSVCRT:_chandler4gs_.obj
 0001:000c9b00       ___sse2_cos2               100cab00 f   MSVCRT:_svml_dcos2_sse2_.obj
 0001:000c9ca0       ___sse2_sin2               100caca0 f   MSVCRT:_svml_dsin2_sse2_.obj
 0001:000c9ead       ___security_init_cookie    100caead f   MSVCRT:gs_support.obj
 0001:000c9ef8       ?__scrt_initialize_type_info@@YAXXZ 100caef8 f   MSVCRT:tncleanup.obj
 0001:000c9f04       ?__scrt_uninitialize_type_info@@YAXXZ 100caf04 f   MSVCRT:tncleanup.obj
 0001:000c9f10       ___scrt_initialize_default_local_stdio_options 100caf10 f   MSVCRT:default_local_stdio_options.obj
 0001:000c9f2d       ___scrt_get_dyn_tls_init_callback 100caf2d f   MSVCRT:dyn_tls_init.obj
 0001:000c9f33       __RTC_Initialize           100caf33 f   MSVCRT:_initsect_.obj
 0001:000c9f5f       __RTC_Terminate            100caf5f f   MSVCRT:_initsect_.obj
 0001:000c9f90       ___common_sin_reduction_LA 100caf90 f   MSVCRT:_svml_dtrig_.obj
 0001:000ca2e0       ___common_cos_reduction_LA 100cb2e0 f   MSVCRT:_svml_dtrig_.obj
 0001:000ca5d0       ___common_pi04_reduction_LA 100cb5d0 f   MSVCRT:_svml_dtrig_.obj
 0001:000ca8e0       _ImmGetContext@4           100cb8e0 f   imm32:IMM32.dll
 0001:000ca8e6       _ImmSetCompositionWindow@8 100cb8e6 f   imm32:IMM32.dll
 0001:000ca8ec       ___CxxFrameHandler3        100cb8ec f   vcruntime:VCRUNTIME140.dll
 0001:000ca8f2       _memcpy                    100cb8f2 f   vcruntime:VCRUNTIME140.dll
 0001:000ca8f8       _memmove                   100cb8f8 f   vcruntime:VCRUNTIME140.dll
 0001:000ca8fe       _memset                    100cb8fe f   vcruntime:VCRUNTIME140.dll
 0001:000ca904       ___std_terminate           100cb904 f   vcruntime:VCRUNTIME140.dll
 0001:000ca90a       ___std_exception_copy      100cb90a f   vcruntime:VCRUNTIME140.dll
 0001:000ca910       ___std_exception_destroy   100cb910 f   vcruntime:VCRUNTIME140.dll
 0001:000ca916       __CxxThrowException@8      100cb916 f   vcruntime:VCRUNTIME140.dll
 0001:000ca91c       _memchr                    100cb91c f   vcruntime:VCRUNTIME140.dll
 0001:000ca922       _strchr                    100cb922 f   vcruntime:VCRUNTIME140.dll
 0001:000ca928       _strstr                    100cb928 f   vcruntime:VCRUNTIME140.dll
 0001:000ca92e       __purecall                 100cb92e f   vcruntime:VCRUNTIME140.dll
 0001:000ca934       __except_handler4_common   100cb934 f   vcruntime:VCRUNTIME140.dll
 0001:000ca93a       ___std_type_info_destroy_list 100cb93a f   vcruntime:VCRUNTIME140.dll
 0001:000ca940       _free                      100cb940 f   ucrt:api-ms-win-crt-heap-l1-1-0.dll
 0001:000ca946       _malloc                    100cb946 f   ucrt:api-ms-win-crt-heap-l1-1-0.dll
 0001:000ca94c       __CIfmod                   100cb94c f   ucrt:api-ms-win-crt-math-l1-1-0.dll
 0001:000ca952       __libm_sse2_pow_precise    100cb952 f   ucrt:api-ms-win-crt-math-l1-1-0.dll
 0001:000ca958       __libm_sse2_cos_precise    100cb958 f   ucrt:api-ms-win-crt-math-l1-1-0.dll
 0001:000ca95e       __libm_sse2_sin_precise    100cb95e f   ucrt:api-ms-win-crt-math-l1-1-0.dll
 0001:000ca964       __libm_sse2_sqrt_precise   100cb964 f   ucrt:api-ms-win-crt-math-l1-1-0.dll
 0001:000ca96a       _ceil                      100cb96a f   ucrt:api-ms-win-crt-math-l1-1-0.dll
 0001:000ca970       _floor                     100cb970 f   ucrt:api-ms-win-crt-math-l1-1-0.dll
 0001:000ca976       __libm_sse2_atan_precise   100cb976 f   ucrt:api-ms-win-crt-math-l1-1-0.dll
 0001:000ca97c       __libm_sse2_exp_precise    100cb97c f   ucrt:api-ms-win-crt-math-l1-1-0.dll
 0001:000ca982       __CIatan2                  100cb982 f   ucrt:api-ms-win-crt-math-l1-1-0.dll
 0001:000ca988       __libm_sse2_acos_precise   100cb988 f   ucrt:api-ms-win-crt-math-l1-1-0.dll
 0001:000ca98e       __libm_sse2_asin_precise   100cb98e f   ucrt:api-ms-win-crt-math-l1-1-0.dll
 0001:000ca994       __callnewh                 100cb994 f   ucrt:api-ms-win-crt-heap-l1-1-0.dll
 0001:000ca99a       __seh_filter_dll           100cb99a f   ucrt:api-ms-win-crt-runtime-l1-1-0.dll
 0001:000ca9a0       __configure_narrow_argv    100cb9a0 f   ucrt:api-ms-win-crt-runtime-l1-1-0.dll
 0001:000ca9a6       __initialize_narrow_environment 100cb9a6 f   ucrt:api-ms-win-crt-runtime-l1-1-0.dll
 0001:000ca9ac       __initialize_onexit_table  100cb9ac f   ucrt:api-ms-win-crt-runtime-l1-1-0.dll
 0001:000ca9b2       __register_onexit_function 100cb9b2 f   ucrt:api-ms-win-crt-runtime-l1-1-0.dll
 0001:000ca9b8       __execute_onexit_table     100cb9b8 f   ucrt:api-ms-win-crt-runtime-l1-1-0.dll
 0001:000ca9be       __crt_atexit               100cb9be f   ucrt:api-ms-win-crt-runtime-l1-1-0.dll
 0001:000ca9c4       __cexit                    100cb9c4 f   ucrt:api-ms-win-crt-runtime-l1-1-0.dll
 0001:000ca9ca       __except1                  100cb9ca f   ucrt:api-ms-win-crt-math-l1-1-0.dll
 0001:000ca9d0       _terminate                 100cb9d0 f   ucrt:api-ms-win-crt-runtime-l1-1-0.dll
 0001:000ca9d6       __initterm                 100cb9d6 f   ucrt:api-ms-win-crt-runtime-l1-1-0.dll
 0001:000ca9dc       __initterm_e               100cb9dc f   ucrt:api-ms-win-crt-runtime-l1-1-0.dll
 0001:000ca9e2       _IsProcessorFeaturePresent@4 100cb9e2 f   kernel32:KERNEL32.dll
 0001:000ca9e8       ___scrt_stub_for_acrt_thread_detach 100cb9e8 f   MSVCRT:ucrt_stubs.obj
 0001:000ca9e8       ___scrt_stub_for_acrt_uninitialize_critical 100cb9e8 f   MSVCRT:ucrt_stubs.obj
 0001:000ca9e8       ___vcrt_initialize         100cb9e8 f   MSVCRT:ucrt_stubs.obj
 0001:000ca9e8       ___acrt_thread_attach      100cb9e8 f   MSVCRT:ucrt_stubs.obj
 0001:000ca9e8       ___scrt_stub_for_acrt_initialize 100cb9e8 f   MSVCRT:ucrt_stubs.obj
 0001:000ca9e8       ___vcrt_uninitialize_critical 100cb9e8 f   MSVCRT:ucrt_stubs.obj
 0001:000ca9e8       ___scrt_stub_for_acrt_thread_attach 100cb9e8 f   MSVCRT:ucrt_stubs.obj
 0001:000ca9e8       ___scrt_stub_for_acrt_uninitialize 100cb9e8 f   MSVCRT:ucrt_stubs.obj
 0001:000ca9e8       ___acrt_initialize         100cb9e8 f   MSVCRT:ucrt_stubs.obj
 0001:000ca9e8       ___acrt_uninitialize       100cb9e8 f   MSVCRT:ucrt_stubs.obj
 0001:000ca9e8       ___acrt_uninitialize_critical 100cb9e8 f   MSVCRT:ucrt_stubs.obj
 0001:000ca9e8       ___acrt_thread_detach      100cb9e8 f   MSVCRT:ucrt_stubs.obj
 0001:000ca9e8       ___vcrt_thread_attach      100cb9e8 f   MSVCRT:ucrt_stubs.obj
 0001:000ca9e8       ___vcrt_thread_detach      100cb9e8 f   MSVCRT:ucrt_stubs.obj
 0001:000ca9e8       ___vcrt_uninitialize       100cb9e8 f   MSVCRT:ucrt_stubs.obj
 0001:000d11e0       ??__Finst@?1??instance@?$singleton@VCCSGrenadeHint@@@@SAAAVCCSGrenadeHint@@XZ@YAXXZ 100d21e0 f i ESP.obj
 0001:000d1450       ??__Fdlog@?1??on_fire_DMG@item_purchase@@QAEXPAVIGameEvent@@_N@Z@YAXXZ 100d2450 f i Hooks.obj
 0001:000d14e0       ??__Finst@?1??instance@?$singleton@VCSkin@@@@SAAAVCSkin@@XZ@YAXXZ 100d24e0 f i Hooks.obj
 0001:000d14f0       ??__Finst@?1??instance@?$singleton@Vlegitbot@@@@SAAAVlegitbot@@XZ@YAXXZ 100d24f0 f i Hooks.obj
 0001:000d1500       ??__Finst@?1??instance@?$singleton@Vmisc@@@@SAAAVmisc@@XZ@YAXXZ 100d2500 f i Hooks.obj
 0001:000d1510       ??__Finst@?1??instance@?$singleton@Vragebot@@@@SAAAVragebot@@XZ@YAXXZ 100d2510 f i Hooks.obj
 0001:000d1520       ??__Finst@?1??instance@?$singleton@Vvisuals@@@@SAAAVvisuals@@XZ@YAXXZ 100d2520 f i Hooks.obj
 0001:000d15b0       ??__Fwlog@?1??on_fire_weapons@item_purchase@@QAEXPAVIGameEvent@@_N@Z@YAXXZ 100d25b0 f i Hooks.obj
 0002:00000000       __imp__RegOpenKeyExA@20    100d3000     advapi32:ADVAPI32.dll
 0002:00000004       __imp__RegQueryValueExA@24 100d3004     advapi32:ADVAPI32.dll
 0002:00000008       __imp__GetCurrentHwProfileA@4 100d3008     advapi32:ADVAPI32.dll
 0002:0000000c       \177ADVAPI32_NULL_THUNK_DATA 100d300c     advapi32:ADVAPI32.dll
 0002:00000010       __imp__ImmGetContext@4     100d3010     imm32:IMM32.dll
 0002:00000014       __imp__ImmSetCompositionWindow@8 100d3014     imm32:IMM32.dll
 0002:00000018       \177IMM32_NULL_THUNK_DATA  100d3018     imm32:IMM32.dll
 0002:0000001c       __imp__GetLastError@0      100d301c     kernel32:KERNEL32.dll
 0002:00000020       __imp__WaitForSingleObject@8 100d3020     kernel32:KERNEL32.dll
 0002:00000024       __imp__CreateEventA@16     100d3024     kernel32:KERNEL32.dll
 0002:00000028       __imp__GetTickCount@0      100d3028     kernel32:KERNEL32.dll
 0002:0000002c       __imp__VirtualQuery@12     100d302c     kernel32:KERNEL32.dll
 0002:00000030       __imp__GetModuleFileNameA@12 100d3030     kernel32:KERNEL32.dll
 0002:00000034       __imp__MultiByteToWideChar@24 100d3034     kernel32:KERNEL32.dll
 0002:00000038       __imp__QueryPerformanceCounter@4 100d3038     kernel32:KERNEL32.dll
 0002:0000003c       __imp__QueryPerformanceFrequency@4 100d303c     kernel32:KERNEL32.dll
 0002:00000040       __imp__GlobalAlloc@8       100d3040     kernel32:KERNEL32.dll
 0002:00000044       __imp__GlobalUnlock@4      100d3044     kernel32:KERNEL32.dll
 0002:00000048       __imp__GlobalLock@4        100d3048     kernel32:KERNEL32.dll
 0002:0000004c       __imp__GetModuleHandleW@4  100d304c     kernel32:KERNEL32.dll
 0002:00000050       __imp__GetVolumeInformationA@32 100d3050     kernel32:KERNEL32.dll
 0002:00000054       __imp__Sleep@4             100d3054     kernel32:KERNEL32.dll
 0002:00000058       __imp__CreateThread@24     100d3058     kernel32:KERNEL32.dll
 0002:0000005c       __imp__FreeLibraryAndExitThread@8 100d305c     kernel32:KERNEL32.dll
 0002:00000060       __imp__GetTickCount64@0    100d3060     kernel32:KERNEL32.dll
 0002:00000064       __imp__CreateDirectoryW@8  100d3064     kernel32:KERNEL32.dll
 0002:00000068       __imp__FindClose@4         100d3068     kernel32:KERNEL32.dll
 0002:0000006c       __imp__FindFirstFileA@8    100d306c     kernel32:KERNEL32.dll
 0002:00000070       __imp__K32GetModuleInformation@16 100d3070     kernel32:KERNEL32.dll
 0002:00000074       __imp__GetFullPathNameA@16 100d3074     kernel32:KERNEL32.dll
 0002:00000078       __imp__GetProcAddress@8    100d3078     kernel32:KERNEL32.dll
 0002:0000007c       __imp__VirtualProtect@16   100d307c     kernel32:KERNEL32.dll
 0002:00000080       __imp__GetSystemTimeAsFileTime@4 100d3080     kernel32:KERNEL32.dll
 0002:00000084       __imp__GetCurrentThreadId@0 100d3084     kernel32:KERNEL32.dll
 0002:00000088       __imp__GetCurrentProcessId@0 100d3088     kernel32:KERNEL32.dll
 0002:0000008c       __imp__IsDebuggerPresent@0 100d308c     kernel32:KERNEL32.dll
 0002:00000090       __imp__CreateEventW@16     100d3090     kernel32:KERNEL32.dll
 0002:00000094       __imp__WaitForSingleObjectEx@12 100d3094     kernel32:KERNEL32.dll
 0002:00000098       __imp__ResetEvent@4        100d3098     kernel32:KERNEL32.dll
 0002:0000009c       __imp__SetEvent@4          100d309c     kernel32:KERNEL32.dll
 0002:000000a0       __imp__DeleteCriticalSection@4 100d30a0     kernel32:KERNEL32.dll
 0002:000000a4       __imp__InitializeCriticalSectionAndSpinCount@8 100d30a4     kernel32:KERNEL32.dll
 0002:000000a8       __imp__LeaveCriticalSection@4 100d30a8     kernel32:KERNEL32.dll
 0002:000000ac       __imp__EnterCriticalSection@4 100d30ac     kernel32:KERNEL32.dll
 0002:000000b0       __imp__IsProcessorFeaturePresent@4 100d30b0     kernel32:KERNEL32.dll
 0002:000000b4       __imp__lstrlenA@4          100d30b4     kernel32:KERNEL32.dll
 0002:000000b8       __imp__GetModuleHandleA@4  100d30b8     kernel32:KERNEL32.dll
 0002:000000bc       __imp__GetCurrentProcess@0 100d30bc     kernel32:KERNEL32.dll
 0002:000000c0       __imp__WritePrivateProfileStringA@16 100d30c0     kernel32:KERNEL32.dll
 0002:000000c4       __imp__TerminateProcess@8  100d30c4     kernel32:KERNEL32.dll
 0002:000000c8       __imp__SetUnhandledExceptionFilter@4 100d30c8     kernel32:KERNEL32.dll
 0002:000000cc       __imp__UnhandledExceptionFilter@4 100d30cc     kernel32:KERNEL32.dll
 0002:000000d0       __imp__InitializeSListHead@4 100d30d0     kernel32:KERNEL32.dll
 0002:000000d4       __imp__CloseHandle@4       100d30d4     kernel32:KERNEL32.dll
 0002:000000d8       __imp__FindNextFileA@8     100d30d8     kernel32:KERNEL32.dll
 0002:000000dc       __imp__GetPrivateProfileStringA@24 100d30dc     kernel32:KERNEL32.dll
 0002:000000e0       \177KERNEL32_NULL_THUNK_DATA 100d30e0     kernel32:KERNEL32.dll
 0002:000000e4       __imp_?_Xout_of_range@std@@YAXPBD@Z 100d30e4     msvcprt:MSVCP140.dll
 0002:000000e8       __imp_??Bid@locale@std@@QAEIXZ 100d30e8     msvcprt:MSVCP140.dll
 0002:000000ec       __imp_?_Getgloballocale@locale@std@@CAPAV_Locimp@12@XZ 100d30ec     msvcprt:MSVCP140.dll
 0002:000000f0       __imp_?always_noconv@codecvt_base@std@@QBE_NXZ 100d30f0     msvcprt:MSVCP140.dll
 0002:000000f4       __imp_?in@?$codecvt@DDU_Mbstatet@@@std@@QBEHAAU_Mbstatet@@PBD1AAPBDPAD3AAPAD@Z 100d30f4     msvcprt:MSVCP140.dll
 0002:000000f8       __imp_?out@?$codecvt@DDU_Mbstatet@@@std@@QBEHAAU_Mbstatet@@PBD1AAPBDPAD3AAPAD@Z 100d30f8     msvcprt:MSVCP140.dll
 0002:000000fc       __imp_?unshift@?$codecvt@DDU_Mbstatet@@@std@@QBEHAAU_Mbstatet@@PAD1AAPAD@Z 100d30fc     msvcprt:MSVCP140.dll
 0002:00000100       __imp_?_Getcat@?$codecvt@DDU_Mbstatet@@@std@@SAIPAPBVfacet@locale@2@PBV42@@Z 100d3100     msvcprt:MSVCP140.dll
 0002:00000104       __imp_??0?$basic_streambuf@DU?$char_traits@D@std@@@std@@IAE@XZ 100d3104     msvcprt:MSVCP140.dll
 0002:00000108       __imp_??1?$basic_streambuf@DU?$char_traits@D@std@@@std@@UAE@XZ 100d3108     msvcprt:MSVCP140.dll
 0002:0000010c       __imp_?getloc@?$basic_streambuf@DU?$char_traits@D@std@@@std@@QBE?AVlocale@2@XZ 100d310c     msvcprt:MSVCP140.dll
 0002:00000110       __imp_?sputc@?$basic_streambuf@DU?$char_traits@D@std@@@std@@QAEHD@Z 100d3110     msvcprt:MSVCP140.dll
 0002:00000114       __imp_?sputn@?$basic_streambuf@DU?$char_traits@D@std@@@std@@QAE_JPBD_J@Z 100d3114     msvcprt:MSVCP140.dll
 0002:00000118       __imp_?_Pninc@?$basic_streambuf@DU?$char_traits@D@std@@@std@@IAEPADXZ 100d3118     msvcprt:MSVCP140.dll
 0002:0000011c       __imp_?_Init@?$basic_streambuf@DU?$char_traits@D@std@@@std@@IAEXXZ 100d311c     msvcprt:MSVCP140.dll
 0002:00000120       __imp_?xsgetn@?$basic_streambuf@DU?$char_traits@D@std@@@std@@MAE_JPAD_J@Z 100d3120     msvcprt:MSVCP140.dll
 0002:00000124       __imp_?xsputn@?$basic_streambuf@DU?$char_traits@D@std@@@std@@MAE_JPBD_J@Z 100d3124     msvcprt:MSVCP140.dll
 0002:00000128       __imp_??1?$basic_ios@DU?$char_traits@D@std@@@std@@UAE@XZ 100d3128     msvcprt:MSVCP140.dll
 0002:0000012c       __imp_?clear@?$basic_ios@DU?$char_traits@D@std@@@std@@QAEXH_N@Z 100d312c     msvcprt:MSVCP140.dll
 0002:00000130       __imp_?setstate@?$basic_ios@DU?$char_traits@D@std@@@std@@QAEXH_N@Z 100d3130     msvcprt:MSVCP140.dll
 0002:00000134       __imp_?widen@?$basic_ios@DU?$char_traits@D@std@@@std@@QBEDD@Z 100d3134     msvcprt:MSVCP140.dll
 0002:00000138       __imp_??0?$basic_ios@DU?$char_traits@D@std@@@std@@IAE@XZ 100d3138     msvcprt:MSVCP140.dll
 0002:0000013c       __imp_??0?$basic_ostream@DU?$char_traits@D@std@@@std@@QAE@PAV?$basic_streambuf@DU?$char_traits@D@std@@@1@_N@Z 100d313c     msvcprt:MSVCP140.dll
 0002:00000140       __imp_??1?$basic_ostream@DU?$char_traits@D@std@@@std@@UAE@XZ 100d3140     msvcprt:MSVCP140.dll
 0002:00000144       __imp_?_Osfx@?$basic_ostream@DU?$char_traits@D@std@@@std@@QAEXXZ 100d3144     msvcprt:MSVCP140.dll
 0002:00000148       __imp_??6?$basic_ostream@DU?$char_traits@D@std@@@std@@QAEAAV01@P6AAAV01@AAV01@@Z@Z 100d3148     msvcprt:MSVCP140.dll
 0002:0000014c       __imp_?put@?$basic_ostream@DU?$char_traits@D@std@@@std@@QAEAAV12@D@Z 100d314c     msvcprt:MSVCP140.dll
 0002:00000150       __imp_?flush@?$basic_ostream@DU?$char_traits@D@std@@@std@@QAEAAV12@XZ 100d3150     msvcprt:MSVCP140.dll
 0002:00000154       __imp_?_Fiopen@std@@YAPAU_iobuf@@PBDHH@Z 100d3154     msvcprt:MSVCP140.dll
 0002:00000158       __imp_?id@?$codecvt@DDU_Mbstatet@@@std@@2V0locale@2@A 100d3158     msvcprt:MSVCP140.dll
 0002:0000015c       __imp_?_Xinvalid_argument@std@@YAXPBD@Z 100d315c     msvcprt:MSVCP140.dll
 0002:00000160       __imp___Query_perf_counter 100d3160     msvcprt:MSVCP140.dll
 0002:00000164       __imp___Query_perf_frequency 100d3164     msvcprt:MSVCP140.dll
 0002:00000168       __imp_??4?$_Yarn@D@std@@QAEAAV01@PBD@Z 100d3168     msvcprt:MSVCP140.dll
 0002:0000016c       __imp_?_New_Locimp@_Locimp@locale@std@@CAPAV123@ABV123@@Z 100d316c     msvcprt:MSVCP140.dll
 0002:00000170       __imp_?_Locimp_Addfac@_Locimp@locale@std@@CAXPAV123@PAVfacet@23@I@Z 100d3170     msvcprt:MSVCP140.dll
 0002:00000174       __imp_?_Init@locale@std@@CAPAV_Locimp@12@_N@Z 100d3174     msvcprt:MSVCP140.dll
 0002:00000178       __imp_?out@?$codecvt@_WDU_Mbstatet@@@std@@QBEHAAU_Mbstatet@@PB_W1AAPB_WPAD3AAPAD@Z 100d3178     msvcprt:MSVCP140.dll
 0002:0000017c       __imp_??0?$codecvt@_WDU_Mbstatet@@@std@@QAE@I@Z 100d317c     msvcprt:MSVCP140.dll
 0002:00000180       __imp_??1?$codecvt@_WDU_Mbstatet@@@std@@MAE@XZ 100d3180     msvcprt:MSVCP140.dll
 0002:00000184       __imp_?_Decref@facet@locale@std@@UAEPAV_Facet_base@3@XZ 100d3184     msvcprt:MSVCP140.dll
 0002:00000188       __imp_?_Incref@facet@locale@std@@UAEXXZ 100d3188     msvcprt:MSVCP140.dll
 0002:0000018c       __imp_?id@?$codecvt@_WDU_Mbstatet@@@std@@2V0locale@2@A 100d318c     msvcprt:MSVCP140.dll
 0002:00000190       __imp_?_Xlength_error@std@@YAXPBD@Z 100d3190     msvcprt:MSVCP140.dll
 0002:00000194       __imp_??1_Lockit@std@@QAE@XZ 100d3194     msvcprt:MSVCP140.dll
 0002:00000198       __imp_??0_Lockit@std@@QAE@H@Z 100d3198     msvcprt:MSVCP140.dll
 0002:0000019c       __imp_?showmanyc@?$basic_streambuf@DU?$char_traits@D@std@@@std@@MAE_JXZ 100d319c     msvcprt:MSVCP140.dll
 0002:000001a0       __imp_?uncaught_exception@std@@YA_NXZ 100d31a0     msvcprt:MSVCP140.dll
 0002:000001a4       \177MSVCP140_NULL_THUNK_DATA 100d31a4     msvcprt:MSVCP140.dll
 0002:000001a8       __imp__SysAllocStringLen@8 100d31a8     oleaut32:OLEAUT32.dll
 0002:000001ac       __imp__SysFreeString@4     100d31ac     oleaut32:OLEAUT32.dll
 0002:000001b0       \177OLEAUT32_NULL_THUNK_DATA 100d31b0     oleaut32:OLEAUT32.dll
 0002:000001b4       __imp__GetClipboardData@4  100d31b4     user32:USER32.dll
 0002:000001b8       __imp__EmptyClipboard@0    100d31b8     user32:USER32.dll
 0002:000001bc       __imp__SetClipboardData@8  100d31bc     user32:USER32.dll
 0002:000001c0       __imp__CloseClipboard@0    100d31c0     user32:USER32.dll
 0002:000001c4       __imp__OpenClipboard@4     100d31c4     user32:USER32.dll
 0002:000001c8       __imp__SetCursor@4         100d31c8     user32:USER32.dll
 0002:000001cc       __imp__GetClientRect@8     100d31cc     user32:USER32.dll
 0002:000001d0       __imp__GetKeyState@4       100d31d0     user32:USER32.dll
 0002:000001d4       __imp__FindWindowA@8       100d31d4     user32:USER32.dll
 0002:000001d8       __imp__SetWindowLongA@12   100d31d8     user32:USER32.dll
 0002:000001dc       __imp__GetAsyncKeyState@4  100d31dc     user32:USER32.dll
 0002:000001e0       __imp__CallWindowProcA@20  100d31e0     user32:USER32.dll
 0002:000001e4       \177USER32_NULL_THUNK_DATA 100d31e4     user32:USER32.dll
 0002:000001e8       __imp___purecall           100d31e8     vcruntime:VCRUNTIME140.dll
 0002:000001ec       __imp__strstr              100d31ec     vcruntime:VCRUNTIME140.dll
 0002:000001f0       __imp__strchr              100d31f0     vcruntime:VCRUNTIME140.dll
 0002:000001f4       __imp__memchr              100d31f4     vcruntime:VCRUNTIME140.dll
 0002:000001f8       __imp___except_handler4_common 100d31f8     vcruntime:VCRUNTIME140.dll
 0002:000001fc       __imp____std_exception_destroy 100d31fc     vcruntime:VCRUNTIME140.dll
 0002:00000200       __imp____std_exception_copy 100d3200     vcruntime:VCRUNTIME140.dll
 0002:00000204       __imp__memset              100d3204     vcruntime:VCRUNTIME140.dll
 0002:00000208       __imp__memmove             100d3208     vcruntime:VCRUNTIME140.dll
 0002:0000020c       __imp___CxxThrowException@8 100d320c     vcruntime:VCRUNTIME140.dll
 0002:00000210       __imp__memcpy              100d3210     vcruntime:VCRUNTIME140.dll
 0002:00000214       __imp____CxxFrameHandler3  100d3214     vcruntime:VCRUNTIME140.dll
 0002:00000218       __imp____std_type_info_destroy_list 100d3218     vcruntime:VCRUNTIME140.dll
 0002:0000021c       __imp____std_terminate     100d321c     vcruntime:VCRUNTIME140.dll
 0002:00000220       \177VCRUNTIME140_NULL_THUNK_DATA 100d3220     vcruntime:VCRUNTIME140.dll
 0002:00000224       __imp__PlaySoundA@12       100d3224     winmm:WINMM.dll
 0002:00000228       \177WINMM_NULL_THUNK_DATA  100d3228     winmm:WINMM.dll
 0002:0000022c       __imp__strtoul             100d322c     ucrt:api-ms-win-crt-convert-l1-1-0.dll
 0002:00000230       __imp__strtol              100d3230     ucrt:api-ms-win-crt-convert-l1-1-0.dll
 0002:00000234       __imp__atof                100d3234     ucrt:api-ms-win-crt-convert-l1-1-0.dll
 0002:00000238       __imp__atoi                100d3238     ucrt:api-ms-win-crt-convert-l1-1-0.dll
 0002:0000023c       __imp__mbstowcs_s          100d323c     ucrt:api-ms-win-crt-convert-l1-1-0.dll
 0002:00000240       \177api-ms-win-crt-convert-l1-1-0_NULL_THUNK_DATA 100d3240     ucrt:api-ms-win-crt-convert-l1-1-0.dll
 0002:00000244       __imp___lock_file          100d3244     ucrt:api-ms-win-crt-filesystem-l1-1-0.dll
 0002:00000248       __imp___unlock_file        100d3248     ucrt:api-ms-win-crt-filesystem-l1-1-0.dll
 0002:0000024c       \177api-ms-win-crt-filesystem-l1-1-0_NULL_THUNK_DATA 100d324c     ucrt:api-ms-win-crt-filesystem-l1-1-0.dll
 0002:00000250       __imp__malloc              100d3250     ucrt:api-ms-win-crt-heap-l1-1-0.dll
 0002:00000254       __imp___callnewh           100d3254     ucrt:api-ms-win-crt-heap-l1-1-0.dll
 0002:00000258       __imp__free                100d3258     ucrt:api-ms-win-crt-heap-l1-1-0.dll
 0002:0000025c       \177api-ms-win-crt-heap-l1-1-0_NULL_THUNK_DATA 100d325c     ucrt:api-ms-win-crt-heap-l1-1-0.dll
 0002:00000260       __imp___fdtest             100d3260     ucrt:api-ms-win-crt-math-l1-1-0.dll
 0002:00000264       __imp___except1            100d3264     ucrt:api-ms-win-crt-math-l1-1-0.dll
 0002:00000268       __imp___CIfmod             100d3268     ucrt:api-ms-win-crt-math-l1-1-0.dll
 0002:0000026c       __imp___libm_sse2_pow_precise 100d326c     ucrt:api-ms-win-crt-math-l1-1-0.dll
 0002:00000270       __imp___libm_sse2_cos_precise 100d3270     ucrt:api-ms-win-crt-math-l1-1-0.dll
 0002:00000274       __imp__copysign            100d3274     ucrt:api-ms-win-crt-math-l1-1-0.dll
 0002:00000278       __imp___libm_sse2_sqrt_precise 100d3278     ucrt:api-ms-win-crt-math-l1-1-0.dll
 0002:0000027c       __imp__ceil                100d327c     ucrt:api-ms-win-crt-math-l1-1-0.dll
 0002:00000280       __imp__floor               100d3280     ucrt:api-ms-win-crt-math-l1-1-0.dll
 0002:00000284       __imp__fmaxf               100d3284     ucrt:api-ms-win-crt-math-l1-1-0.dll
 0002:00000288       __imp__hypot               100d3288     ucrt:api-ms-win-crt-math-l1-1-0.dll
 0002:0000028c       __imp___libm_sse2_atan_precise 100d328c     ucrt:api-ms-win-crt-math-l1-1-0.dll
 0002:00000290       __imp___libm_sse2_exp_precise 100d3290     ucrt:api-ms-win-crt-math-l1-1-0.dll
 0002:00000294       __imp___libm_sse2_asin_precise 100d3294     ucrt:api-ms-win-crt-math-l1-1-0.dll
 0002:00000298       __imp___libm_sse2_acos_precise 100d3298     ucrt:api-ms-win-crt-math-l1-1-0.dll
 0002:0000029c       __imp___CIatan2            100d329c     ucrt:api-ms-win-crt-math-l1-1-0.dll
 0002:000002a0       __imp___libm_sse2_sin_precise 100d32a0     ucrt:api-ms-win-crt-math-l1-1-0.dll
 0002:000002a4       \177api-ms-win-crt-math-l1-1-0_NULL_THUNK_DATA 100d32a4     ucrt:api-ms-win-crt-math-l1-1-0.dll
 0002:000002a8       __imp___initterm_e         100d32a8     ucrt:api-ms-win-crt-runtime-l1-1-0.dll
 0002:000002ac       __imp___errno              100d32ac     ucrt:api-ms-win-crt-runtime-l1-1-0.dll
 0002:000002b0       __imp___initterm           100d32b0     ucrt:api-ms-win-crt-runtime-l1-1-0.dll
 0002:000002b4       __imp__terminate           100d32b4     ucrt:api-ms-win-crt-runtime-l1-1-0.dll
 0002:000002b8       __imp___invalid_parameter_noinfo_noreturn 100d32b8     ucrt:api-ms-win-crt-runtime-l1-1-0.dll
 0002:000002bc       __imp___cexit              100d32bc     ucrt:api-ms-win-crt-runtime-l1-1-0.dll
 0002:000002c0       __imp___crt_atexit         100d32c0     ucrt:api-ms-win-crt-runtime-l1-1-0.dll
 0002:000002c4       __imp___execute_onexit_table 100d32c4     ucrt:api-ms-win-crt-runtime-l1-1-0.dll
 0002:000002c8       __imp___register_onexit_function 100d32c8     ucrt:api-ms-win-crt-runtime-l1-1-0.dll
 0002:000002cc       __imp___initialize_onexit_table 100d32cc     ucrt:api-ms-win-crt-runtime-l1-1-0.dll
 0002:000002d0       __imp___initialize_narrow_environment 100d32d0     ucrt:api-ms-win-crt-runtime-l1-1-0.dll
 0002:000002d4       __imp___configure_narrow_argv 100d32d4     ucrt:api-ms-win-crt-runtime-l1-1-0.dll
 0002:000002d8       __imp___seh_filter_dll     100d32d8     ucrt:api-ms-win-crt-runtime-l1-1-0.dll
 0002:000002dc       \177api-ms-win-crt-runtime-l1-1-0_NULL_THUNK_DATA 100d32dc     ucrt:api-ms-win-crt-runtime-l1-1-0.dll
 0002:000002e0       __imp___wfopen             100d32e0     ucrt:api-ms-win-crt-stdio-l1-1-0.dll
 0002:000002e4       __imp__fgetpos             100d32e4     ucrt:api-ms-win-crt-stdio-l1-1-0.dll
 0002:000002e8       __imp____stdio_common_vsnprintf_s 100d32e8     ucrt:api-ms-win-crt-stdio-l1-1-0.dll
 0002:000002ec       __imp__fseek               100d32ec     ucrt:api-ms-win-crt-stdio-l1-1-0.dll
 0002:000002f0       __imp__setvbuf             100d32f0     ucrt:api-ms-win-crt-stdio-l1-1-0.dll
 0002:000002f4       __imp__fgetc               100d32f4     ucrt:api-ms-win-crt-stdio-l1-1-0.dll
 0002:000002f8       __imp__fflush              100d32f8     ucrt:api-ms-win-crt-stdio-l1-1-0.dll
 0002:000002fc       __imp__fclose              100d32fc     ucrt:api-ms-win-crt-stdio-l1-1-0.dll
 0002:00000300       __imp__ftell               100d3300     ucrt:api-ms-win-crt-stdio-l1-1-0.dll
 0002:00000304       __imp____stdio_common_vfprintf 100d3304     ucrt:api-ms-win-crt-stdio-l1-1-0.dll
 0002:00000308       __imp____acrt_iob_func     100d3308     ucrt:api-ms-win-crt-stdio-l1-1-0.dll
 0002:0000030c       __imp____stdio_common_vsprintf 100d330c     ucrt:api-ms-win-crt-stdio-l1-1-0.dll
 0002:00000310       __imp____stdio_common_vsprintf_s 100d3310     ucrt:api-ms-win-crt-stdio-l1-1-0.dll
 0002:00000314       __imp__fopen               100d3314     ucrt:api-ms-win-crt-stdio-l1-1-0.dll
 0002:00000318       __imp__fputc               100d3318     ucrt:api-ms-win-crt-stdio-l1-1-0.dll
 0002:0000031c       __imp____stdio_common_vsscanf 100d331c     ucrt:api-ms-win-crt-stdio-l1-1-0.dll
 0002:00000320       __imp__fread               100d3320     ucrt:api-ms-win-crt-stdio-l1-1-0.dll
 0002:00000324       __imp__fwrite              100d3324     ucrt:api-ms-win-crt-stdio-l1-1-0.dll
 0002:00000328       __imp__fsetpos             100d3328     ucrt:api-ms-win-crt-stdio-l1-1-0.dll
 0002:0000032c       __imp___fseeki64           100d332c     ucrt:api-ms-win-crt-stdio-l1-1-0.dll
 0002:00000330       __imp__ungetc              100d3330     ucrt:api-ms-win-crt-stdio-l1-1-0.dll
 0002:00000334       __imp___get_stream_buffer_pointers 100d3334     ucrt:api-ms-win-crt-stdio-l1-1-0.dll
 0002:00000338       \177api-ms-win-crt-stdio-l1-1-0_NULL_THUNK_DATA 100d3338     ucrt:api-ms-win-crt-stdio-l1-1-0.dll
 0002:0000033c       __imp__isprint             100d333c     ucrt:api-ms-win-crt-string-l1-1-0.dll
 0002:00000340       __imp__strncpy             100d3340     ucrt:api-ms-win-crt-string-l1-1-0.dll
 0002:00000344       __imp__strncmp             100d3344     ucrt:api-ms-win-crt-string-l1-1-0.dll
 0002:00000348       __imp__strcat_s            100d3348     ucrt:api-ms-win-crt-string-l1-1-0.dll
 0002:0000034c       __imp__strcpy_s            100d334c     ucrt:api-ms-win-crt-string-l1-1-0.dll
 0002:00000350       __imp__toupper             100d3350     ucrt:api-ms-win-crt-string-l1-1-0.dll
 0002:00000354       __imp__towlower            100d3354     ucrt:api-ms-win-crt-string-l1-1-0.dll
 0002:00000358       __imp__tolower             100d3358     ucrt:api-ms-win-crt-string-l1-1-0.dll
 0002:0000035c       __imp___stricmp            100d335c     ucrt:api-ms-win-crt-string-l1-1-0.dll
 0002:00000360       \177api-ms-win-crt-string-l1-1-0_NULL_THUNK_DATA 100d3360     ucrt:api-ms-win-crt-string-l1-1-0.dll
 0002:00000364       __imp__strftime            100d3364     ucrt:api-ms-win-crt-time-l1-1-0.dll
 0002:00000368       __imp___time64             100d3368     ucrt:api-ms-win-crt-time-l1-1-0.dll
 0002:0000036c       __imp___localtime64        100d336c     ucrt:api-ms-win-crt-time-l1-1-0.dll
 0002:00000370       \177api-ms-win-crt-time-l1-1-0_NULL_THUNK_DATA 100d3370     ucrt:api-ms-win-crt-time-l1-1-0.dll
 0002:00000374       __imp__rand                100d3374     ucrt:api-ms-win-crt-utility-l1-1-0.dll
 0002:00000378       __imp__srand               100d3378     ucrt:api-ms-win-crt-utility-l1-1-0.dll
 0002:0000037c       __imp__qsort               100d337c     ucrt:api-ms-win-crt-utility-l1-1-0.dll
 0002:00000380       \177api-ms-win-crt-utility-l1-1-0_NULL_THUNK_DATA 100d3380     ucrt:api-ms-win-crt-utility-l1-1-0.dll
 0002:00000384       ___guard_check_icall_fptr  100d3384     MSVCRT:guard_support.obj
 0002:00000388       ___xc_a                    100d3388     MSVCRT:initializers.obj
 0002:0000049c       ___xc_z                    100d349c     MSVCRT:initializers.obj
 0002:000004a0       ___xi_a                    100d34a0     MSVCRT:initializers.obj
 0002:000004a8       ___xi_z                    100d34a8     MSVCRT:initializers.obj
 0002:000004ac       ___xl_a                    100d34ac     MSVCRT:tlssup.obj
 0002:000004b0       ___xl_z                    100d34b0     MSVCRT:tlssup.obj
 0002:000004b4       ___xp_a                    100d34b4     MSVCRT:initializers.obj
 0002:000004b8       ___xp_z                    100d34b8     MSVCRT:initializers.obj
 0002:000004bc       ___xt_a                    100d34bc     MSVCRT:initializers.obj
 0002:000004c0       ___xt_z                    100d34c0     MSVCRT:initializers.obj
 0002:000004d0       __real@437f0000            100d34d0     Color2.obj
 0002:000004e0       ??_C@_02NJPGOMH@?$CFf@     100d34e0     CSX_Cvar.obj
 0002:000004e4       ??_C@_0BA@JFNIOLAK@string?5too?5long@ 100d34e4     CSX_Cvar.obj
 0002:000004f4       ??_C@_0BI@CFPLBAOH@invalid?5string?5position@ 100d34f4     CSX_Log.obj
 0002:00000528       ??_7?$basic_filebuf@DU?$char_traits@D@std@@@std@@6B@ 100d3528     CSX_Log.obj
 0002:00000568       ??_7?$basic_ofstream@DU?$char_traits@D@std@@@std@@6B@ 100d3568     CSX_Log.obj
 0002:0000056c       ??_8?$basic_ofstream@DU?$char_traits@D@std@@@std@@7B@ 100d356c     CSX_Log.obj
 0002:00000578       ??_7exception@std@@6B@     100d3578     CSX_Log.obj
 0002:00000580       ??_C@_0BC@EOODALEL@Unknown?5exception@ 100d3580     CSX_Log.obj
 0002:00000598       ??_7bad_cast@std@@6B@      100d3598     CSX_Log.obj
 0002:000005a0       ??_C@_08EPJLHIJG@bad?5cast@ 100d35a0     CSX_Log.obj
 0002:000005b8       ??_C@_0BD@OLBABOEK@vector?$DMT?$DO?5too?5long@ 100d35b8     CSX_Memory.obj
 0002:0007d980       ??_C@_0BE@JONHPENG@map?1set?$DMT?$DO?5too?5long@ 10150980     Gui.obj
 0002:0007d994       ??_C@_0BM@NMJKDPPO@invalid?5vector?$DMT?$DO?5subscript@ 10150994     Gui.obj
 0002:0007d9b0       __real@00000000            101509b0     Gui.obj
 0002:0007d9b4       __real@3b808081            101509b4     Gui.obj
 0002:0007d9b8       __real@3f000000            101509b8     Gui.obj
 0002:0007d9bc       __real@3f4ccccd            101509bc     Gui.obj
 0002:0007d9c0       __xmm@000000003d75c28f0000000000000000 101509c0     Gui.obj
 0002:0007d9d0       __xmm@000000003e4ccccd3ef0a3d73efae148 101509d0     Gui.obj
 0002:0007d9e0       __xmm@000000003e4ccccd3efae1483ebd70a4 101509e0     Gui.obj
 0002:0007d9f0       __xmm@000000003ea8f5c33ea8f5c33eb33333 101509f0     Gui.obj
 0002:0007da00       __xmm@000000003eb851ec3e428f5c3e0f5c29 10150a00     Gui.obj
 0002:0007da10       __xmm@000000003ec7ae143e4ccccd3e8a3d71 10150a10     Gui.obj
 0002:0007da20       __xmm@000000003ec7ae143e99999a3e4ccccd 10150a20     Gui.obj
 0002:0007da30       __xmm@000000003efae1483e8a3d713e4ccccd 10150a30     Gui.obj
 0002:0007da40       __xmm@000000003f6147ae3f68f5c33f6b851f 10150a40     Gui.obj
 0002:0007da50       __xmm@3cf5c28f3d75c28f000000003f266666 10150a50     Gui.obj
 0002:0007da60       __xmm@3da3d70a000000000000000000000000 10150a60     Gui.obj
 0002:0007da70       __xmm@3dcccccd3f8000003f8000003f800000 10150a70     Gui.obj
 0002:0007da80       __xmm@3e23d70a3ec28f5c3ec7ae143ecccccd 10150a80     Gui.obj
 0002:0007da90       __xmm@3e23d70a3f59999a3f59999a3f6b851f 10150a90     Gui.obj
 0002:0007daa0       __xmm@3e23d70a3f59999a3f6b851f3f63d70a 10150aa0     Gui.obj
 0002:0007dab0       __xmm@3e23d70a3f59999a3f6b851f3f6b851f 10150ab0     Gui.obj
 0002:0007dac0       __xmm@3e23d70a3f6b851f3f59999a3f5eb852 10150ac0     Gui.obj
 0002:0007dad0       __xmm@3e23d70a3f6b851f3f5eb8523f59999a 10150ad0     Gui.obj
 0002:0007dae0       __xmm@3e23d70a3f6b851f3f63d70a3f59999a 10150ae0     Gui.obj
 0002:0007daf0       __xmm@3e4ccccd3e2e147b3f4000003f47ae14 10150af0     Gui.obj
 0002:0007db00       __xmm@3e4ccccd3e2e147b3f47ae143f07ae14 10150b00     Gui.obj
 0002:0007db10       __xmm@3e4ccccd3efae1483e428f5c3dcccccd 10150b10     Gui.obj
 0002:0007db20       __xmm@3e4ccccd3f2147ae3e428f5c3eae147b 10150b20     Gui.obj
 0002:0007db30       __xmm@3e4ccccd3f2147ae3edc28f63e428f5c 10150b30     Gui.obj
 0002:0007db40       __xmm@3e4ccccd3f47ae143e9eb8523e2e147b 10150b40     Gui.obj
 0002:0007db50       __xmm@3e4ccccd3f6666663e80000000000000 10150b50     Gui.obj
 0002:0007db60       __xmm@3e4ccccd3f70a3d73f70a3d73f828f5c 10150b60     Gui.obj
 0002:0007db70       __xmm@3e75c28f3e2e147b3f4000003f47ae14 10150b70     Gui.obj
 0002:0007db80       __xmm@3e75c28f3e2e147b3f47ae143f07ae14 10150b80     Gui.obj
 0002:0007db90       __xmm@3e75c28f3efae1483e428f5c3dcccccd 10150b90     Gui.obj
 0002:0007dba0       __xmm@3e75c28f3f2147ae3e428f5c3eae147b 10150ba0     Gui.obj
 0002:0007dbb0       __xmm@3e75c28f3f47ae143e9eb8523e2e147b 10150bb0     Gui.obj
 0002:0007dbc0       __xmm@3e75c28f3f70a3d73f70a3d73f828f5c 10150bc0     Gui.obj
 0002:0007dbd0       __xmm@3e99999a3f4ccccd3ecccccd3ecccccd 10150bd0     Gui.obj
 0002:0007dbe0       __xmm@3e99999a3f59999a3f6b851f3f63d70a 10150be0     Gui.obj
 0002:0007dbf0       __xmm@3e99999a3f59999a3f6b851f3f6b851f 10150bf0     Gui.obj
 0002:0007dc00       __xmm@3e99999a3f5c28f63f5c28f63f5c28f6 10150c00     Gui.obj
 0002:0007dc10       __xmm@3e99999a3f6b851f3f59999a3f5eb852 10150c10     Gui.obj
 0002:0007dc20       __xmm@3e99999a3f6b851f3f5eb8523f59999a 10150c20     Gui.obj
 0002:0007dc30       __xmm@3e99999a3f6b851f3f63d70a3f59999a 10150c30     Gui.obj
 0002:0007dc40       __xmm@3e99999a3f8000003f8000003f800000 10150c40     Gui.obj
 0002:0007dc50       __xmm@3e9eb8523e2e147b3f4000003f47ae14 10150c50     Gui.obj
 0002:0007dc60       __xmm@3e9eb8523e2e147b3f47ae143f07ae14 10150c60     Gui.obj
 0002:0007dc70       __xmm@3e9eb8523efae1483e428f5c3dcccccd 10150c70     Gui.obj
 0002:0007dc80       __xmm@3e9eb8523f2147ae3e428f5c3eae147b 10150c80     Gui.obj
 0002:0007dc90       __xmm@3e9eb8523f47ae143e9eb8523e2e147b 10150c90     Gui.obj
 0002:0007dca0       __xmm@3e9eb8523f547ae13f4ccccd3f4ccccd 10150ca0     Gui.obj
 0002:0007dcb0       __xmm@3e9eb8523f70a3d73f70a3d73f828f5c 10150cb0     Gui.obj
 0002:0007dcc0       __xmm@3e9eb8523f7ae1483f170a3d3e851eb8 10150cc0     Gui.obj
 0002:0007dcd0       __xmm@3e9eb8523f8000003ef0a3d700000000 10150cd0     Gui.obj
 0002:0007dce0       __xmm@3ea3d70a3f59999a3f59999a3f6b851f 10150ce0     Gui.obj
 0002:0007dcf0       __xmm@3ea3d70a3f59999a3f6b851f3f63d70a 10150cf0     Gui.obj
 0002:0007dd00       __xmm@3ea3d70a3f59999a3f6b851f3f6b851f 10150d00     Gui.obj
 0002:0007dd10       __xmm@3ea3d70a3f6b851f3f59999a3f5eb852 10150d10     Gui.obj
 0002:0007dd20       __xmm@3ea3d70a3f6b851f3f5eb8523f59999a 10150d20     Gui.obj
 0002:0007dd30       __xmm@3ea3d70a3f6b851f3f63d70a3f59999a 10150d30     Gui.obj
 0002:0007dd40       __xmm@3eb33333000000000000000000000000 10150d40     Gui.obj
 0002:0007dd50       __xmm@3eb3333300000000000000003e19999a 10150d50     Gui.obj
 0002:0007dd60       __xmm@3eb333333e2e147b3f4000003f47ae14 10150d60     Gui.obj
 0002:0007dd70       __xmm@3eb333333e2e147b3f47ae143f07ae14 10150d70     Gui.obj
 0002:0007dd80       __xmm@3eb333333e4ccccd3e4ccccd3e4ccccd 10150d80     Gui.obj
 0002:0007dd90       __xmm@3eb333333efae1483e428f5c3dcccccd 10150d90     Gui.obj
 0002:0007dda0       __xmm@3eb333333f2147ae3e428f5c3eae147b 10150da0     Gui.obj
 0002:0007ddb0       __xmm@3eb333333f47ae143e9eb8523e2e147b 10150db0     Gui.obj
 0002:0007ddc0       __xmm@3eb333333f70a3d73f70a3d73f828f5c 10150dc0     Gui.obj
 0002:0007ddd0       __xmm@3eb333333f7ae1483f170a3d3e851eb8 10150dd0     Gui.obj
 0002:0007dde0       __xmm@3eb333333f8000000000000000000000 10150de0     Gui.obj
 0002:0007ddf0       __xmm@3ebd70a43e947ae13e3851ec3f6b851f 10150df0     Gui.obj
 0002:0007de00       __xmm@3ebd70a43f6b851f3f2666663e051eb8 10150e00     Gui.obj
 0002:0007de10       __xmm@3ec7ae14000000000000000000000000 10150e10     Gui.obj
 0002:0007de20       __xmm@3ec7ae143ec28f5c3ec7ae143ecccccd 10150e20     Gui.obj
 0002:0007de30       __xmm@3ec7ae143f59999a3f59999a3f6b851f 10150e30     Gui.obj
 0002:0007de40       __xmm@3ec7ae143f59999a3f6b851f3f63d70a 10150e40     Gui.obj
 0002:0007de50       __xmm@3ec7ae143f59999a3f6b851f3f6b851f 10150e50     Gui.obj
 0002:0007de60       __xmm@3ec7ae143f6b851f3f59999a3f5eb852 10150e60     Gui.obj
 0002:0007de70       __xmm@3ec7ae143f6b851f3f5eb8523f59999a 10150e70     Gui.obj
 0002:0007de80       __xmm@3ec7ae143f6b851f3f63d70a3f59999a 10150e80     Gui.obj
 0002:0007de90       __xmm@3ecccccd3f0000003f0000003f4ccccd 10150e90     Gui.obj
 0002:0007dea0       __xmm@3ecccccd3f4ccccd3ecccccd3ecccccd 10150ea0     Gui.obj
 0002:0007deb0       __xmm@3ecccccd3f4ccccd3f4ccccd3f666666 10150eb0     Gui.obj
 0002:0007dec0       __xmm@3ecccccd3f7ae1483f170a3d3e851eb8 10150ec0     Gui.obj
 0002:0007ded0       __xmm@3edc28f6000000003f8000003e800000 10150ed0     Gui.obj
 0002:0007dee0       __xmm@3edc28f63e2e147b3f4000003f47ae14 10150ee0     Gui.obj
 0002:0007def0       __xmm@3edc28f63e2e147b3f47ae143f07ae14 10150ef0     Gui.obj
 0002:0007df00       __xmm@3edc28f63e947ae13e3851ec3f6b851f 10150f00     Gui.obj
 0002:0007df10       __xmm@3edc28f63efae1483e428f5c3dcccccd 10150f10     Gui.obj
 0002:0007df20       __xmm@3edc28f63f2147ae3e428f5c3eae147b 10150f20     Gui.obj
 0002:0007df30       __xmm@3edc28f63f2147ae3edc28f63e428f5c 10150f30     Gui.obj
 0002:0007df40       __xmm@3edc28f63f47ae143e9eb8523e2e147b 10150f40     Gui.obj
 0002:0007df50       __xmm@3edc28f63f6b851f3f2666663e051eb8 10150f50     Gui.obj
 0002:0007df60       __xmm@3edc28f63f70a3d73f70a3d73f828f5c 10150f60     Gui.obj
 0002:0007df70       __xmm@3ee147ae3e2e147b3f4000003f47ae14 10150f70     Gui.obj
 0002:0007df80       __xmm@3ee147ae3e2e147b3f47ae143f07ae14 10150f80     Gui.obj
 0002:0007df90       __xmm@3ee147ae3efae1483e428f5c3dcccccd 10150f90     Gui.obj
 0002:0007dfa0       __xmm@3ee147ae3f2147ae3e428f5c3eae147b 10150fa0     Gui.obj
 0002:0007dfb0       __xmm@3ee147ae3f47ae143e9eb8523e2e147b 10150fb0     Gui.obj
 0002:0007dfc0       __xmm@3ee147ae3f70a3d73f70a3d73f828f5c 10150fc0     Gui.obj
 0002:0007dfd0       __xmm@3ee666663e2e147b3f4000003f47ae14 10150fd0     Gui.obj
 0002:0007dfe0       __xmm@3ee666663e2e147b3f47ae143f07ae14 10150fe0     Gui.obj
 0002:0007dff0       __xmm@3ee666663efae1483e428f5c3dcccccd 10150ff0     Gui.obj
 0002:0007e000       __xmm@3ee666663f2147ae3e428f5c3eae147b 10151000     Gui.obj
 0002:0007e010       __xmm@3ee666663f2666663f2666663f666666 10151010     Gui.obj
 0002:0007e020       __xmm@3ee666663f47ae143e9eb8523e2e147b 10151020     Gui.obj
 0002:0007e030       __xmm@3ee666663f6666663ecccccd3ecccccd 10151030     Gui.obj
 0002:0007e040       __xmm@3ee666663f70a3d73f70a3d73f828f5c 10151040     Gui.obj
 0002:0007e050       __xmm@3ef0a3d73e8a3d713e6147ae3e4ccccd 10151050     Gui.obj
 0002:0007e060       __xmm@3f0000003f170a3d3f170a3d3f170a3d 10151060     Gui.obj
 0002:0007e070       __xmm@3f0000003f6666663f0000003f000000 10151070     Gui.obj
 0002:0007e080       __xmm@3f0000003f6666663f6666663f666666 10151080     Gui.obj
 0002:0007e090       __xmm@3f0000003f8000003f8000003f800000 10151090     Gui.obj
 0002:0007e0a0       __xmm@3f028f5c3f8000003f8000003f800000 101510a0     Gui.obj
 0002:0007e0b0       __xmm@3f07ae143f7ae1483f7ae1483f7ae148 101510b0     Gui.obj
 0002:0007e0c0       __xmm@3f0ccccd3e0f5c293e428f5c3e4ccccd 101510c0     Gui.obj
 0002:0007e0d0       __xmm@3f0ccccd3e0f5c293e4ccccd3e2e147b 101510d0     Gui.obj
 0002:0007e0e0       __xmm@3f0ccccd3e4ccccd3e19999a3e0f5c29 101510e0     Gui.obj
 0002:0007e0f0       __xmm@3f0ccccd3f028f5c3f028f5c3f028f5c 101510f0     Gui.obj
 0002:0007e100       __xmm@3f11eb853e4ccccd3ef0a3d73efae148 10151100     Gui.obj
 0002:0007e110       __xmm@3f11eb853e4ccccd3efae1483ebd70a4 10151110     Gui.obj
 0002:0007e120       __xmm@3f11eb853ea8f5c33ea8f5c33eb33333 10151120     Gui.obj
 0002:0007e130       __xmm@3f11eb853eb851ec3e428f5c3e0f5c29 10151130     Gui.obj
 0002:0007e140       __xmm@3f11eb853ec7ae143e4ccccd3e8a3d71 10151140     Gui.obj
 0002:0007e150       __xmm@3f11eb853efae1483e8a3d713e4ccccd 10151150     Gui.obj
 0002:0007e160       __xmm@3f147ae13e8a3d713e6147ae3e4ccccd 10151160     Gui.obj
 0002:0007e170       __xmm@3f147ae13f59999a3f6b851f3f63d70a 10151170     Gui.obj
 0002:0007e180       __xmm@3f147ae13f59999a3f6b851f3f6b851f 10151180     Gui.obj
 0002:0007e190       __xmm@3f147ae13f6b851f3f59999a3f5eb852 10151190     Gui.obj
 0002:0007e1a0       __xmm@3f147ae13f6b851f3f5eb8523f59999a 101511a0     Gui.obj
 0002:0007e1b0       __xmm@3f147ae13f6b851f3f63d70a3f59999a 101511b0     Gui.obj
 0002:0007e1c0       __xmm@3f170a3d3e947ae13e3851ec3f6b851f 101511c0     Gui.obj
 0002:0007e1d0       __xmm@3f170a3d3ef5c28f3e8a3d713d4ccccd 101511d0     Gui.obj
 0002:0007e1e0       __xmm@3f170a3d3f6b851f3f2666663e051eb8 101511e0     Gui.obj
 0002:0007e1f0       __xmm@3f19999a3e99999a3e8000003e4ccccd 101511f0     Gui.obj
 0002:0007e200       __xmm@3f19999a3f6666663f3333333f333333 10151200     Gui.obj
 0002:0007e210       __xmm@3f19999a3f8000003f8000003f800000 10151210     Gui.obj
 0002:0007e220       __xmm@3f2147ae3e947ae13e3851ec3f6b851f 10151220     Gui.obj
 0002:0007e230       __xmm@3f2147ae3ec28f5c3ec7ae143ecccccd 10151230     Gui.obj
 0002:0007e240       __xmm@3f2147ae3f59999a3f59999a3f6b851f 10151240     Gui.obj
 0002:0007e250       __xmm@3f2147ae3f59999a3f6b851f3f63d70a 10151250     Gui.obj
 0002:0007e260       __xmm@3f2147ae3f59999a3f6b851f3f6b851f 10151260     Gui.obj
 0002:0007e270       __xmm@3f2147ae3f63d70a3f6e147b3f5c28f6 10151270     Gui.obj
 0002:0007e280       __xmm@3f2147ae3f6b851f3f2666663e051eb8 10151280     Gui.obj
 0002:0007e290       __xmm@3f2147ae3f6b851f3f59999a3f5eb852 10151290     Gui.obj
 0002:0007e2a0       __xmm@3f2147ae3f6b851f3f5eb8523f59999a 101512a0     Gui.obj
 0002:0007e2b0       __xmm@3f2147ae3f6b851f3f63d70a3f59999a 101512b0     Gui.obj
 0002:0007e2c0       __xmm@3f2666663f3333333f3333333f333333 101512c0     Gui.obj
 0002:0007e2d0       __xmm@3f2b851f3f7ae1483f170a3d3e851eb8 101512d0     Gui.obj
 0002:0007e2e0       __xmm@3f2b851f3f8000003f8000003f800000 101512e0     Gui.obj
 0002:0007e2f0       __xmm@3f2e147b3e2e147b3f4000003f47ae14 101512f0     Gui.obj
 0002:0007e300       __xmm@3f2e147b3e2e147b3f47ae143f07ae14 10151300     Gui.obj
 0002:0007e310       __xmm@3f2e147b3efae1483e428f5c3dcccccd 10151310     Gui.obj
 0002:0007e320       __xmm@3f2e147b3f2147ae3e428f5c3eae147b 10151320     Gui.obj
 0002:0007e330       __xmm@3f2e147b3f47ae143e9eb8523e2e147b 10151330     Gui.obj
 0002:0007e340       __xmm@3f2e147b3f6b851f3f19999a3ea3d70a 10151340     Gui.obj
 0002:0007e350       __xmm@3f333333000000000000000000000000 10151350     Gui.obj
 0002:0007e360       __xmm@3f35c28f3e23d70a3df5c28f3e051eb8 10151360     Gui.obj
 0002:0007e370       __xmm@3f3ae1483e8a3d713e6147ae3e4ccccd 10151370     Gui.obj
 0002:0007e380       __xmm@3f3ae1483f7333333f7ae1483f800000 10151380     Gui.obj
 0002:0007e390       __xmm@3f4000003e8a3d713e6147ae3e4ccccd 10151390     Gui.obj
 0002:0007e3a0       __xmm@3f4000003e947ae13e3851ec3f6b851f 101513a0     Gui.obj
 0002:0007e3b0       __xmm@3f4000003f6b851f3f2666663e051eb8 101513b0     Gui.obj
 0002:0007e3c0       __xmm@3f4000003f7333333f7ae1483f800000 101513c0     Gui.obj
 0002:0007e3d0       __xmm@3f428f5c3e2e147b3f4000003f47ae14 101513d0     Gui.obj
 0002:0007e3e0       __xmm@3f428f5c3e2e147b3f47ae143f07ae14 101513e0     Gui.obj
 0002:0007e3f0       __xmm@3f428f5c3e947ae13e3851ec3f6b851f 101513f0     Gui.obj
 0002:0007e400       __xmm@3f428f5c3efae1483e428f5c3dcccccd 10151400     Gui.obj
 0002:0007e410       __xmm@3f428f5c3f2147ae3e428f5c3eae147b 10151410     Gui.obj
 0002:0007e420       __xmm@3f428f5c3f47ae143e9eb8523e2e147b 10151420     Gui.obj
 0002:0007e430       __xmm@3f428f5c3f6b851f3f2666663e051eb8 10151430     Gui.obj
 0002:0007e440       __xmm@3f428f5c3f70a3d73f70a3d73f828f5c 10151440     Gui.obj
 0002:0007e450       __xmm@3f451eb8000000000000000000000000 10151450     Gui.obj
 0002:0007e460       __xmm@3f47ae143e2e147b3f4000003f47ae14 10151460     Gui.obj
 0002:0007e470       __xmm@3f47ae143e2e147b3f47ae143f07ae14 10151470     Gui.obj
 0002:0007e480       __xmm@3f47ae143e947ae13e3851ec3f6b851f 10151480     Gui.obj
 0002:0007e490       __xmm@3f47ae143efae1483e428f5c3dcccccd 10151490     Gui.obj
 0002:0007e4a0       __xmm@3f47ae143f1eb8523ec28f5c3dcccccd 101514a0     Gui.obj
 0002:0007e4b0       __xmm@3f47ae143f2147ae3e428f5c3eae147b 101514b0     Gui.obj
 0002:0007e4c0       __xmm@3f47ae143f2147ae3edc28f63e428f5c 101514c0     Gui.obj
 0002:0007e4d0       __xmm@3f47ae143f47ae143e9eb8523e2e147b 101514d0     Gui.obj
 0002:0007e4e0       __xmm@3f47ae143f59999a3f59999a3f6b851f 101514e0     Gui.obj
 0002:0007e4f0       __xmm@3f47ae143f59999a3f6b851f3f63d70a 101514f0     Gui.obj
 0002:0007e500       __xmm@3f47ae143f59999a3f6b851f3f6b851f 10151500     Gui.obj
 0002:0007e510       __xmm@3f47ae143f63d70a3f6e147b3f5c28f6 10151510     Gui.obj
 0002:0007e520       __xmm@3f47ae143f6b851f3f2666663e051eb8 10151520     Gui.obj
 0002:0007e530       __xmm@3f47ae143f6b851f3f59999a3f5eb852 10151530     Gui.obj
 0002:0007e540       __xmm@3f47ae143f6b851f3f5eb8523f59999a 10151540     Gui.obj
 0002:0007e550       __xmm@3f47ae143f6b851f3f63d70a3f59999a 10151550     Gui.obj
 0002:0007e560       __xmm@3f47ae143f70a3d73f70a3d73f828f5c 10151560     Gui.obj
 0002:0007e570       __xmm@3f47ae143f7ae1483f170a3d3e851eb8 10151570     Gui.obj
 0002:0007e580       __xmm@3f47ae143f8000003f8000003f800000 10151580     Gui.obj
 0002:0007e590       __xmm@3f4ccccd3e2e147b3f4000003f47ae14 10151590     Gui.obj
 0002:0007e5a0       __xmm@3f4ccccd3e2e147b3f47ae143f07ae14 101515a0     Gui.obj
 0002:0007e5b0       __xmm@3f4ccccd3f0ccccd3ecccccd3ecccccd 101515b0     Gui.obj
 0002:0007e5c0       __xmm@3f4ccccd3f2147ae3e428f5c3eae147b 101515c0     Gui.obj
 0002:0007e5d0       __xmm@3f4ccccd3f47ae143e9eb8523e2e147b 101515d0     Gui.obj
 0002:0007e5e0       __xmm@3f4ccccd3f5eb8523f07ae143f07ae14 101515e0     Gui.obj
 0002:0007e5f0       __xmm@3f4ccccd3f6666663ee666663ee66666 101515f0     Gui.obj
 0002:0007e600       __xmm@3f4ccccd3f6666663f5c28f63e23d70a 10151600     Gui.obj
 0002:0007e610       __xmm@3f4ccccd3f70a3d73f70a3d73f828f5c 10151610     Gui.obj
 0002:0007e620       __xmm@3f4ccccd3f7ae1483f170a3d3e851eb8 10151620     Gui.obj
 0002:0007e630       __xmm@3f547ae13f6666663e80000000000000 10151630     Gui.obj
 0002:0007e640       __xmm@3f5c28f63e2e147b3f4000003f47ae14 10151640     Gui.obj
 0002:0007e650       __xmm@3f5c28f63e2e147b3f47ae143f07ae14 10151650     Gui.obj
 0002:0007e660       __xmm@3f5c28f63e947ae13e3851ec3f6b851f 10151660     Gui.obj
 0002:0007e670       __xmm@3f5c28f63efae1483e428f5c3dcccccd 10151670     Gui.obj
 0002:0007e680       __xmm@3f5c28f63f2147ae3e428f5c3eae147b 10151680     Gui.obj
 0002:0007e690       __xmm@3f5c28f63f47ae143e9eb8523e2e147b 10151690     Gui.obj
 0002:0007e6a0       __xmm@3f5c28f63f6b851f3f2666663e051eb8 101516a0     Gui.obj
 0002:0007e6b0       __xmm@3f5c28f63f70a3d73f70a3d73f828f5c 101516b0     Gui.obj
 0002:0007e6c0       __xmm@3f5eb8523f6666663e80000000000000 101516c0     Gui.obj
 0002:0007e6d0       __xmm@3f6147ae3f547ae13f4ccccd3f4ccccd 101516d0     Gui.obj
 0002:0007e6e0       __xmm@3f6666663dcccccd3d4ccccd3d4ccccd 101516e0     Gui.obj
 0002:0007e6f0       __xmm@3f6666663f8000003f8000003f800000 101516f0     Gui.obj
 0002:0007e700       __xmm@3f6b851f3f51eb853f51eb853f51eb85 10151700     Gui.obj
 0002:0007e710       __xmm@3f70a3d73f8000003f8000003f800000 10151710     Gui.obj
 0002:0007e720       __xmm@3f7333333f7ae1483f170a3d3e851eb8 10151720     Gui.obj
 0002:0007e730       __xmm@3f800000000000000000000000000000 10151730     Gui.obj
 0002:0007e740       __xmm@3f800000000000003f19999a3f800000 10151740     Gui.obj
 0002:0007e750       __xmm@3f800000000000003f3333333f666666 10151750     Gui.obj
 0002:0007e760       __xmm@3f800000000000003f8000003e800000 10151760     Gui.obj
 0002:0007e770       __xmm@3f8000003d8f5c293d4ccccd3d75c28f 10151770     Gui.obj
 0002:0007e780       __xmm@3f8000003db851ec3d8f5c293d8f5c29 10151780     Gui.obj
 0002:0007e790       __xmm@3f8000003dcccccd3dcccccd3dcccccd 10151790     Gui.obj
 0002:0007e7a0       __xmm@3f8000003df5c28f3db851ec3dcccccd 101517a0     Gui.obj
 0002:0007e7b0       __xmm@3f8000003e23d70a3e0f5c293df5c28f 101517b0     Gui.obj
 0002:0007e7c0       __xmm@3f8000003e23d70a3e19999a3db851ec 101517c0     Gui.obj
 0002:0007e7d0       __xmm@3f8000003e2e147b3e0f5c293e051eb8 101517d0     Gui.obj
 0002:0007e7e0       __xmm@3f8000003e2e147b3f4000003f47ae14 101517e0     Gui.obj
 0002:0007e7f0       __xmm@3f8000003e2e147b3f47ae143f07ae14 101517f0     Gui.obj
 0002:0007e800       __xmm@3f8000003e4ccccd3ef0a3d73efae148 10151800     Gui.obj
 0002:0007e810       __xmm@3f8000003e4ccccd3efae1483ebd70a4 10151810     Gui.obj
 0002:0007e820       __xmm@3f8000003e8a3d713e6147ae3e4ccccd 10151820     Gui.obj
 0002:0007e830       __xmm@3f8000003e947ae13e3851ec3f35c28f 10151830     Gui.obj
 0002:0007e840       __xmm@3f8000003e947ae13e3851ec3f6b851f 10151840     Gui.obj
 0002:0007e850       __xmm@3f8000003e947ae13e6b851f3e75c28f 10151850     Gui.obj
 0002:0007e860       __xmm@3f8000003ea8f5c33ea8f5c33eb33333 10151860     Gui.obj
 0002:0007e870       __xmm@3f8000003eb333333edc28f63f800000 10151870     Gui.obj
 0002:0007e880       __xmm@3f8000003eb851ec3e428f5c3e0f5c29 10151880     Gui.obj
 0002:0007e890       __xmm@3f8000003eb851ec3ec7ae143f7ae148 10151890     Gui.obj
 0002:0007e8a0       __xmm@3f8000003ec28f5c3ec7ae143ecccccd 101518a0     Gui.obj
 0002:0007e8b0       __xmm@3f8000003ec7ae143e4ccccd3e8a3d71 101518b0     Gui.obj
 0002:0007e8c0       __xmm@3f8000003ec7ae143e99999a3e4ccccd 101518c0     Gui.obj
 0002:0007e8d0       __xmm@3f8000003ec7ae143ec7ae143ec7ae14 101518d0     Gui.obj
 0002:0007e8e0       __xmm@3f8000003ee147ae3e75c28f00000000 101518e0     Gui.obj
 0002:0007e8f0       __xmm@3f8000003ee147ae3ed70a3d00000000 101518f0     Gui.obj
 0002:0007e900       __xmm@3f8000003efae1483e428f5c3dcccccd 10151900     Gui.obj
 0002:0007e910       __xmm@3f8000003efae1483e8a3d713e4ccccd 10151910     Gui.obj
 0002:0007e920       __xmm@3f8000003efae1483efae1483efae148 10151920     Gui.obj
 0002:0007e930       __xmm@3f8000003f0000003f0000003f000000 10151930     Gui.obj
 0002:0007e940       __xmm@3f8000003f0000003f0000003f4ccccd 10151940     Gui.obj
 0002:0007e950       __xmm@3f8000003f07ae143e851eb83d8f5c29 10151950     Gui.obj
 0002:0007e960       __xmm@3f8000003f147ae13f0f5c293f0f5c29 10151960     Gui.obj
 0002:0007e970       __xmm@3f8000003f170a3d3f170a3d3f170a3d 10151970     Gui.obj
 0002:0007e980       __xmm@3f8000003f19999a3f19999a3f19999a 10151980     Gui.obj
 0002:0007e990       __xmm@3f8000003f19999a3f19999a3f333333 10151990     Gui.obj
 0002:0007e9a0       __xmm@3f8000003f2147ae3e428f5c3eae147b 101519a0     Gui.obj
 0002:0007e9b0       __xmm@3f8000003f2147ae3edc28f63e428f5c 101519b0     Gui.obj
 0002:0007e9c0       __xmm@3f8000003f2666663eeb851f00000000 101519c0     Gui.obj
 0002:0007e9d0       __xmm@3f8000003f30a3d73f30a3d73f30a3d7 101519d0     Gui.obj
 0002:0007e9e0       __xmm@3f8000003f3333333f3333333f333333 101519e0     Gui.obj
 0002:0007e9f0       __xmm@3f8000003f3333333f3333333f666666 101519f0     Gui.obj
 0002:0007ea00       __xmm@3f8000003f3851ec3ee147ae3e051eb8 10151a00     Gui.obj
 0002:0007ea10       __xmm@3f8000003f47ae143e9eb8523e2e147b 10151a10     Gui.obj
 0002:0007ea20       __xmm@3f8000003f4ccccd3e8a3d713eeb851f 10151a20     Gui.obj
 0002:0007ea30       __xmm@3f8000003f4ccccd3f4ccccd3f4ccccd 10151a30     Gui.obj
 0002:0007ea40       __xmm@3f8000003f51eb853f51eb853f51eb85 10151a40     Gui.obj
 0002:0007ea50       __xmm@3f8000003f547ae13f4ccccd3f4ccccd 10151a50     Gui.obj
 0002:0007ea60       __xmm@3f8000003f59999a3f59999a3f6b851f 10151a60     Gui.obj
 0002:0007ea70       __xmm@3f8000003f59999a3f6b851f3f63d70a 10151a70     Gui.obj
 0002:0007ea80       __xmm@3f8000003f59999a3f6b851f3f6b851f 10151a80     Gui.obj
 0002:0007ea90       __xmm@3f8000003f5c28f63f5c28f63f5c28f6 10151a90     Gui.obj
 0002:0007eaa0       __xmm@3f8000003f6147ae3f051eb83e75c28f 10151aa0     Gui.obj
 0002:0007eab0       __xmm@3f8000003f6666663f6666663f666666 10151ab0     Gui.obj
 0002:0007eac0       __xmm@3f8000003f6b851f3f2666663e051eb8 10151ac0     Gui.obj
 0002:0007ead0       __xmm@3f8000003f6b851f3f59999a3f5eb852 10151ad0     Gui.obj
 0002:0007eae0       __xmm@3f8000003f6b851f3f5eb8523f59999a 10151ae0     Gui.obj
 0002:0007eaf0       __xmm@3f8000003f6b851f3f63d70a3f59999a 10151af0     Gui.obj
 0002:0007eb00       __xmm@3f8000003f70a3d73f70a3d73f70a3d7 10151b00     Gui.obj
 0002:0007eb10       __xmm@3f8000003f70a3d73f70a3d73f828f5c 10151b10     Gui.obj
 0002:0007eb20       __xmm@3f8000003f75c28f3f75c28f3f75c28f 10151b20     Gui.obj
 0002:0007eb30       __xmm@3f8000003f7ae1483f07ae143d75c28f 10151b30     Gui.obj
 0002:0007eb40       __xmm@3f8000003f7ae1483f170a3d3e851eb8 10151b40     Gui.obj
 0002:0007eb50       __xmm@3f8000003f8000003f8000003f800000 10151b50     Gui.obj
 0002:0007eb60       __xmm@4048f5c3000000000000000000000000 10151b60     Gui.obj
 0002:0007eb70       __xmm@4048f5c33d75c28f0000000000000000 10151b70     Gui.obj
 0002:0007eb80       __xmm@4048f5c33d75c28f000000003f266666 10151b80     Gui.obj
 0002:00080c64       __real@358637bd            10153c64     imguicolorpicker.obj
 0002:00080c68       __real@3727c5ac            10153c68     imguicolorpicker.obj
 0002:00080c6c       __real@3f800000            10153c6c     imguicolorpicker.obj
 0002:00080c70       __real@40000000            10153c70     imguicolorpicker.obj
 0002:00080c78       __real@4070400000000000    10153c78     imguicolorpicker.obj
 0002:00080c80       __real@40922c0000000000    10153c80     imguicolorpicker.obj
 0002:00080c88       __real@40a05c0000000000    10153c88     imguicolorpicker.obj
 0002:00080c90       __real@40a1440000000000    10153c90     imguicolorpicker.obj
 0002:00080c98       __real@40ac2a0000000000    10153c98     imguicolorpicker.obj
 0002:00080ca0       __real@40b15e0000000000    10153ca0     imguicolorpicker.obj
 0002:00080ca8       __real@40b1bd0000000000    10153ca8     imguicolorpicker.obj
 0002:00080cb0       __real@40b8320000000000    10153cb0     imguicolorpicker.obj
 0002:00080cb8       __real@40c00000            10153cb8     imguicolorpicker.obj
 0002:00080cc0       __real@40c50c0000000000    10153cc0     imguicolorpicker.obj
 0002:00080cc8       __real@40c5c48000000000    10153cc8     imguicolorpicker.obj
 0002:00080cd0       __real@40c9aa0000000000    10153cd0     imguicolorpicker.obj
 0002:00080cd8       __real@40c9d20000000000    10153cd8     imguicolorpicker.obj
 0002:00080ce0       __real@40ca3d8000000000    10153ce0     imguicolorpicker.obj
 0002:00080ce8       __real@40cd108000000000    10153ce8     imguicolorpicker.obj
 0002:00080cf0       __real@40cf318000000000    10153cf0     imguicolorpicker.obj
 0002:00080cf8       __real@40d1500000000000    10153cf8     imguicolorpicker.obj
 0002:00080d00       __real@40d2480000000000    10153d00     imguicolorpicker.obj
 0002:00080d08       __real@40d70e0000000000    10153d08     imguicolorpicker.obj
 0002:00080d10       __real@40dc100000000000    10153d10     imguicolorpicker.obj
 0002:00080d18       __real@40dfd44000000000    10153d18     imguicolorpicker.obj
 0002:00080d20       __real@40e00000            10153d20     imguicolorpicker.obj
 0002:00080d28       __real@40e0796000000000    10153d28     imguicolorpicker.obj
 0002:00080d30       __real@40e2110000000000    10153d30     imguicolorpicker.obj
 0002:00080d38       __real@40e2910000000000    10153d38     imguicolorpicker.obj
 0002:00080d40       __real@40e2f18000000000    10153d40     imguicolorpicker.obj
 0002:00080d48       __real@40e52ae000000000    10153d48     imguicolorpicker.obj
 0002:00080d50       __real@40e8af4000000000    10153d50     imguicolorpicker.obj
 0002:00080d58       __real@40ee8b0000000000    10153d58     imguicolorpicker.obj
 0002:00080d60       __real@40f1766000000000    10153d60     imguicolorpicker.obj
 0002:00080d68       __real@40f46f1000000000    10153d68     imguicolorpicker.obj
 0002:00080d70       __real@40f6187000000000    10153d70     imguicolorpicker.obj
 0002:00080d78       __real@40f7e60000000000    10153d78     imguicolorpicker.obj
 0002:00080d80       __real@41a00000            10153d80     imguicolorpicker.obj
 0002:00080d84       __real@43800000            10153d84     imguicolorpicker.obj
 0002:00080d90       __xmm@3f0000003f0000003f0000003f000000 10153d90     imguicolorpicker.obj
 0002:00080da0       __xmm@3f80000000000000000000003f800000 10153da0     imguicolorpicker.obj
 0002:00080db0       __xmm@3f800000000000003f80000000000000 10153db0     imguicolorpicker.obj
 0002:00080dc0       __xmm@3f800000000000003f8000003f800000 10153dc0     imguicolorpicker.obj
 0002:00080dd0       __xmm@3f8000003f8000000000000000000000 10153dd0     imguicolorpicker.obj
 0002:00080de0       __xmm@3f8000003f800000000000003f800000 10153de0     imguicolorpicker.obj
 0002:00080df0       __xmm@3f8000003f8000003f80000000000000 10153df0     imguicolorpicker.obj
 0002:00080e00       __xmm@409b5c000000000040dc2b0000000000 10153e00     imguicolorpicker.obj
 0002:00080e10       __xmm@40e3b9800000000040f31c5000000000 10153e10     imguicolorpicker.obj
 0002:00080e20       __xmm@40f181c00000000040c64d0000000000 10153e20     imguicolorpicker.obj
 0002:00080e30       __xmm@437f0000437f0000437f0000437f0000 10153e30     imguicolorpicker.obj
 0002:00081890       __real@40bef10000000000    10154890     imgui_impl_dx9.obj
 0002:00081898       __real@40d052c000000000    10154898     imgui_impl_dx9.obj
 0002:000818a0       __real@40f546f000000000    101548a0     imgui_impl_dx9.obj
 0002:000818a8       __real@bf800000            101548a8     imgui_impl_dx9.obj
 0002:000818b0       __xmm@0000000000000000000000003f800000 101548b0     imgui_impl_dx9.obj
 0002:000818c0       __xmm@00000000000000003f80000000000000 101548c0     imgui_impl_dx9.obj
 0002:000818d0       __xmm@000000003f8000000000000000000000 101548d0     imgui_impl_dx9.obj
 0002:00087598       ??_C@_09GBFFKCDJ@?$CD?$CDOverlay@ 1015a598     imgui.obj
 0002:000875cc       ??_C@_00CNPNBAHC@@         1015a5cc     imgui.obj
 0002:000875d0       ??_C@_0CF@IMBENNLG@?$CFs?3?5?8?$CFs?8?5?$CFd?5vtx?0?5?$CFd?5indices?0?5?$CFd@ 1015a5d0     imgui.obj
 0002:000875f8       ??_C@_0BE@LDCFEMCB@CURRENTLY?5APPENDING@ 1015a5f8     imgui.obj
 0002:0008760c       ??_C@_0BK@FDNBBNBF@Callback?5?$CFp?0?5user_data?5?$CFp@ 1015a60c     imgui.obj
 0002:00087628       ??_C@_07KNEBDGNE@indexed@  1015a628     imgui.obj
 0002:00087630       ??_C@_0M@NGJKDAN@non?9indexed@ 1015a630     imgui.obj
 0002:00087640       ??_C@_0EB@GBKAKAEN@Draw?5?$CF?94d?5?$CFs?5vtx?0?5tex?5?$DN?5?$CFp?0?5cli@ 1015a640     imgui.obj
 0002:00087684       ??_C@_03CEPBOMNB@vtx@      1015a684     imgui.obj
 0002:00087688       ??_C@_03NDEAONJP@?5?5?5@   1015a688     imgui.obj
 0002:0008768c       ??_C@_0DP@LIPFHOCP@?$CFs?5?$CF04d?5?$HL?5pos?5?$DN?5?$CI?$CF8?42f?0?$CF8?42f?$CJ?0?5@ 1015a68c     imgui.obj
 0002:000876cc       ??_C@_07JMKCEEPK@?$CFs?5?$CI?$CFd?$CJ@ 1015a6cc     imgui.obj
 0002:000876d4       ??_C@_06BKKJGDHO@Window@   1015a6d4     imgui.obj
 0002:000876dc       ??_C@_0BD@KOKNLAED@?$CFs?5?8?$CFs?8?0?5?$CFd?5?$EA?50x?$CFp@ 1015a6dc     imgui.obj
 0002:000876f0       ??_C@_08IJNCDCKF@DrawList@ 1015a6f0     imgui.obj
 0002:000876fc       ??_C@_0BB@OALIFMJB@Pos?3?5?$CI?$CF?41f?0?$CF?41f?$CJ@ 1015a6fc     imgui.obj
 0002:00087710       ??_C@_0CM@FNPKCFJC@Size?3?5?$CI?$CF?41f?0?$CF?41f?$CJ?0?5SizeContents@ 1015a710     imgui.obj
 0002:0008773c       ??_C@_0BE@LFBJHAFP@Scroll?3?5?$CI?$CF?42f?0?$CF?42f?$CJ@ 1015a73c     imgui.obj
 0002:00087750       ??_C@_0L@EHLMOHOL@RootWindow@ 1015a750     imgui.obj
 0002:0008775c       ??_C@_0N@BGDHDNPO@ChildWindows@ 1015a75c     imgui.obj
 0002:0008776c       ??_C@_0BC@PDGNHIHG@Storage?3?5?$CFd?5bytes@ 1015a76c     imgui.obj
 0002:00087780       __real@1e3ce508            1015a780     imgui.obj
 0002:00087784       __real@38d1b717            1015a784     imgui.obj
 0002:00087788       __real@3a83126f            1015a788     imgui.obj
 0002:0008778c       __real@3c23d70a            1015a78c     imgui.obj
 0002:00087790       __real@3dcccccd            1015a790     imgui.obj
 0002:00087794       __real@3e19999a            1015a794     imgui.obj
 0002:00087798       __real@3e2aaaab            1015a798     imgui.obj
 0002:0008779c       __real@3e4ccccd            1015a79c     imgui.obj
 0002:000877a0       __real@3e800000            1015a7a0     imgui.obj
 0002:000877a4       __real@3e99999a            1015a7a4     imgui.obj
 0002:000877a8       __real@3e9d2f1b            1015a7a8     imgui.obj
 0002:000877ac       __real@3ecccccd            1015a7ac     imgui.obj
 0002:000877b0       __real@3f266666            1015a7b0     imgui.obj
 0002:000877b4       __real@3f350481            1015a7b4     imgui.obj
 0002:000877b8       __real@3f400000            1015a7b8     imgui.obj
 0002:000877bc       __real@3f5db22d            1015a7bc     imgui.obj
 0002:000877c0       __real@3f733333            1015a7c0     imgui.obj
 0002:000877c4       __real@3f7ff972            1015a7c4     imgui.obj
 0002:000877c8       __real@3f99999a            1015a7c8     imgui.obj
 0002:000877cc       __real@3faccccd            1015a7cc     imgui.obj
 0002:000877d0       __real@3fc00000            1015a7d0     imgui.obj
 0002:000877d8       __real@3ff0000000000000    1015a7d8     imgui.obj
 0002:000877e0       __real@3ff3333340000000    1015a7e0     imgui.obj
 0002:000877e8       __real@40200000            1015a7e8     imgui.obj
 0002:000877f0       __real@4024000000000000    1015a7f0     imgui.obj
 0002:000877f8       __real@40400000            1015a7f8     imgui.obj
 0002:00087800       __real@4074600000000000    1015a800     imgui.obj
 0002:00087808       __real@40800000            1015a808     imgui.obj
 0002:00087810       __real@4095140000000000    1015a810     imgui.obj
 0002:00087818       __real@40a00000            1015a818     imgui.obj
 0002:00087820       __real@40a2c60000000000    1015a820     imgui.obj
 0002:00087828       __real@40a2e00000000000    1015a828     imgui.obj
 0002:00087830       __real@40aaa20000000000    1015a830     imgui.obj
 0002:00087838       __real@40b2900000000000    1015a838     imgui.obj
 0002:00087840       __real@40b44c0000000000    1015a840     imgui.obj
 0002:00087848       __real@40b7400000000000    1015a848     imgui.obj
 0002:00087850       __real@40ba9f0000000000    1015a850     imgui.obj
 0002:00087858       __real@40c52f0000000000    1015a858     imgui.obj
 0002:00087860       __real@40c6ad0000000000    1015a860     imgui.obj
 0002:00087868       __real@40c7030000000000    1015a868     imgui.obj
 0002:00087870       __real@40c90fdb            1015a870     imgui.obj
 0002:00087878       __real@40d0dec000000000    1015a878     imgui.obj
 0002:00087880       __real@40d120c000000000    1015a880     imgui.obj
 0002:00087888       __real@40d1c04000000000    1015a888     imgui.obj
 0002:00087890       __real@40d2300000000000    1015a890     imgui.obj
 0002:00087898       __real@40d2de4000000000    1015a898     imgui.obj
 0002:000878a0       __real@40d45a0000000000    1015a8a0     imgui.obj
 0002:000878a8       __real@40d4d30000000000    1015a8a8     imgui.obj
 0002:000878b0       __real@40d5070000000000    1015a8b0     imgui.obj
 0002:000878b8       __real@40d5f80000000000    1015a8b8     imgui.obj
 0002:000878c0       __real@40da5cc000000000    1015a8c0     imgui.obj
 0002:000878c8       __real@40db630000000000    1015a8c8     imgui.obj
 0002:000878d0       __real@40dbb4c000000000    1015a8d0     imgui.obj
 0002:000878d8       __real@40dbdd0000000000    1015a8d8     imgui.obj
 0002:000878e0       __real@40dc4b4000000000    1015a8e0     imgui.obj
 0002:000878e8       __real@40de6b4000000000    1015a8e8     imgui.obj
 0002:000878f0       __real@40deb50000000000    1015a8f0     imgui.obj
 0002:000878f8       __real@40df84c000000000    1015a8f8     imgui.obj
 0002:00087900       __real@40dfa4c000000000    1015a900     imgui.obj
 0002:00087908       __real@40e04a0000000000    1015a908     imgui.obj
 0002:00087910       __real@40e112e000000000    1015a910     imgui.obj
 0002:00087918       __real@40e18da000000000    1015a918     imgui.obj
 0002:00087920       __real@40e33b6000000000    1015a920     imgui.obj
 0002:00087928       __real@40e341a000000000    1015a928     imgui.obj
 0002:00087930       __real@40e4478000000000    1015a930     imgui.obj
 0002:00087938       __real@40e64fa000000000    1015a938     imgui.obj
 0002:00087940       __real@40e8674000000000    1015a940     imgui.obj
 0002:00087948       __real@40e8bce000000000    1015a948     imgui.obj
 0002:00087950       __real@40e969c000000000    1015a950     imgui.obj
 0002:00087958       __real@40e99c4000000000    1015a958     imgui.obj
 0002:00087960       __real@40ebe86000000000    1015a960     imgui.obj
 0002:00087968       __real@40eccccd            1015a968     imgui.obj
 0002:00087970       __real@40ed3b4000000000    1015a970     imgui.obj
 0002:00087978       __real@40ed894000000000    1015a978     imgui.obj
 0002:00087980       __real@40ef256000000000    1015a980     imgui.obj
 0002:00087988       __real@40efa9e000000000    1015a988     imgui.obj
 0002:00087990       __real@40f01aa000000000    1015a990     imgui.obj
 0002:00087998       __real@40f10a1000000000    1015a998     imgui.obj
 0002:000879a0       __real@40f137f000000000    1015a9a0     imgui.obj
 0002:000879a8       __real@40f1897000000000    1015a9a8     imgui.obj
 0002:000879b0       __real@40f1be2000000000    1015a9b0     imgui.obj
 0002:000879b8       __real@40f422a000000000    1015a9b8     imgui.obj
 0002:000879c0       __real@40f5d0b000000000    1015a9c0     imgui.obj
 0002:000879c8       __real@40f61f0000000000    1015a9c8     imgui.obj
 0002:000879d0       __real@40f6734000000000    1015a9d0     imgui.obj
 0002:000879d8       __real@41000000            1015a9d8     imgui.obj
 0002:000879dc       __real@41200000            1015a9dc     imgui.obj
 0002:000879e0       __real@41800000            1015a9e0     imgui.obj
 0002:000879e4       __real@41c00000            1015a9e4     imgui.obj
 0002:000879e8       __real@41f00000            1015a9e8     imgui.obj
 0002:000879ec       __real@42a00000            1015a9ec     imgui.obj
 0002:000879f0       __real@42c80000            1015a9f0     imgui.obj
 0002:000879f4       __real@42f00000            1015a9f4     imgui.obj
 0002:000879f8       __real@43b40000            1015a9f8     imgui.obj
 0002:000879fc       __real@447a0000            1015a9fc     imgui.obj
 0002:00087a00       __real@461c3c00            1015aa00     imgui.obj
 0002:00087a04       __real@7f7fffff            1015aa04     imgui.obj
 0002:00087a08       __real@beaaaaab            1015aa08     imgui.obj
 0002:00087a0c       __real@bf000000            1015aa0c     imgui.obj
 0002:00087a10       __real@bf5db22d            1015aa10     imgui.obj
 0002:00087a14       __real@c2c80000            1015aa14     imgui.obj
 0002:00087a18       __real@c61c3c00            1015aa18     imgui.obj
 0002:00087a1c       __real@ff7fffff            1015aa1c     imgui.obj
 0002:00087a20       __xmm@3e4ccccd3f4ccccd3ecccccd3ecccccd 1015aa20     imgui.obj
 0002:00087a30       __xmm@3e99999a3f4ccccd3f4ccccd3f4ccccd 1015aa30     imgui.obj
 0002:00087a40       __xmm@3ecccccd3ecccccd3ecccccd3ecccccd 1015aa40     imgui.obj
 0002:00087a50       __xmm@3f19999a3ecccccd3ecccccd3f2b851f 1015aa50     imgui.obj
 0002:00087a60       __xmm@3f3333333e4ccccd3e4ccccd3e4ccccd 1015aa60     imgui.obj
 0002:00087a70       __xmm@3f4ccccd3e4ccccd3e4ccccd3e4ccccd 1015aa70     imgui.obj
 0002:00087a80       __xmm@3f547ae13f0a3d713e8a3d713e8a3d71 1015aa80     imgui.obj
 0002:00087a90       __xmm@3f5eb8523f2147ae3ea3d70a3ea3d70a 1015aa90     imgui.obj
 0002:00087aa0       __xmm@3f7d70a43e4ccccd3e4ccccd3e4ccccd 1015aaa0     imgui.obj
 0002:00087ab0       __xmm@3f8000003ec8c8ca3ec8c8ca3f800000 1015aab0     imgui.obj
 0002:00087ac0       __xmm@3f8000003ecccccd3ecccccd3f2b851f 1015aac0     imgui.obj
 0002:00087ad0       __xmm@40a106000000000040b3c50000000000 1015aad0     imgui.obj
 0002:00087ae0       __xmm@40b91d000000000040c7c48000000000 1015aae0     imgui.obj
 0002:00087af0       __xmm@40c663000000000040d22ec000000000 1015aaf0     imgui.obj
 0002:00087b00       __xmm@40d0c5000000000040c9d48000000000 1015ab00     imgui.obj
 0002:00087b10       __xmm@40d8b7800000000040c0108000000000 1015ab10     imgui.obj
 0002:00087b20       __xmm@40e0a1000000000040f2240000000000 1015ab20     imgui.obj
 0002:00087b30       __xmm@40e5e0c00000000040d5528000000000 1015ab30     imgui.obj
 0002:00087b40       __xmm@40e6a4400000000040cc758000000000 1015ab40     imgui.obj
 0002:00087b50       __xmm@40eae9c00000000040ce998000000000 1015ab50     imgui.obj
 0002:00087b60       __xmm@40ed17000000000040ecf5c000000000 1015ab60     imgui.obj
 0002:00087b70       __xmm@40ef13600000000040e64d2000000000 1015ab70     imgui.obj
 0002:00087b80       __xmm@40f15a900000000040f10be000000000 1015ab80     imgui.obj
 0002:00087b90       __xmm@41f00000000000000000000000000000 1015ab90     imgui.obj
 0002:00087ba0       __xmm@7f7fffff7f7fffffff7fffffff7fffff 1015aba0     imgui.obj
 0002:00087bb0       __xmm@7fffffff7fffffff7fffffff7fffffff 1015abb0     imgui.obj
 0002:00087bc0       __xmm@7fffffffffffffff7fffffffffffffff 1015abc0     imgui.obj
 0002:00087bd0       __xmm@80000000800000008000000080000000 1015abd0     imgui.obj
 0002:00087be0       __xmm@ff7fffffff7fffff7f7fffff7f7fffff 1015abe0     imgui.obj
 0002:00087bf0       __xmm@ffffffffffffffffffffffffffffffff 1015abf0     imgui.obj
 0002:0008fb0c       __real@37800000            10162b0c     imgui_draw.obj
 0002:0008fb10       __real@38800000            10162b10     imgui_draw.obj
 0002:0008fb14       __real@3eb33333            10162b14     imgui_draw.obj
 0002:0008fb18       __real@3ffeb852            10162b18     imgui_draw.obj
 0002:0008fb20       __real@408a700000000000    10162b20     imgui_draw.obj
 0002:0008fb28       __real@4090840000000000    10162b28     imgui_draw.obj
 0002:0008fb30       __real@40b5a90000000000    10162b30     imgui_draw.obj
 0002:0008fb38       __real@40c3b68000000000    10162b38     imgui_draw.obj
 0002:0008fb40       __real@40c5f68000000000    10162b40     imgui_draw.obj
 0002:0008fb48       __real@40cf120000000000    10162b48     imgui_draw.obj
 0002:0008fb50       __real@40d2358000000000    10162b50     imgui_draw.obj
 0002:0008fb58       __real@40d5d30000000000    10162b58     imgui_draw.obj
 0002:0008fb60       __real@40d6250000000000    10162b60     imgui_draw.obj
 0002:0008fb68       __real@40da1f4000000000    10162b68     imgui_draw.obj
 0002:0008fb70       __real@40dc6b0000000000    10162b70     imgui_draw.obj
 0002:0008fb78       __real@40dd040000000000    10162b78     imgui_draw.obj
 0002:0008fb80       __real@40ddaf0000000000    10162b80     imgui_draw.obj
 0002:0008fb88       __real@40ddd7c000000000    10162b88     imgui_draw.obj
 0002:0008fb90       __real@40de608000000000    10162b90     imgui_draw.obj
 0002:0008fb98       __real@40df0e0000000000    10162b98     imgui_draw.obj
 0002:0008fba0       __real@40df1d0000000000    10162ba0     imgui_draw.obj
 0002:0008fba8       __real@40e0fb0000000000    10162ba8     imgui_draw.obj
 0002:0008fbb0       __real@40e18f2000000000    10162bb0     imgui_draw.obj
 0002:0008fbb8       __real@40e20bc000000000    10162bb8     imgui_draw.obj
 0002:0008fbc0       __real@40e25a4000000000    10162bc0     imgui_draw.obj
 0002:0008fbc8       __real@40e309e000000000    10162bc8     imgui_draw.obj
 0002:0008fbd0       __real@40e4396000000000    10162bd0     imgui_draw.obj
 0002:0008fbd8       __real@40e47dc000000000    10162bd8     imgui_draw.obj
 0002:0008fbe0       __real@40e522a000000000    10162be0     imgui_draw.obj
 0002:0008fbe8       __real@40e5cd2000000000    10162be8     imgui_draw.obj
 0002:0008fbf0       __real@40e6ea4000000000    10162bf0     imgui_draw.obj
 0002:0008fbf8       __real@40ea29c000000000    10162bf8     imgui_draw.obj
 0002:0008fc00       __real@40eabbc000000000    10162c00     imgui_draw.obj
 0002:0008fc08       __real@40ecd68000000000    10162c08     imgui_draw.obj
 0002:0008fc10       __real@40f0316000000000    10162c10     imgui_draw.obj
 0002:0008fc18       __real@40f19e9000000000    10162c18     imgui_draw.obj
 0002:0008fc20       __real@40f5102000000000    10162c20     imgui_draw.obj
 0002:0008fc28       __real@40f56ad000000000    10162c28     imgui_draw.obj
 0002:0008fc30       __real@40f5c43000000000    10162c30     imgui_draw.obj
 0002:0008fc38       __real@40f8004000000000    10162c38     imgui_draw.obj
 0002:0008fc40       __real@41100000            10162c40     imgui_draw.obj
 0002:0008fc44       __real@41400000            10162c44     imgui_draw.obj
 0002:0008fc48       __real@41500000            10162c48     imgui_draw.obj
 0002:0008fc4c       __real@41880000            10162c4c     imgui_draw.obj
 0002:0008fc50       __real@41900000            10162c50     imgui_draw.obj
 0002:0008fc54       __real@41980000            10162c54     imgui_draw.obj
 0002:0008fc58       __real@41a80000            10162c58     imgui_draw.obj
 0002:0008fc5c       __real@41b80000            10162c5c     imgui_draw.obj
 0002:0008fc60       __real@41f80000            10162c60     imgui_draw.obj
 0002:0008fc64       __real@425c0000            10162c64     imgui_draw.obj
 0002:0008fc68       __real@42920000            10162c68     imgui_draw.obj
 0002:0008fc6c       __real@42b60000            10162c6c     imgui_draw.obj
 0002:0008fc70       __xmm@00000003000000020000000100000000 10162c70     imgui_draw.obj
 0002:0008fc80       __xmm@00000008000000080000000800000008 10162c80     imgui_draw.obj
 0002:0008fc90       __xmm@40000000400000004000000040000000 10162c90     imgui_draw.obj
 0002:0008fca0       __xmm@40490fdb40490fdb40490fdb40490fdb 10162ca0     imgui_draw.obj
 0002:0008fcb0       __xmm@40d35a400000000040b70b0000000000 10162cb0     imgui_draw.obj
 0002:0008fcc0       __xmm@40e135600000000040d2468000000000 10162cc0     imgui_draw.obj
 0002:0008fcd0       __xmm@40e6f620000000004087700000000000 10162cd0     imgui_draw.obj
 0002:0008fce0       __xmm@41400000414000004140000041400000 10162ce0     imgui_draw.obj
 0002:0008fcf4       ??_7Node@valve_parser@@6B@ 10162cf4     SkinParser.obj
 0002:0008fd04       ??_7KeyValue@valve_parser@@6B@ 10162d04     SkinParser.obj
 0002:0008fd14       ??_7Object@valve_parser@@6B@ 10162d14     SkinParser.obj
 0002:0008fd24       ??_7?$_Ref_count_obj@VObject@valve_parser@@@std@@6B@ 10162d24     SkinParser.obj
 0002:0008fd38       ??_7?$_Ref_count_obj@VKeyValue@valve_parser@@@std@@6B@ 10162d38     SkinParser.obj
 0002:00092d60       ??_7CTraceFilter@@6B@      10165d60     Autowall.obj
 0002:00092d68       __real@3b03126f            10165d68     Autowall.obj
 0002:00092d6c       __real@3d4ccccd            10165d6c     Autowall.obj
 0002:00092d70       __real@3e23d70a            10165d70     Autowall.obj
 0002:00092d74       __real@3ea8f5c3            10165d74     Autowall.obj
 0002:00092d78       __real@3f59999a            10165d78     Autowall.obj
 0002:00092d80       __real@3f60624dd2f1a9fc    10165d80     Autowall.obj
 0002:00092d88       __real@3fa00000            10165d88     Autowall.obj
 0002:00092d8c       __real@42700000            10165d8c     Autowall.obj
 0002:00092d90       __real@42b40000            10165d90     Autowall.obj
 0002:00092d94       __real@453b8000            10165d94     Autowall.obj
 0002:000a0e3c       ??_C@_01GFHCPBMG@C@        10173e3c     ESP.obj
 0002:000a0e40       ??_C@_01LBDDMOBJ@?$FN@     10173e40     ESP.obj
 0002:000a0e44       ??_C@_01FHEEJDEE@A@        10173e44     ESP.obj
 0002:000a0e48       ??_C@_01HMGJMAIH@B@        10173e48     ESP.obj
 0002:000a0e4c       ??_C@_01CKDDGHAB@D@        10173e4c     ESP.obj
 0002:000a0e50       ??_C@_01DDCIFGEA@E@        10173e50     ESP.obj
 0002:000a0e54       ??_C@_01BIAFAFID@F@        10173e54     ESP.obj
 0002:000a0e58       ??_C@_01BBODEMC@G@         10173e58     ESP.obj
 0002:000a0e5c       ??_C@_01IGIGCIAN@H@        10173e5c     ESP.obj
 0002:000a0e60       ??_C@_01JPJNBJEM@I@        10173e60     ESP.obj
 0002:000a0e64       ??_C@_01LELAEKIP@J@        10173e64     ESP.obj
 0002:000a0e68       ??_C@_01KNKLHLMO@K@        10173e68     ESP.obj
 0002:000a0e6c       ??_C@_01OCOKONAJ@L@        10173e6c     ESP.obj
 0002:000a0e70       ??_C@_01PLPBNMEI@M@        10173e70     ESP.obj
 0002:000a0e74       ??_C@_01NANMIPIL@N@        10173e74     ESP.obj
 0002:000a0e78       ??_C@_01MJMHLOMK@O@        10173e78     ESP.obj
 0002:000a0e7c       ??_C@_01EJNLAFE@P@         10173e7c     ESP.obj
 0002:000a0e80       ??_C@_01BNIGIBBF@Q@        10173e80     ESP.obj
 0002:000a0e84       ??_C@_01DGKLNCNG@R@        10173e84     ESP.obj
 0002:000a0e88       ??_C@_01CPLAODJH@S@        10173e88     ESP.obj
 0002:000a0e8c       ??_C@_01GAPBHFFA@T@        10173e8c     ESP.obj
 0002:000a0e90       ??_C@_01HJOKEEBB@U@        10173e90     ESP.obj
 0002:000a0e94       ??_C@_01FCMHBHNC@V@        10173e94     ESP.obj
 0002:000a0e98       ??_C@_01ELNMCGJD@W@        10173e98     ESP.obj
 0002:000a0e9c       ??_C@_01MMEEDKFM@X@        10173e9c     ESP.obj
 0002:000a0ea0       ??_C@_01NFFPALBN@Y@        10173ea0     ESP.obj
 0002:000a0ea4       ??_C@_01POHCFINO@Z@        10173ea4     ESP.obj
 0002:000a0ea8       ??_C@_01MCMALHOG@a@        10173ea8     ESP.obj
 0002:000a0eac       ??_C@_01OJONOECF@b@        10173eac     ESP.obj
 0002:000a0eb0       ??_C@_01PAPGNFGE@c@        10173eb0     ESP.obj
 0002:000a0eb4       ??_C@_01LPLHEDKD@d@        10173eb4     ESP.obj
 0002:000a0eb8       ??_C@_01KGKMHCOC@e@        10173eb8     ESP.obj
 0002:000a0ebc       ??_C@_01INIBCBCB@f@        10173ebc     ESP.obj
 0002:000a0ec0       ??_C@_01JEJKBAGA@g@        10173ec0     ESP.obj
 0002:000a0ec4       ??_C@_01BDACAMKP@h@        10173ec4     ESP.obj
 0002:000a0ec8       ??_C@_01KBJDNOO@i@         10173ec8     ESP.obj
 0002:000a0ecc       ??_C@_01CBDEGOCN@j@        10173ecc     ESP.obj
 0002:000a0ed0       ??_C@_01DICPFPGM@k@        10173ed0     ESP.obj
 0002:000a0ed4       ??_C@_01HHGOMJKL@l@        10173ed4     ESP.obj
 0002:000a0ed8       ??_C@_01GOHFPIOK@m@        10173ed8     ESP.obj
 0002:000a0edc       ??_C@_01EFFIKLCJ@n@        10173edc     ESP.obj
 0002:000a0ee0       ??_C@_01FMEDJKGI@o@        10173ee0     ESP.obj
 0002:000a0ee4       ??_C@_01CLKCMJKC@?5@       10173ee4     ESP.obj
 0002:000a0ee8       ??_C@_05BPFOPNCG@Knife@    10173ee8     ESP.obj
 0002:000a0ef0       ??_C@_04KDDOELFP@AK47@     10173ef0     ESP.obj
 0002:000a0ef8       ??_C@_03CIFMCKCC@AUG@      10173ef8     ESP.obj
 0002:000a0efc       ??_C@_08OKMAADFD@Revolver@ 10173efc     ESP.obj
 0002:000a0f08       ??_C@_03COFLHKNK@AWP@      10173f08     ESP.obj
 0002:000a0f0c       ??_C@_05CEPIGKML@Bizon@    10173f0c     ESP.obj
 0002:000a0f14       ??_C@_04GPGPLFMI@Bomb@     10173f14     ESP.obj
 0002:000a0f1c       ??_C@_04BCLPEBO@CZ75@      10173f1c     ESP.obj
 0002:000a0f24       ??_C@_06NBAKNDOD@Deagle@   10173f24     ESP.obj
 0002:000a0f2c       ??_C@_05BPMDPIFE@Decoy@    10173f2c     ESP.obj
 0002:000a0f34       ??_C@_06DBOHLEHH@Elites@   10173f34     ESP.obj
 0002:000a0f3c       ??_C@_05LHCFENCM@Famas@    10173f3c     ESP.obj
 0002:000a0f44       ??_C@_09OMFOBOAC@FiveSeven@ 10173f44     ESP.obj
 0002:000a0f50       ??_C@_05LDPHIKKB@Flash@    10173f50     ESP.obj
 0002:000a0f58       ??_C@_05NANBJKGF@G3SG1@    10173f58     ESP.obj
 0002:000a0f60       ??_C@_05HIMKGMK@Galil@     10173f60     ESP.obj
 0002:000a0f68       ??_C@_05KPHPNOIE@Glock@    10173f68     ESP.obj
 0002:000a0f70       ??_C@_07OPFMIBLN@Molotov@  10173f70     ESP.obj
 0002:000a0f78       ??_C@_05GAJJNIIE@Scout@    10173f78     ESP.obj
 0002:000a0f80       ??_C@_07GIIHBBNN@Grenade@  10173f80     ESP.obj
 0002:000a0f88       ??_C@_04OOHKGEMG@M249@     10173f88     ESP.obj
 0002:000a0f90       ??_C@_04FBPCBLKJ@M4A1@     10173f90     ESP.obj
 0002:000a0f98       ??_C@_05OLCGHIJA@MAC10@    10173f98     ESP.obj
 0002:000a0fa0       ??_C@_04FPMEJADD@MAG7@     10173fa0     ESP.obj
 0002:000a0fa8       ??_C@_03ELHOCOIH@MP7@      10173fa8     ESP.obj
 0002:000a0fac       ??_C@_03NFPNADAJ@MP9@      10173fac     ESP.obj
 0002:000a0fb0       ??_C@_04JBMBEHJL@Nova@     10173fb0     ESP.obj
 0002:000a0fb8       ??_C@_05LLDFNFHM@Negev@    10173fb8     ESP.obj
 0002:000a0fc0       ??_C@_04KGAKOGIL@P250@     10173fc0     ESP.obj
 0002:000a0fc8       ??_C@_03OBEKMHKN@P90@      10173fc8     ESP.obj
 0002:000a0fcc       ??_C@_08OPKGKENO@SawedOff@ 10173fcc     ESP.obj
 0002:000a0fd8       ??_C@_06FFMBKLE@SCAR20@    10173fd8     ESP.obj
 0002:000a0fe0       ??_C@_05JKMIMLIP@Smoke@    10173fe0     ESP.obj
 0002:000a0fe8       ??_C@_05ECLNBOMB@SG556@    10173fe8     ESP.obj
 0002:000a0ff0       ??_C@_04CENMHHMF@TEC9@     10173ff0     ESP.obj
 0002:000a0ff8       ??_C@_05JCFEJGIP@P2000@    10173ff8     ESP.obj
 0002:000a1000       ??_C@_03PGCJBCMO@USP@      10174000     ESP.obj
 0002:000a1004       ??_C@_03OAJBJMLE@UMP@      10174004     ESP.obj
 0002:000a1008       ??_C@_06DDIGILCE@XM1014@   10174008     ESP.obj
 0002:000a1010       ??_C@_04BBKOFIDH@Zeus@     10174010     ESP.obj
 0002:000a1018       ??_C@_06FEKDEEJK@M4A1?9S@  10174018     ESP.obj
 0002:000a1020       ??_C@_03JOBGJDND@K?$CLH@   10174020     ESP.obj
 0002:000a1024       ??_C@_01IIACKFLH@q@        10174024     ESP.obj
 0002:000a1028       ??_C@_01JBBJJEPG@p@        10174028     ESP.obj
 0002:000a102c       __real@3ba3d70a            1017402c     ESP.obj
 0002:000a1030       __real@3cd013a9            10174030     ESP.obj
 0002:000a1034       __real@3ee66666            10174034     ESP.obj
 0002:000a1038       __real@3f333333            10174038     ESP.obj
 0002:000a1040       __real@3f91df46a2529d39    10174040     ESP.obj
 0002:000a1048       __real@3fa66666            10174048     ESP.obj
 0002:000a1050       __real@4004666666666666    10174050     ESP.obj
 0002:000a1058       __real@402c800000000000    10174058     ESP.obj
 0002:000a1060       __real@404ca5dc1a63c1f8    10174060     ESP.obj
 0002:000a1068       __real@406fe00000000000    10174068     ESP.obj
 0002:000a1070       __real@42140000            10174070     ESP.obj
 0002:000a1074       __real@42340000            10174074     ESP.obj
 0002:000a1078       __real@42975c29            10174078     ESP.obj
 0002:000a107c       __real@43e1599a            1017407c     ESP.obj
 0002:000a1080       __real@43fa0000            10174080     ESP.obj
 0002:000a1084       __real@44454ccd            10174084     ESP.obj
 0002:000a1088       __real@461c4000            10174088     ESP.obj
 0002:000a108c       __real@c0000000            1017408c     ESP.obj
 0002:000a1090       __xmm@00000000000000030000000300000002 10174090     ESP.obj
 0002:000a10a0       __xmm@00000002000000010000000100000000 101740a0     ESP.obj
 0002:000a10b0       __xmm@00000004000000070000000700000006 101740b0     ESP.obj
 0002:000a10c0       __xmm@00000005000000010000000400000000 101740c0     ESP.obj
 0002:000a10d0       __xmm@00000006000000050000000500000004 101740d0     ESP.obj
 0002:000a10e0       __xmm@00000007000000030000000600000002 101740e0     ESP.obj
 0002:000a10f0       __xmm@3a595f3a2b223a595f3a58223a2f2f1a 101740f0     ESP.obj
 0002:000a1100       __xmm@58223a2d2f3a2c2f3a253a253a253a25 10174100     ESP.obj
 0002:000a40c0       __real@3eb0c6f7a0b5ed8d    101770c0     GrenadePrediction.obj
 0002:000a40c8       __real@3f91df46a0000000    101770c8     GrenadePrediction.obj
 0002:000a40d0       __real@43a00000            101770d0     GrenadePrediction.obj
 0002:000a40d4       __real@43c80000            101770d4     GrenadePrediction.obj
 0002:000a40d8       __real@4428c000            101770d8     GrenadePrediction.obj
 0002:000a40dc       __real@bdcccccd            101770dc     GrenadePrediction.obj
 0002:000a40e0       __real@c2b40000            101770e0     GrenadePrediction.obj
 0002:000aa018       ??_C@_0BG@HGEDEDEC@invalid?5stoi?5argument@ 1017d018     Hooks.obj
 0002:000aa030       ??_C@_0BL@MFFNMGGC@stoi?5argument?5out?5of?5range@ 1017d030     Hooks.obj
 0002:000aa04c       ??_C@_0BE@FJNGABL@client_panorama?4dll@ 1017d04c     Hooks.obj
 0002:000aa060       ??_C@_0CK@CMLHGGBK@55?58B?5EC?583?5E4?5F8?583?5EC?564?553?55@ 1017d060     Hooks.obj
 0002:000aa08c       ??_C@_0O@BINGBKKN@m_iShotsFired@ 1017d08c     Hooks.obj
 0002:000aa09c       ??_C@_0M@LGBCIIFJ@DT_CSPlayer@ 1017d09c     Hooks.obj
 0002:000aa0ac       ??_7IGameEventListener2@@6B@ 1017d0ac     Hooks.obj
 0002:000aa0b8       ??_C@_01LFCBOECM@?4@       1017d0b8     Hooks.obj
 0002:000aa0bc       ??_C@_02DJGKEECL@?4?4@     1017d0bc     Hooks.obj
 0002:000aa0c0       ??_C@_01KICIPPFI@?2@       1017d0c0     Hooks.obj
 0002:000aa0c4       ??_C@_0L@EMPDFJNI@engine?4dll@ 1017d0c4     Hooks.obj
 0002:000aa0d0       ??_C@_0L@GIIKGOOG@xxxxx?$DP?$DP?$DP?$DPx@ 1017d0d0     Hooks.obj
 0002:000aa0dc       ??_C@_0L@IECMDEMM@?$INL$?$BM?h?$AA?$AA?$AA?$AAV@ 1017d0dc     Hooks.obj
 0002:000aa0e8       ??_C@_04MEMAJGDJ@name@     1017d0e8     Hooks.obj
 0002:000aa0f4       ??_7item_purchase_listener@item_purchase@@6B@ 1017d0f4     Hooks.obj
 0002:000aa100       ??_C@_0O@JAENPIHH@item_purchase@ 1017d100     Hooks.obj
 0002:000aa110       ??_C@_0M@GPCKBPEK@player_hurt@ 1017d110     Hooks.obj
 0002:000aa11c       ??_C@_0N@GOMMMMLG@player_death@ 1017d11c     Hooks.obj
 0002:000aa12c       ??_C@_0M@JAHFDNBP@game_newmap@ 1017d12c     Hooks.obj
 0002:000aa138       ??_C@_0BE@GOGBOANI@player_connect_full@ 1017d138     Hooks.obj
 0002:000aa14c       ??_C@_0M@JENCMODK@round_start@ 1017d14c     Hooks.obj
 0002:000aa158       ??_C@_0BF@IPBBDHEH@cs_game_disconnected@ 1017d158     Hooks.obj
 0002:000aa170       ??_C@_0O@FEPDDHEK@bullet_impact@ 1017d170     Hooks.obj
 0002:000aa180       ??_C@_0M@FAMFPMO@Weapons?5Log@ 1017d180     Hooks.obj
 0002:000aa18c       ??_C@_06IHAGGOEE@userid@   1017d18c     Hooks.obj
 0002:000aa194       ??_C@_06GEPNGEJI@weapon@   1017d194     Hooks.obj
 0002:000aa19c       ??_C@_07BGCKODOL@molotov@  1017d19c     Hooks.obj
 0002:000aa1a4       ??_C@_04MLBBKNLG@nade@     1017d1a4     Hooks.obj
 0002:000aa1ac       ??_C@_06OAGFEBMA@kevlar@   1017d1ac     Hooks.obj
 0002:000aa1b4       ??_C@_05BIGPPNGC@decoy@    1017d1b4     Hooks.obj
 0002:000aa1bc       ??_C@_04NHBLIOAO@suit@     1017d1bc     Hooks.obj
 0002:000aa1c4       ??_C@_05LEFLIPJH@flash@    1017d1c4     Hooks.obj
 0002:000aa1cc       ??_C@_04FOFDHAEH@vest@     1017d1cc     Hooks.obj
 0002:000aa1d4       ??_C@_06DIDIIJPA@cutter@   1017d1d4     Hooks.obj
 0002:000aa1dc       ??_C@_06EBPNENDG@defuse@   1017d1dc     Hooks.obj
 0002:000aa1e4       ??_C@_07MDJDKHIJ@weapon_@  1017d1e4     Hooks.obj
 0002:000aa1ec       ??_C@_0BH@HHIODPOL@?$FLTeam?$FN?5?$CFs?5bought?5a?5?$CFs?6@ 1017d1ec     Hooks.obj
 0002:000aa204       ??_C@_0BI@GCNEKIA@?$FLEnemy?$FN?5?$CFs?5bought?5a?5?$CFs?6@ 1017d204     Hooks.obj
 0002:000aa21c       ??_C@_07HJLPHLBA@DMG?5Log@ 1017d21c     Hooks.obj
 0002:000aa224       ??_C@_08MANLKGDL@attacker@ 1017d224     Hooks.obj
 0002:000aa230       ??_C@_08KBGNDPBA@hitgroup@ 1017d230     Hooks.obj
 0002:000aa23c       ??_C@_0L@CPHGICGA@dmg_health@ 1017d23c     Hooks.obj
 0002:000aa248       ??_C@_0BH@PGEALEOE@?$FLDmg?$FN?5?$CFs?5did?5?$CFi?5to?5?$CFs?6@ 1017d248     Hooks.obj
 0002:000aa260       ??_C@_01GLPGHMHM@z@        1017d260     Hooks.obj
 0002:000aa264       ??_C@_01EANLCPLP@y@        1017d264     Hooks.obj
 0002:000aa268       ??_C@_01FJMABOPO@x@        1017d268     Hooks.obj
 0002:000aa26c       ??_C@_0BF@KNFKMJNF@sprites?1physbeam?4vmt@ 1017d26c     Hooks.obj
 0002:000aa284       ??_C@_03PKPBNCAL@?o?$LL?$LP@ 1017d284     Hooks.obj
 0002:000aa288       ??_C@_02DEBJNODD@?$PP?$PO@ 1017d288     Hooks.obj
 0002:000aa28c       ??_C@_02CMMAIFEF@?$PO?$PP@ 1017d28c     Hooks.obj
 0002:000aa290       ??_C@_04JFAAKOPK@?$PP?$PO?$AA?$AA@ 1017d290     Hooks.obj
 0002:000aa298       ??_C@_04BFKDKLEK@?$AA?$AA?$PO?$PP@ 1017d298     Hooks.obj
 0002:000aa2a0       ??_C@_02JDPG@rb@           1017d2a0     Hooks.obj
 0002:000aa2a4       ??_C@_0BG@BBKNOMOH@invalid?5map?$DMK?0?5T?$DO?5key@ 1017d2a4     Hooks.obj
 0002:000aa2bc       ??_C@_0BL@KOKKEGGO@invalid?5deque?$DMT?$DO?5subscript@ 1017d2bc     Hooks.obj
 0002:000aa2d8       ??_C@_0BC@KBDMBKEH@deque?$DMT?$DO?5too?5long@ 1017d2d8     Hooks.obj
 0002:000aa2f0       ??_7?$_Ref_count_obj@VNode@valve_parser@@@std@@6B@ 1017d2f0     Hooks.obj
 0002:000aa300       ??_C@_0BB@MOGOBHAF@list?$DMT?$DO?5too?5long@ 1017d300     Hooks.obj
 0002:000aa314       __real@3c8efa35            1017d314     Hooks.obj
 0002:000aa318       __real@3ee66663            1017d318     Hooks.obj
 0002:000aa31c       __real@3f8ccccd            1017d31c     Hooks.obj
 0002:000aa320       __real@3fcc28f5c28f5c29    1017d320     Hooks.obj
 0002:000aa328       __real@3fdccccccccccccd    1017d328     Hooks.obj
 0002:000aa330       __real@3fe0000000000000    1017d330     Hooks.obj
 0002:000aa338       __real@3fe6666666666666    1017d338     Hooks.obj
 0002:000aa340       __real@3feccccccccccccd    1017d340     Hooks.obj
 0002:000aa348       __real@3ff199999999999a    1017d348     Hooks.obj
 0002:000aa350       __real@3ffa666666666666    1017d350     Hooks.obj
 0002:000aa358       __real@400921fb54442d18    1017d358     Hooks.obj
 0002:000aa360       __real@4066800000000000    1017d360     Hooks.obj
 0002:000aa368       __real@41300000            1017d368     Hooks.obj
 0002:000aa36c       __real@41c80000            1017d36c     Hooks.obj
 0002:000aa370       __real@420c0000            1017d370     Hooks.obj
 0002:000aa374       __real@42100000            1017d374     Hooks.obj
 0002:000aa378       __real@42480000            1017d378     Hooks.obj
 0002:000aa37c       __real@42652ee0            1017d37c     Hooks.obj
 0002:000aa380       __real@42b20000            1017d380     Hooks.obj
 0002:000aa384       __real@43160000            1017d384     Hooks.obj
 0002:000aa388       __real@43340000            1017d388     Hooks.obj
 0002:000aa38c       __real@43870000            1017d38c     Hooks.obj
 0002:000aa390       __real@43e10000            1017d390     Hooks.obj
 0002:000aa394       __real@c2b20000            1017d394     Hooks.obj
 0002:000aa398       __real@c3340000            1017d398     Hooks.obj
 0002:000aa39c       __real@c3e10000            1017d39c     Hooks.obj
 0002:000aa3a0       __xmm@00020f12171a0e2a5b15140b1a1e2c7b 1017d3a0     Hooks.obj
 0002:000aa3b0       __xmm@00191f2a101f123d5e1b0d1111163d7e 1017d3b0     Hooks.obj
 0002:000aa3c0       __xmm@00262e2b2a21623b2e2a3630372d2442 1017d3c0     Hooks.obj
 0002:000aa3d0       __xmm@00323335283f392e2e331f7c051e105c 1017d3d0     Hooks.obj
 0002:000aa3e0       __xmm@004640554f404d620144464f40496221 1017d3e0     Hooks.obj
 0002:000aa3f0       __xmm@004741744e414c63004d4f5453556320 1017d3f0     Hooks.obj
 0002:000aa400       __xmm@004a4b5c5e5e587d194e565d58516a39 1017d400     Hooks.obj
 0002:000aa410       __xmm@0053524550494e73005245544c496620 1017d410     Hooks.obj
 0002:000aa420       __xmm@0054436e0c4040454a0c4d445c406d2c 1017d420     Hooks.obj
 0002:000aa430       __xmm@006976655f2c676f6d7e78676f6d4e0c 1017d430     Hooks.obj
 0002:000aa440       __xmm@006a63647e7e686e627f5d797e625d0d 1017d440     Hooks.obj
 0002:000aa450       __xmm@006c6b7c7e6f72563f6b7a73736a5d1f 1017d450     Hooks.obj
 0002:000aa460       __xmm@007237353c330072203726263b181452 1017d460     Hooks.obj
 0002:000aa470       __xmm@00797e64412d7f62796c796e687d5e0d 1017d470     Hooks.obj
 0002:000aa480       __xmm@007b7a7c61767067677a56354c575915 1017d480     Hooks.obj
 0002:000aa490       __xmm@012c4d03021d0c083a4d1e000c052e6d 1017d490     Hooks.obj
 0002:000aa4a0       __xmm@040d05224b190e120a073b4b3b382e6b 1017d4a0     Hooks.obj
 0002:000aa4b0       __xmm@07101a17160123531617121d16013473 1017d4b0     Hooks.obj
 0002:000aa4c0       __xmm@07404e41494864074f54425541427527 1017d4c0     Hooks.obj
 0002:000aa4d0       __xmm@08000912120e1322410d080e02043361 1017d4d0     Hooks.obj
 0002:000aa4e0       __xmm@097d2e38313b340f7d2f382931341b5d 1017d4e0     Hooks.obj
 0002:000aa4f0       __xmm@0c5f4043585f457c0c5e495840456a2c 1017d4f0     Hooks.obj
 0002:000aa500       __xmm@0d050c17170b1627441601140d0a3764 1017d500     Hooks.obj
 0002:000aa510       __xmm@0d080c1b193a491b0c1f05061a0c3b69 1017d510     Hooks.obj
 0002:000aa520       __xmm@0d0e0106234811040e1a0d1c1c1d2a68 1017d520     Hooks.obj
 0002:000aa530       __xmm@0e1f0d0a4b0e0819040d0e1f1e19296b 1017d530     Hooks.obj
 0002:000aa540       __xmm@0f12315b1e101a3d5b1e17191a153e7b 1017d540     Hooks.obj
 0002:000aa550       __xmm@1d0613111b161c3b521c171700112172 1017d550     Hooks.obj
 0002:000aa560       __xmm@2029312d0061232c2e0361362e2d0641 1017d560     Hooks.obj
 0002:000aa570       __xmm@2945011c0629480f0924480d03092e68 1017d570     Hooks.obj
 0002:000aa580       __xmm@2c2c302d1c7f33333e087f302b2a1e5f 1017d580     Hooks.obj
 0002:000aa590       __xmm@30372c212e2a226060372c212e2a0243 1017d590     Hooks.obj
 0002:000aa5a0       __xmm@35280b612d20241361242d23202f0441 1017d5a0     Hooks.obj
 0002:000aa5b0       __xmm@3c21203f2e2a383d2a3b2326294c4c6f 1017d5b0     Hooks.obj
 0002:000aa5c0       __xmm@3d13781511191a782c373a3d3f390a58 1017d5c0     Hooks.obj
 0002:000aa5d0       __xmm@3d372402223722057638392637330156 1017d5d0     Hooks.obj
 0002:000aa5e0       __xmm@3e3b2f0a7f061d137f3831362930125f 1017d5e0     Hooks.obj
 0002:000aa5f0       __xmm@3e4ccccd437f00004000000000000000 1017d5f0     Hooks.obj
 0002:000aa600       __xmm@3f713427300271777134253034231251 1017d600     Hooks.obj
 0002:000aa610       __xmm@3f800000000000003f00000000000000 1017d610     Hooks.obj
 0002:000aa620       __xmm@3f8000003d20a0a13d20a0a13d20a0a1 1017d620     Hooks.obj
 0002:000aa630       __xmm@3f8000003da8a8a93da8a8a93da8a8a9 1017d630     Hooks.obj
 0002:000aa640       __xmm@424b5e537407554e464f545448556427 1017d640     Hooks.obj
 0002:000aa650       __xmm@42c80000431600004248000042480000 1017d650     Hooks.obj
 0002:000aa660       __xmm@43584d4f454842650c4249495e4f7f2c 1017d660     Hooks.obj
 0002:000aa670       __xmm@437f0000000000000000000000000000 1017d670     Hooks.obj
 0002:000aa680       __xmm@437f00000000000000000000437f0000 1017d680     Hooks.obj
 0002:000aa690       __xmm@465c535e71565746535f5b5c73111132 1017d690     Hooks.obj
 0002:000aa6a0       __xmm@466e02465b416e0f484e634a444e692f 1017d6a0     Hooks.obj
 0002:000aa6b0       __xmm@4a6c18414e595d70184a5d4c54517e38 1017d6b0     Hooks.obj
 0002:000aa6c0       __xmm@4c287b666778696d5f287b6569604b08 1017d6c0     Hooks.obj
 0002:000aa6d0       __xmm@4c620947465a5b4c79094d5b40417d29 1017d6d0     Hooks.obj
 0002:000aa6e0       __xmm@4e4855516e015348404952524e536221 1017d6e0     Hooks.obj
 0002:000aa6f0       __xmm@4e527f1e50514e5f5b691e495152793e 1017d6f0     Hooks.obj
 0002:000aa700       __xmm@4f404b0e5a40414a0e4b5d4f4b427e2e 1017d700     Hooks.obj
 0002:000aa710       __xmm@4f41424d660346404d424b40574a6b23 1017d710     Hooks.obj
 0002:000aa720       __xmm@515f446216515b65164453425a5f7036 1017d720     Hooks.obj
 0002:000aa730       __xmm@53141216375c4b21530116071f1a3573 1017d730     Hooks.obj
 0002:000aa740       __xmm@5479184a5d41595468184b5559507b38 1017d740     Hooks.obj
 0002:000aa750       __xmm@5b476a0b584f454a630b58464a43682b 1017d750     Hooks.obj
 0002:000aa760       __xmm@5c404e514d424c494d56444943060625 1017d760     Hooks.obj
 0002:000aa770       __xmm@5c4b4a42475b6c0e465a414c0e4b424c 1017d770     Hooks.obj
 0002:000aa780       __xmm@5c555b58577c1954507814504d577839 1017d780     Hooks.obj
 0002:000aa790       __xmm@5d6f6f0e5a4b5d034b5c7e0e4a404f0e 1017d790     Hooks.obj
 0002:000aa7a0       __xmm@5e554f556a52751c525d5f4f4855743c 1017d7a0     Hooks.obj
 0002:000aa7b0       __xmm@666b7d604129626a687b7d626a684b09 1017d7b0     Hooks.obj
 0002:000aa7c0       __xmm@666e73696624246a6e46276e73694607 1017d7c0     Hooks.obj
 0002:000aa7d0       __xmm@686f6976785d3c72737568756f734c1c 1017d7d0     Hooks.obj
 0002:000aa7e0       __xmm@723d30555c534259733d3043455c6030 1017d7e0     Hooks.obj
 0002:000aa7f0       __xmm@78797f626659366278737b7360795b16 1017d7f0     Hooks.obj
 0002:000aa800       __xmm@7a7a667b4a296565685e24667d7c4809 1017d800     Hooks.obj
 0002:000aa810       __xmm@7b636b615c28636b697a7c636b694a08 1017d810     Hooks.obj
 0002:000aa820       __xmm@7b7576795237657e767f646478655417 1017d820     Hooks.obj
 0002:000aa830       __xmm@7c604d2c7e69756d605c2c7b63604b0c 1017d830     Hooks.obj
 0002:000aa840       __xmm@7c6160667b7f402f7c61607f6e6a580f 1017d840     Hooks.obj
 0002:000aa850       __xmm@7f4a707f725d3e7a7b6a7f7377705f1e 1017d850     Hooks.obj
 0002:000ac5b4       ??_C@_0BA@OBHPCBFP@CreateInterface@ 1017f5b4     Interfaces.obj
 0002:000af35c       ??_C@_0M@MPLEGCP@RandomFloat@ 1018235c     LegitBot.obj
 0002:000af368       ??_C@_0M@EINGCJHB@vstdlib?4dll@ 10182368     LegitBot.obj
 0002:000af374       __real@3ca3d70a            10182374     LegitBot.obj
 0002:000af378       __real@42652ee1            10182378     LegitBot.obj
 0002:000af37c       __real@46000000            1018237c     LegitBot.obj
 0002:000af3c0       __real@40490fdb            101823c0     MathFunctions.obj
 0002:000af3c8       __real@404ca5dc20000000    101823c8     MathFunctions.obj
 0002:000b45e0       ??_C@_09CPPOEBIG@xxxxxxxxx@ 101875e0     Misc.obj
 0002:000b45ec       ??_C@_09JNDMODPH@SVW?$IL?Z?$IL?y?$PP?$BF@ 101875ec     Misc.obj
 0002:000b45f8       ??_C@_02JOGGLHBA@?2n@      101875f8     Misc.obj
 0002:000b45fc       ??_C@_02COELENML@?2t@      101875fc     Misc.obj
 0002:000b4600       ??_C@_01EEMJAFIK@?6@       10187600     Misc.obj
 0002:000b4604       ??_C@_01GPOEFGEJ@?7@       10187604     Misc.obj
 0002:000b4608       ??_C@_0KK@FKFOCBJC@55?58B?5EC?58B?50D?5?$DP?5?$DP?5?$DP?5?$DP?585?5C9?575@ 10187608     Misc.obj
 0002:000b46b4       ??_C@_1CI@HAEIECDH@?$AAc?$AAl?$AAi?$AAe?$AAn?$AAt?$AA_?$AAp?$AAa?$AAn?$AAo?$AAr?$AAa?$AAm?$AAa@ 101876b4     Misc.obj
 0002:000b46dc       __real@3c75c28f            101876dc     Misc.obj
 0002:000b46e0       __real@3f01a9fc            101876e0     Misc.obj
 0002:000b46e8       __real@3f1921fb60000000    101876e8     Misc.obj
 0002:000b46f0       __real@3f947ae147ae147b    101876f0     Misc.obj
 0002:000b46f8       __real@3fb999999999999a    101876f8     Misc.obj
 0002:000b4700       __real@3fd54fdf3b645a1d    10187700     Misc.obj
 0002:000b4708       __real@3fd921fb60000000    10187708     Misc.obj
 0002:000b4710       __real@3fe921fb60000000    10187710     Misc.obj
 0002:000b4718       __real@3ff2d97c88000000    10187718     Misc.obj
 0002:000b4720       __real@3ff921fb60000000    10187720     Misc.obj
 0002:000b4728       __real@4004000000000000    10187728     Misc.obj
 0002:000b4730       __real@400921fb60000000    10187730     Misc.obj
 0002:000b4738       __real@403e000000000000    10187738     Misc.obj
 0002:000b4740       __real@42000000            10187740     Misc.obj
 0002:000b4744       __real@437a0000            10187744     Misc.obj
 0002:000b4748       __real@45800000            10187748     Misc.obj
 0002:000b73d0       __real@3fc657184ae74487    1018a3d0     RageBot.obj
 0002:000b73d8       __real@3fe0c152382d7365    1018a3d8     RageBot.obj
 0002:000b73e0       __real@401c000000000000    1018a3e0     RageBot.obj
 0002:000b73e8       __real@4033000000000000    1018a3e8     RageBot.obj
 0002:000b73f0       __real@406bcfc0659b6018    1018a3f0     RageBot.obj
 0002:000b73f8       __real@4076800000000000    1018a3f8     RageBot.obj
 0002:000b7400       __real@42820000            1018a400     RageBot.obj
 0002:000b7404       __real@42960000            1018a404     RageBot.obj
 0002:000b7408       __real@42d20000            1018a408     RageBot.obj
 0002:000b740c       __real@42dc0000            1018a40c     RageBot.obj
 0002:000b7410       __real@42e60000            1018a410     RageBot.obj
 0002:000b7414       __real@42ec0000            1018a414     RageBot.obj
 0002:000b7418       __real@42fa0000            1018a418     RageBot.obj
 0002:000b741c       __real@43070000            1018a41c     RageBot.obj
 0002:000b7420       __real@43110000            1018a420     RageBot.obj
 0002:000b7424       __real@431b0000            1018a424     RageBot.obj
 0002:000b7428       __real@c3000000            1018a428     RageBot.obj
 0002:000b8ac8       __real@401921fb54442d18    1018bac8     Render.obj
 0002:000ba41c       __real@41700000            1018d41c     Resolver2.obj
 0002:000ba420       __real@42200000            1018d420     Resolver2.obj
 0002:000ba424       __real@428c0000            1018d424     Resolver2.obj
 0002:000ba428       __real@430c0000            1018d428     Resolver2.obj
 0002:000ba42c       __real@43200000            1018d42c     Resolver2.obj
 0002:000ba430       __real@43480000            1018d430     Resolver2.obj
 0002:000ba434       __real@435c0000            1018d434     Resolver2.obj
 0002:000ba438       __real@43700000            1018d438     Resolver2.obj
 0002:000ba43c       __real@43820000            1018d43c     Resolver2.obj
 0002:000ba440       __real@438c0000            1018d440     Resolver2.obj
 0002:000ba444       __real@43960000            1018d444     Resolver2.obj
 0002:000ba448       __real@43a50000            1018d448     Resolver2.obj
 0002:000ba44c       __real@43aa0000            1018d44c     Resolver2.obj
 0002:000ba450       __real@43ac8000            1018d450     Resolver2.obj
 0002:000ba454       __real@43af0000            1018d454     Resolver2.obj
 0002:000bc3b8       ??_7runtime_error@std@@6B@ 1018f3b8     SkinChanger.obj
 0002:000bc3c4       ??_7range_error@std@@6B@   1018f3c4     SkinChanger.obj
 0002:000bc3cc       ??_C@_01NBENCBCI@?$CK@     1018f3cc     SkinChanger.obj
 0002:000bc3d4       ??_7?$codecvt_utf8_utf16@_W$0BAPPPP@$0A@@std@@6B@ 1018f3d4     SkinChanger.obj
 0002:000bc400       ??_7?$wstring_convert@V?$codecvt_utf8_utf16@_W$0BAPPPP@$0A@@std@@_WV?$allocator@_W@2@V?$allocator@D@2@@std@@6B@ 1018f400     SkinChanger.obj
 0002:000bc404       ??_C@_0P@MNLEEHMK@bad?5conversion@ 1018f404     SkinChanger.obj
 0002:000bc414       __real@2edbe6ff            1018f414     SkinChanger.obj
 0002:000bf0ac       __real@46fffe00            101920ac     MiscFunctions.obj
 0002:000bf0b0       __real@bc23d70a            101920b0     MiscFunctions.obj
 0002:000bf0bc       ??_7type_info@@6B@         101920bc     MSVCRT:std_type_info_static.obj
 0002:000bf158       ??_C@_1EC@JIJBPKFM@?$AAa?$AAp?$AAi?$AA?9?$AAm?$AAs?$AA?9?$AAw?$AAi?$AAn?$AA?9?$AAc?$AAo?$AAr?$AAe@ 10192158     MSVCRT:thread_safe_statics.obj
 0002:000bf19c       ??_C@_1BK@MGMFAEKH@?$AAk?$AAe?$AAr?$AAn?$AAe?$AAl?$AA3?$AA2?$AA?4?$AAd?$AAl?$AAl@ 1019219c     MSVCRT:thread_safe_statics.obj
 0002:000bf1b8       ??_C@_0BM@HLJJNPAH@InitializeConditionVariable@ 101921b8     MSVCRT:thread_safe_statics.obj
 0002:000bf1d4       ??_C@_0BJ@JEBJOJFJ@SleepConditionVariableCS@ 101921d4     MSVCRT:thread_safe_statics.obj
 0002:000bf1f0       ??_C@_0BJ@PGPPEPCC@WakeAllConditionVariable@ 101921f0     MSVCRT:thread_safe_statics.obj
 0002:000bf260       __pDefaultRawDllMain       10192260     MSVCRT:dll_dllmain.obj
 0002:000bf260       __pRawDllMain              10192260     MSVCRT:dll_dllmain.obj
 0002:000bf268       ??_7bad_alloc@std@@6B@     10192268     MSVCRT:throw_bad_alloc.obj
 0002:000bf270       ??_C@_0P@GHFPNOJB@bad?5allocation@ 10192270     MSVCRT:throw_bad_alloc.obj
 0002:000bf284       ??_7bad_array_new_length@std@@6B@ 10192284     MSVCRT:throw_bad_alloc.obj
 0002:000bf28c       ??_C@_0BF@KINCDENJ@bad?5array?5new?5length@ 1019228c     MSVCRT:throw_bad_alloc.obj
 0002:000bf308       __load_config_used         10192308     MSVCRT:loadcfg.obj
 0002:000bf3a8       __tls_used                 101923a8     MSVCRT:tlssup.obj
 0002:000bf3c0       ??_R4?$basic_filebuf@DU?$char_traits@D@std@@@std@@6B@ 101923c0     CSX_Log.obj
 0002:000bf3d4       ??_R3?$basic_filebuf@DU?$char_traits@D@std@@@std@@8 101923d4     CSX_Log.obj
 0002:000bf3e4       ??_R2?$basic_filebuf@DU?$char_traits@D@std@@@std@@8 101923e4     CSX_Log.obj
 0002:000bf3f0       ??_R1A@?0A@EA@?$basic_filebuf@DU?$char_traits@D@std@@@std@@8 101923f0     CSX_Log.obj
 0002:000bf40c       ??_R1A@?0A@EA@?$basic_streambuf@DU?$char_traits@D@std@@@std@@8 1019240c     CSX_Log.obj
 0002:000bf428       ??_R3?$basic_streambuf@DU?$char_traits@D@std@@@std@@8 10192428     CSX_Log.obj
 0002:000bf438       ??_R2?$basic_streambuf@DU?$char_traits@D@std@@@std@@8 10192438     CSX_Log.obj
 0002:000bf440       ??_R4?$basic_ofstream@DU?$char_traits@D@std@@@std@@6B@ 10192440     CSX_Log.obj
 0002:000bf454       ??_R3?$basic_ofstream@DU?$char_traits@D@std@@@std@@8 10192454     CSX_Log.obj
 0002:000bf464       ??_R2?$basic_ofstream@DU?$char_traits@D@std@@@std@@8 10192464     CSX_Log.obj
 0002:000bf47c       ??_R1A@?0A@EA@?$basic_ofstream@DU?$char_traits@D@std@@@std@@8 1019247c     CSX_Log.obj
 0002:000bf498       ??_R1A@?0A@EA@?$basic_ostream@DU?$char_traits@D@std@@@std@@8 10192498     CSX_Log.obj
 0002:000bf4b4       ??_R3?$basic_ostream@DU?$char_traits@D@std@@@std@@8 101924b4     CSX_Log.obj
 0002:000bf4c4       ??_R2?$basic_ostream@DU?$char_traits@D@std@@@std@@8 101924c4     CSX_Log.obj
 0002:000bf4d8       ??_R1A@A@3FA@?$basic_ios@DU?$char_traits@D@std@@@std@@8 101924d8     CSX_Log.obj
 0002:000bf4f4       ??_R3?$basic_ios@DU?$char_traits@D@std@@@std@@8 101924f4     CSX_Log.obj
 0002:000bf504       ??_R2?$basic_ios@DU?$char_traits@D@std@@@std@@8 10192504     CSX_Log.obj
 0002:000bf514       ??_R1A@?0A@EA@?$basic_ios@DU?$char_traits@D@std@@@std@@8 10192514     CSX_Log.obj
 0002:000bf530       ??_R1A@?0A@EA@ios_base@std@@8 10192530     CSX_Log.obj
 0002:000bf54c       ??_R3ios_base@std@@8       1019254c     CSX_Log.obj
 0002:000bf55c       ??_R2ios_base@std@@8       1019255c     CSX_Log.obj
 0002:000bf568       ??_R17?0A@EA@?$_Iosb@H@std@@8 10192568     CSX_Log.obj
 0002:000bf584       ??_R3?$_Iosb@H@std@@8      10192584     CSX_Log.obj
 0002:000bf594       ??_R2?$_Iosb@H@std@@8      10192594     CSX_Log.obj
 0002:000bf59c       ??_R1A@?0A@EA@?$_Iosb@H@std@@8 1019259c     CSX_Log.obj
 0002:000bf5b8       ??_R1A@A@3EA@ios_base@std@@8 101925b8     CSX_Log.obj
 0002:000bf5d4       ??_R17A@3EA@?$_Iosb@H@std@@8 101925d4     CSX_Log.obj
 0002:000bf5f0       ??_R4exception@std@@6B@    101925f0     CSX_Log.obj
 0002:000bf604       ??_R3exception@std@@8      10192604     CSX_Log.obj
 0002:000bf614       ??_R2exception@std@@8      10192614     CSX_Log.obj
 0002:000bf61c       ??_R1A@?0A@EA@exception@std@@8 1019261c     CSX_Log.obj
 0002:000bf638       ??_R4bad_cast@std@@6B@     10192638     CSX_Log.obj
 0002:000bf64c       ??_R3bad_cast@std@@8       1019264c     CSX_Log.obj
 0002:000bf65c       ??_R2bad_cast@std@@8       1019265c     CSX_Log.obj
 0002:000bf668       ??_R1A@?0A@EA@bad_cast@std@@8 10192668     CSX_Log.obj
 0002:000bf684       ??_R3_Ref_count_base@std@@8 10192684     SkinParser.obj
 0002:000bf694       ??_R2_Ref_count_base@std@@8 10192694     SkinParser.obj
 0002:000bf69c       ??_R1A@?0A@EA@_Ref_count_base@std@@8 1019269c     SkinParser.obj
 0002:000bf6b8       ??_R4KeyValue@valve_parser@@6B@ 101926b8     SkinParser.obj
 0002:000bf6cc       ??_R3KeyValue@valve_parser@@8 101926cc     SkinParser.obj
 0002:000bf6dc       ??_R2KeyValue@valve_parser@@8 101926dc     SkinParser.obj
 0002:000bf6e8       ??_R1A@?0A@EA@KeyValue@valve_parser@@8 101926e8     SkinParser.obj
 0002:000bf704       ??_R1A@?0A@EA@Node@valve_parser@@8 10192704     SkinParser.obj
 0002:000bf720       ??_R3Node@valve_parser@@8  10192720     SkinParser.obj
 0002:000bf730       ??_R2Node@valve_parser@@8  10192730     SkinParser.obj
 0002:000bf738       ??_R4Object@valve_parser@@6B@ 10192738     SkinParser.obj
 0002:000bf74c       ??_R3Object@valve_parser@@8 1019274c     SkinParser.obj
 0002:000bf75c       ??_R2Object@valve_parser@@8 1019275c     SkinParser.obj
 0002:000bf768       ??_R1A@?0A@EA@Object@valve_parser@@8 10192768     SkinParser.obj
 0002:000bf784       ??_R4Node@valve_parser@@6B@ 10192784     SkinParser.obj
 0002:000bf798       ??_R4?$_Ref_count_obj@VObject@valve_parser@@@std@@6B@ 10192798     SkinParser.obj
 0002:000bf7ac       ??_R3?$_Ref_count_obj@VObject@valve_parser@@@std@@8 101927ac     SkinParser.obj
 0002:000bf7bc       ??_R2?$_Ref_count_obj@VObject@valve_parser@@@std@@8 101927bc     SkinParser.obj
 0002:000bf7c8       ??_R1A@?0A@EA@?$_Ref_count_obj@VObject@valve_parser@@@std@@8 101927c8     SkinParser.obj
 0002:000bf7e4       ??_R4?$_Ref_count_obj@VKeyValue@valve_parser@@@std@@6B@ 101927e4     SkinParser.obj
 0002:000bf7f8       ??_R3?$_Ref_count_obj@VKeyValue@valve_parser@@@std@@8 101927f8     SkinParser.obj
 0002:000bf808       ??_R2?$_Ref_count_obj@VKeyValue@valve_parser@@@std@@8 10192808     SkinParser.obj
 0002:000bf814       ??_R1A@?0A@EA@?$_Ref_count_obj@VKeyValue@valve_parser@@@std@@8 10192814     SkinParser.obj
 0002:000bf830       ??_R3ITraceFilter@@8       10192830     Autowall.obj
 0002:000bf840       ??_R2ITraceFilter@@8       10192840     Autowall.obj
 0002:000bf848       ??_R1A@?0A@EA@ITraceFilter@@8 10192848     Autowall.obj
 0002:000bf864       ??_R4CTraceFilter@@6B@     10192864     Autowall.obj
 0002:000bf878       ??_R3CTraceFilter@@8       10192878     Autowall.obj
 0002:000bf888       ??_R2CTraceFilter@@8       10192888     Autowall.obj
 0002:000bf894       ??_R1A@?0A@EA@CTraceFilter@@8 10192894     Autowall.obj
 0002:000bf8b0       ??_R4IGameEventListener2@@6B@ 101928b0     Hooks.obj
 0002:000bf8c4       ??_R3IGameEventListener2@@8 101928c4     Hooks.obj
 0002:000bf8d4       ??_R2IGameEventListener2@@8 101928d4     Hooks.obj
 0002:000bf8dc       ??_R1A@?0A@EA@IGameEventListener2@@8 101928dc     Hooks.obj
 0002:000bf8f8       ??_R4item_purchase_listener@item_purchase@@6B@ 101928f8     Hooks.obj
 0002:000bf90c       ??_R3item_purchase_listener@item_purchase@@8 1019290c     Hooks.obj
 0002:000bf91c       ??_R2item_purchase_listener@item_purchase@@8 1019291c     Hooks.obj
 0002:000bf928       ??_R1A@?0A@EA@item_purchase_listener@item_purchase@@8 10192928     Hooks.obj
 0002:000bf944       ??_R4?$_Ref_count_obj@VNode@valve_parser@@@std@@6B@ 10192944     Hooks.obj
 0002:000bf958       ??_R3?$_Ref_count_obj@VNode@valve_parser@@@std@@8 10192958     Hooks.obj
 0002:000bf968       ??_R2?$_Ref_count_obj@VNode@valve_parser@@@std@@8 10192968     Hooks.obj
 0002:000bf974       ??_R1A@?0A@EA@?$_Ref_count_obj@VNode@valve_parser@@@std@@8 10192974     Hooks.obj
 0002:000bf990       ??_R4runtime_error@std@@6B@ 10192990     SkinChanger.obj
 0002:000bf9a4       ??_R3runtime_error@std@@8  101929a4     SkinChanger.obj
 0002:000bf9b4       ??_R2runtime_error@std@@8  101929b4     SkinChanger.obj
 0002:000bf9c0       ??_R1A@?0A@EA@runtime_error@std@@8 101929c0     SkinChanger.obj
 0002:000bf9dc       ??_R4range_error@std@@6B@  101929dc     SkinChanger.obj
 0002:000bf9f0       ??_R3range_error@std@@8    101929f0     SkinChanger.obj
 0002:000bfa00       ??_R2range_error@std@@8    10192a00     SkinChanger.obj
 0002:000bfa10       ??_R1A@?0A@EA@range_error@std@@8 10192a10     SkinChanger.obj
 0002:000bfa2c       ??_R1A@?0A@EA@codecvt_base@std@@8 10192a2c     SkinChanger.obj
 0002:000bfa48       ??_R3codecvt_base@std@@8   10192a48     SkinChanger.obj
 0002:000bfa58       ??_R2codecvt_base@std@@8   10192a58     SkinChanger.obj
 0002:000bfa6c       ??_R1A@?0A@EA@facet@locale@std@@8 10192a6c     SkinChanger.obj
 0002:000bfa88       ??_R3facet@locale@std@@8   10192a88     SkinChanger.obj
 0002:000bfa98       ??_R2facet@locale@std@@8   10192a98     SkinChanger.obj
 0002:000bfaa8       ??_R1A@?0A@EA@_Facet_base@std@@8 10192aa8     SkinChanger.obj
 0002:000bfac4       ??_R3_Facet_base@std@@8    10192ac4     SkinChanger.obj
 0002:000bfad4       ??_R2_Facet_base@std@@8    10192ad4     SkinChanger.obj
 0002:000bfadc       ??_R13?0A@EA@_Crt_new_delete@std@@8 10192adc     SkinChanger.obj
 0002:000bfaf8       ??_R3_Crt_new_delete@std@@8 10192af8     SkinChanger.obj
 0002:000bfb08       ??_R2_Crt_new_delete@std@@8 10192b08     SkinChanger.obj
 0002:000bfb10       ??_R1A@?0A@EA@_Crt_new_delete@std@@8 10192b10     SkinChanger.obj
 0002:000bfb2c       ??_R3?$codecvt@_WDU_Mbstatet@@@std@@8 10192b2c     SkinChanger.obj
 0002:000bfb3c       ??_R2?$codecvt@_WDU_Mbstatet@@@std@@8 10192b3c     SkinChanger.obj
 0002:000bfb54       ??_R1A@?0A@EA@?$codecvt@_WDU_Mbstatet@@@std@@8 10192b54     SkinChanger.obj
 0002:000bfb70       ??_R4?$codecvt_utf8_utf16@_W$0BAPPPP@$0A@@std@@6B@ 10192b70     SkinChanger.obj
 0002:000bfb84       ??_R3?$codecvt_utf8_utf16@_W$0BAPPPP@$0A@@std@@8 10192b84     SkinChanger.obj
 0002:000bfb94       ??_R2?$codecvt_utf8_utf16@_W$0BAPPPP@$0A@@std@@8 10192b94     SkinChanger.obj
 0002:000bfbb0       ??_R1A@?0A@EA@?$codecvt_utf8_utf16@_W$0BAPPPP@$0A@@std@@8 10192bb0     SkinChanger.obj
 0002:000bfbcc       ??_R4?$wstring_convert@V?$codecvt_utf8_utf16@_W$0BAPPPP@$0A@@std@@_WV?$allocator@_W@2@V?$allocator@D@2@@std@@6B@ 10192bcc     SkinChanger.obj
 0002:000bfbe0       ??_R3?$wstring_convert@V?$codecvt_utf8_utf16@_W$0BAPPPP@$0A@@std@@_WV?$allocator@_W@2@V?$allocator@D@2@@std@@8 10192be0     SkinChanger.obj
 0002:000bfbf0       ??_R2?$wstring_convert@V?$codecvt_utf8_utf16@_W$0BAPPPP@$0A@@std@@_WV?$allocator@_W@2@V?$allocator@D@2@@std@@8 10192bf0     SkinChanger.obj
 0002:000bfbf8       ??_R1A@?0A@EA@?$wstring_convert@V?$codecvt_utf8_utf16@_W$0BAPPPP@$0A@@std@@_WV?$allocator@_W@2@V?$allocator@D@2@@std@@8 10192bf8     SkinChanger.obj
 0002:000bfc14       ??_R4type_info@@6B@        10192c14     MSVCRT:std_type_info_static.obj
 0002:000bfc28       ??_R3type_info@@8          10192c28     MSVCRT:std_type_info_static.obj
 0002:000bfc38       ??_R2type_info@@8          10192c38     MSVCRT:std_type_info_static.obj
 0002:000bfc40       ??_R1A@?0A@EA@type_info@@8 10192c40     MSVCRT:std_type_info_static.obj
 0002:000bfc5c       ??_R4bad_alloc@std@@6B@    10192c5c     MSVCRT:throw_bad_alloc.obj
 0002:000bfc70       ??_R3bad_alloc@std@@8      10192c70     MSVCRT:throw_bad_alloc.obj
 0002:000bfc80       ??_R2bad_alloc@std@@8      10192c80     MSVCRT:throw_bad_alloc.obj
 0002:000bfc8c       ??_R1A@?0A@EA@bad_alloc@std@@8 10192c8c     MSVCRT:throw_bad_alloc.obj
 0002:000bfca8       ??_R4bad_array_new_length@std@@6B@ 10192ca8     MSVCRT:throw_bad_alloc.obj
 0002:000bfcbc       ??_R3bad_array_new_length@std@@8 10192cbc     MSVCRT:throw_bad_alloc.obj
 0002:000bfccc       ??_R2bad_array_new_length@std@@8 10192ccc     MSVCRT:throw_bad_alloc.obj
 0002:000bfcdc       ??_R1A@?0A@EA@bad_array_new_length@std@@8 10192cdc     MSVCRT:throw_bad_alloc.obj
 0002:000c007c       ___rtc_iaa                 1019307c     MSVCRT:_initsect_.obj
 0002:000c0080       ___rtc_izz                 10193080     MSVCRT:_initsect_.obj
 0002:000c0084       ___rtc_taa                 10193084     MSVCRT:_initsect_.obj
 0002:000c0088       ___rtc_tzz                 10193088     MSVCRT:_initsect_.obj
 0002:000c008c       __tls_start                1019308c     MSVCRT:tlssup.obj
 0002:000c0090       __Init_thread_epoch        10193090     MSVCRT:thread_safe_statics.obj
 0002:000c0094       __tls_end                  10193094     MSVCRT:tlssup.obj
 0002:000c02f8       __CT??_R0?AVexception@std@@@8??0exception@std@@QAE@ABV01@@Z12 101932f8     CSX_Log.obj
 0002:000c0314       __TI2?AVbad_cast@std@@     10193314     CSX_Log.obj
 0002:000c0324       __CTA2?AVbad_cast@std@@    10193324     CSX_Log.obj
 0002:000c0330       __CT??_R0?AVbad_cast@std@@@8??0bad_cast@std@@QAE@ABV01@@Z12 10193330     CSX_Log.obj
 0002:000c6890       __CT??_R0?AVruntime_error@std@@@8??0runtime_error@std@@QAE@ABV01@@Z12 10199890     SkinChanger.obj
 0002:000c68ac       __TI3?AVrange_error@std@@  101998ac     SkinChanger.obj
 0002:000c68bc       __CTA3?AVrange_error@std@@ 101998bc     SkinChanger.obj
 0002:000c68cc       __CT??_R0?AVrange_error@std@@@8??0range_error@std@@QAE@ABV01@@Z12 101998cc     SkinChanger.obj
 0002:000c6af4       __TI2?AVbad_alloc@std@@    10199af4     MSVCRT:throw_bad_alloc.obj
 0002:000c6b04       __CTA2?AVbad_alloc@std@@   10199b04     MSVCRT:throw_bad_alloc.obj
 0002:000c6b10       __CT??_R0?AVbad_alloc@std@@@8??0bad_alloc@std@@QAE@ABV01@@Z12 10199b10     MSVCRT:throw_bad_alloc.obj
 0002:000c6b2c       __TI3?AVbad_array_new_length@std@@ 10199b2c     MSVCRT:throw_bad_alloc.obj
 0002:000c6b3c       __CTA3?AVbad_array_new_length@std@@ 10199b3c     MSVCRT:throw_bad_alloc.obj
 0002:000c6b4c       __CT??_R0?AVbad_array_new_length@std@@@8??0bad_array_new_length@std@@QAE@ABV01@@Z12 10199b4c     MSVCRT:throw_bad_alloc.obj
 0002:000c6b68       __IMPORT_DESCRIPTOR_KERNEL32 10199b68     kernel32:KERNEL32.dll
 0002:000c6b7c       __IMPORT_DESCRIPTOR_USER32 10199b7c     user32:USER32.dll
 0002:000c6b90       __IMPORT_DESCRIPTOR_ADVAPI32 10199b90     advapi32:ADVAPI32.dll
 0002:000c6ba4       __IMPORT_DESCRIPTOR_OLEAUT32 10199ba4     oleaut32:OLEAUT32.dll
 0002:000c6bb8       __IMPORT_DESCRIPTOR_MSVCP140 10199bb8     msvcprt:MSVCP140.dll
 0002:000c6bcc       __IMPORT_DESCRIPTOR_IMM32  10199bcc     imm32:IMM32.dll
 0002:000c6be0       __IMPORT_DESCRIPTOR_WINMM  10199be0     winmm:WINMM.dll
 0002:000c6bf4       __IMPORT_DESCRIPTOR_VCRUNTIME140 10199bf4     vcruntime:VCRUNTIME140.dll
 0002:000c6c08       __IMPORT_DESCRIPTOR_api-ms-win-crt-runtime-l1-1-0 10199c08     ucrt:api-ms-win-crt-runtime-l1-1-0.dll
 0002:000c6c1c       __IMPORT_DESCRIPTOR_api-ms-win-crt-convert-l1-1-0 10199c1c     ucrt:api-ms-win-crt-convert-l1-1-0.dll
 0002:000c6c30       __IMPORT_DESCRIPTOR_api-ms-win-crt-stdio-l1-1-0 10199c30     ucrt:api-ms-win-crt-stdio-l1-1-0.dll
 0002:000c6c44       __IMPORT_DESCRIPTOR_api-ms-win-crt-filesystem-l1-1-0 10199c44     ucrt:api-ms-win-crt-filesystem-l1-1-0.dll
 0002:000c6c58       __IMPORT_DESCRIPTOR_api-ms-win-crt-utility-l1-1-0 10199c58     ucrt:api-ms-win-crt-utility-l1-1-0.dll
 0002:000c6c6c       __IMPORT_DESCRIPTOR_api-ms-win-crt-string-l1-1-0 10199c6c     ucrt:api-ms-win-crt-string-l1-1-0.dll
 0002:000c6c80       __IMPORT_DESCRIPTOR_api-ms-win-crt-heap-l1-1-0 10199c80     ucrt:api-ms-win-crt-heap-l1-1-0.dll
 0002:000c6c94       __IMPORT_DESCRIPTOR_api-ms-win-crt-math-l1-1-0 10199c94     ucrt:api-ms-win-crt-math-l1-1-0.dll
 0002:000c6ca8       __IMPORT_DESCRIPTOR_api-ms-win-crt-time-l1-1-0 10199ca8     ucrt:api-ms-win-crt-time-l1-1-0.dll
 0002:000c6cbc       __NULL_IMPORT_DESCRIPTOR   10199cbc     kernel32:KERNEL32.dll
 0003:00000000       ?Black@Color2@@2V1@A       1019c000     Color2.obj
 0003:00000004       ?White@Color2@@2V1@A       1019c004     Color2.obj
 0003:00000008       ?Red@Color2@@2V1@A         1019c008     Color2.obj
 0003:0000000c       ?Green@Color2@@2V1@A       1019c00c     Color2.obj
 0003:00000010       ?Blue@Color2@@2V1@A        1019c010     Color2.obj
 0003:00000014       ?IniFile@Cvar@CSX@@3V?$basic_string@DU?$char_traits@D@std@@V?$allocator@D@2@@std@@A 1019c014     CSX_Cvar.obj
 0003:00000030       ?m_Logfile@Log@CSX@@2V?$basic_ofstream@DU?$char_traits@D@std@@@std@@A 1019c030     CSX_Log.obj
 0003:000000f8       ?GImGui@@3PAUImGuiContext@@A 1019c0f8     imgui.obj
 0003:00000158       ?ChamMode@G@@3HA           1019c158     Global.obj
 0003:0000015c       ?SendPacket@G@@3_NA        1019c15c     Global.obj
 0003:00000160       ?BestTarget@G@@3HA         1019c160     Global.obj
 0003:00000178       ?once@@3_NA                1019c178     Hooks.obj
 0003:00000180       ?FadeCSGO@@3PADA           1019c180     Hooks.obj
 0003:0003a18c       ?hitscan@@3PAPBDA          101d618c     Hooks.obj
 0003:0003a1a0       ?rawData@@3PADA            101d61a0     Hooks.obj
 0003:0003cf88       ?roblox@@3PADA             101d8f88     Hooks.obj
 0003:00057704       ?crosshairStyle@@3PAPBDA   101f3704     Hooks.obj
 0003:00057714       ?armor@@3PAPBDA            101f3714     Hooks.obj
 0003:00057720       ?pew@@3PADA                101f3720     Hooks.obj
 0003:0009d804       ?grenades@@3PAPBDA         10239804     Hooks.obj
 0003:0009d810       ?headmeme@@3PADA           10239810     Hooks.obj
 0003:00103f0c       ?droppedWeapons@@3PAPBDA   1029ff0c     Hooks.obj
 0003:00103f18       ?hitler_wav@@3PADA         1029ff18     Hooks.obj
 0003:001509a4       ?WeaponType@@3PAPBDA       102ec9a4     Hooks.obj
 0003:001509b0       ?inject_wav@@3PADA         102ec9b0     Hooks.obj
 0003:001b5244       ?fakelag@@3PAPBDA          10351244     Hooks.obj
 0003:001b524c       ?skeletonopts@@3PAPBDA     1035124c     Hooks.obj
 0003:001b5258       ?resolvers@@3PAPBDA        10351258     Hooks.obj
 0003:001b5274       ?snipercrosshair@@3PAPBDA  10351274     Hooks.obj
 0003:001b5288       ?HitmarkSound@@3PAPBDA     10351288     Hooks.obj
 0003:001b52a8       ?customModelsct@@3PAPBDA   103512a8     Hooks.obj
 0003:001b52dc       ?customModelst@@3PAPBDA    103512dc     Hooks.obj
 0003:001b5310       ?AngleStyles@@3PAPBDA      10351310     Hooks.obj
 0003:001b531c       ?RCSType@@3PAPBDA          1035131c     Hooks.obj
 0003:001b532c       ?HitBoxesToScan@@3PAPBDA   1035132c     Hooks.obj
 0003:001b5344       ?antiaimyawfake@@3PAPBDA   10351344     Hooks.obj
 0003:001b5370       ?antiaimyawtrue@@3PAPBDA   10351370     Hooks.obj
 0003:001b5394       ?antiaimpitch@@3PAPBDA     10351394     Hooks.obj
 0003:001b53ac       ?handd@@3PAPBDA            103513ac     Hooks.obj
 0003:001b53b8       ?Namespammers@@3PAPBDA     103513b8     Hooks.obj
 0003:001b53d4       ?Chatspammers@@3PAPBDA     103513d4     Hooks.obj
 0003:001b53e8       ?chamsMode@@3PAPBDA        103513e8     Hooks.obj
 0003:001b53f4       ?aimBones@@3PAPBDA         103513f4     Hooks.obj
 0003:001b5404       ?colors@@3PAPBDA           10351404     Hooks.obj
 0003:001b5418       ?quality_items@@3PAPBDA    10351418     Hooks.obj
 0003:001b5438       ?Fakelagtypelist@@3PAPBDA  10351438     Hooks.obj
 0003:001b5450       ?skybox_items@@3PAPBDA     10351450     Hooks.obj
 0003:001b54b0       ?spammers@@3PAPBDA         103514b0     Hooks.obj
 0003:001b54c0       ?resolvemode@Globals@@3HA  103514c0     Hooks.obj
 0003:001b54cc       ?purchase@@3Vitem_purchase@@A 103514cc     Hooks.obj
 0003:001b54d0       ?GuiFile@@3V?$basic_string@DU?$char_traits@D@std@@V?$allocator@D@2@@std@@A 103514d0     Hooks.obj
 0003:001b54e8       ?BaseDir@@3V?$basic_string@DU?$char_traits@D@std@@V?$allocator@D@2@@std@@A 103514e8     Hooks.obj
 0003:001b5500       ?LogFile@@3V?$basic_string@DU?$char_traits@D@std@@V?$allocator@D@2@@std@@A 10351500     Hooks.obj
 0003:001b5518       ?IniFile@@3V?$basic_string@DU?$char_traits@D@std@@V?$allocator@D@2@@std@@A 10351518     Hooks.obj
 0003:001b5580       ?offsetz@@3UCOffsetz@@A    10351580     memesets.obj
 0003:001b58cc       ?animatedclantag@@3V?$basic_string@DU?$char_traits@D@std@@V?$allocator@D@2@@std@@A 103518cc     Misc.obj
 0003:001b5918       ?dwEconItemInterfaceWrapper@@3KA 10351918     SkinChanger.obj
 0003:001b5920       ?pWeaponItemIndexData@@3PAHA 10351920     SkinChanger.obj
 0003:001b59d0       ?pStickersItemIndexData@@3PAHA 103519d0     SkinChanger.obj
 0003:001b5a58       ?pWeaponData@@3PAPADA      10351a58     SkinChanger.obj
 0003:001b5b08       ?pStickersData@@3PAPADA    10351b08     SkinChanger.obj
 0003:001b5bf8       __fltused                  10351bf8     MSVCRT:fltused.obj
 0003:001b5bfc       ___scrt_native_dllmain_reason 10351bfc     MSVCRT:utility.obj
 0003:001b5c00       ___security_cookie_complement 10351c00     MSVCRT:gs_cookie.obj
 0003:001b5c04       ___security_cookie         10351c04     MSVCRT:gs_cookie.obj
 0003:001b5c10       __Init_global_epoch        10351c10     MSVCRT:thread_safe_statics.obj
 0003:001b5c20       ___isa_enabled             10351c20     MSVCRT:_cpu_disp_.obj
 0003:001b5c30       ___scrt_ucrt_dll_is_in_use 10351c30     MSVCRT:ucrt_stubs.obj
 0003:001b5c38       ??_R0?AV?$basic_filebuf@DU?$char_traits@D@std@@@std@@@8 10351c38     CSX_Log.obj
 0003:001b5c74       ??_R0?AV?$basic_streambuf@DU?$char_traits@D@std@@@std@@@8 10351c74     CSX_Log.obj
 0003:001b5cb0       ??_R0?AV?$basic_ofstream@DU?$char_traits@D@std@@@std@@@8 10351cb0     CSX_Log.obj
 0003:001b5cec       ??_R0?AV?$basic_ostream@DU?$char_traits@D@std@@@std@@@8 10351cec     CSX_Log.obj
 0003:001b5d28       ??_R0?AV?$basic_ios@DU?$char_traits@D@std@@@std@@@8 10351d28     CSX_Log.obj
 0003:001b5d60       ??_R0?AVios_base@std@@@8   10351d60     CSX_Log.obj
 0003:001b5d7c       ??_R0?AV?$_Iosb@H@std@@@8  10351d7c     CSX_Log.obj
 0003:001b5d98       ??_R0?AVexception@std@@@8  10351d98     CSX_Log.obj
 0003:001b5db4       ??_R0?AVbad_cast@std@@@8   10351db4     CSX_Log.obj
 0003:001b5dd0       ??_R0?AV_Ref_count_base@std@@@8 10351dd0     SkinParser.obj
 0003:001b5df4       ??_R0?AVKeyValue@valve_parser@@@8 10351df4     SkinParser.obj
 0003:001b5e18       ??_R0?AVNode@valve_parser@@@8 10351e18     SkinParser.obj
 0003:001b5e38       ??_R0?AVObject@valve_parser@@@8 10351e38     SkinParser.obj
 0003:001b5e5c       ??_R0?AV?$_Ref_count_obj@VObject@valve_parser@@@std@@@8 10351e5c     SkinParser.obj
 0003:001b5e98       ??_R0?AV?$_Ref_count_obj@VKeyValue@valve_parser@@@std@@@8 10351e98     SkinParser.obj
 0003:001b5ed4       ??_R0?AVITraceFilter@@@8   10351ed4     Autowall.obj
 0003:001b5ef0       ??_R0?AVCTraceFilter@@@8   10351ef0     Autowall.obj
 0003:001b5f0c       ??_R0?AVIGameEventListener2@@@8 10351f0c     Hooks.obj
 0003:001b5f30       ??_R0?AVitem_purchase_listener@item_purchase@@@8 10351f30     Hooks.obj
 0003:001b5f64       ??_R0?AV?$_Ref_count_obj@VNode@valve_parser@@@std@@@8 10351f64     Hooks.obj
 0003:001b5f9c       ??_R0?AVruntime_error@std@@@8 10351f9c     SkinChanger.obj
 0003:001b5fbc       ??_R0?AVrange_error@std@@@8 10351fbc     SkinChanger.obj
 0003:001b5fdc       ??_R0?AVcodecvt_base@std@@@8 10351fdc     SkinChanger.obj
 0003:001b5ffc       ??_R0?AVfacet@locale@std@@@8 10351ffc     SkinChanger.obj
 0003:001b601c       ??_R0?AV_Facet_base@std@@@8 1035201c     SkinChanger.obj
 0003:001b603c       ??_R0?AU_Crt_new_delete@std@@@8 1035203c     SkinChanger.obj
 0003:001b6060       ??_R0?AV?$codecvt@_WDU_Mbstatet@@@std@@@8 10352060     SkinChanger.obj
 0003:001b608c       ??_R0?AV?$codecvt_utf8_utf16@_W$0BAPPPP@$0A@@std@@@8 1035208c     SkinChanger.obj
 0003:001b60c8       ??_R0?AV?$wstring_convert@V?$codecvt_utf8_utf16@_W$0BAPPPP@$0A@@std@@_WV?$allocator@_W@2@V?$allocator@D@2@@std@@@8 103520c8     SkinChanger.obj
 0003:001b6140       ??_R0?AVtype_info@@@8      10352140     MSVCRT:std_type_info_static.obj
 0003:001b6158       ??_R0?AVbad_alloc@std@@@8  10352158     MSVCRT:throw_bad_alloc.obj
 0003:001b6174       ??_R0?AVbad_array_new_length@std@@@8 10352174     MSVCRT:throw_bad_alloc.obj
 0003:001b61a0       ?IniFileLen@Cvar@CSX@@3IA  103521a0     CSX_Cvar.obj
 0003:001b61a8       ?_OptionsStorage@?1??__local_stdio_printf_options@@9@4_KA 103521a8     CSX_Cvar.obj
 0003:001b61b4       ?LogFile@Log@CSX@@2V?$basic_string@DU?$char_traits@D@std@@V?$allocator@D@2@@std@@A 103521b4     CSX_Log.obj
 0003:001b61cc       ?_Stinit@?1??_Init@?$basic_filebuf@DU?$char_traits@D@std@@@std@@IAEXPAU_iobuf@@W4_Initfl@23@@Z@4U_Mbstatet@@A 103521cc     CSX_Log.obj
 0003:001b61d4       ?_Psave@?$_Facetptr@V?$codecvt@DDU_Mbstatet@@@std@@@std@@2PBVfacet@locale@2@B 103521d4     CSX_Log.obj
 0003:001b61e4       ?tabfont@@3PAUImFont@@A    103521e4     Gui.obj
 0003:001b61e8       ?font@@3PAUImFont@@A       103521e8     Gui.obj
 0003:001b61ec       ?bIsGuiVisible@@3_NA       103521ec     Gui.obj
 0003:001b61ed       ?bIsGuiInitalize@@3_NA     103521ed     Gui.obj
 0003:001b61f0       ?WndProc_o@@3P6GJPAUHWND__@@IIJ@ZA 103521f0     Gui.obj
 0003:001b6210       ?_OptionsStorage@?1??__local_stdio_scanf_options@@9@4_KA 10352210     imguicolorpicker.obj
 0003:001b9814       ?Zero@ImVec2@@2U1@A        10355814     imgui.obj
 0003:001bbb28       ?fnSequenceProxyFn@@3P6AXPBVCRecvProxyData@@PAX1@ZA 10357b28     recvproxy.obj
 0003:001bbb2c       ?oRecvnModelIndex@@3P6AXPBVCRecvProxyData@@PAX1@ZA 10357b2c     recvproxy.obj
 0003:001bbb30       ?fnNoSmoke@@3P6AXPBVCRecvProxyData@@PAX1@ZA 10357b30     recvproxy.obj
 0003:001bbba8       ?g_Options@@3UVariables@@A 10357ba8     Configuration.obj
 0003:001c1358       ?szFileSys@@3PAEA          1035d358     DLLMain.obj
 0003:001c1458       ?szVolNameBuff@@3PAEA      1035d458     DLLMain.obj
 0003:001c1558       ?dwMFL@@3KA                1035d558     DLLMain.obj
 0003:001c155c       ?dwSysFlags@@3KA           1035d55c     DLLMain.obj
 0003:001c1560       ?dwSerial@@3KA             1035d560     DLLMain.obj
 0003:001c158c       ?bbox@ColorAlpha@@3UtagRECT@@A 1035d58c     ESP.obj
 0003:001c159c       ?width@@3HA                1035d59c     ESP.obj
 0003:001c15a0       ?height@@3HA               1035d5a0     ESP.obj
 0003:001c15a4       ?done@@3_NA                1035d5a4     ESP.obj
 0003:001c15a8       ?damage@@3MA               1035d5a8     ESP.obj
 0003:001c15ac       ?bombdamagestringdead@@3PADA 1035d5ac     ESP.obj
 0003:001c15c4       ?bombdamagestringalive@@3PADA 1035d5c4     ESP.obj
 0003:001c15dc       ?LoadNamedSky@@3P6IXPBD@ZA 1035d5dc     ESP.obj
 0003:001c15ec       ?ESP_ctx@ColorAlpha@@3UVisualsStruct@1@A 1035d5ec     ESP.obj
 0003:001c2eac       ?inst@?1??instance@?$singleton@VCCSGrenadeHint@@@@SAAAVCCSGrenadeHint@@XZ@4V3@A 1035eeac     ESP.obj
 0003:001c2ed4       ?$TSS0@?1??instance@?$singleton@VCCSGrenadeHint@@@@SAAAVCCSGrenadeHint@@XZ@4HA 1035eed4     ESP.obj
 0003:001c2ed8       ?Aimbotting@G@@3_NA        1035eed8     Global.obj
 0003:001c2ed9       ?InAntiAim@G@@3_NA         1035eed9     Global.obj
 0003:001c2eda       ?Return@G@@3_NA            1035eeda     Global.obj
 0003:001c2edb       ?d3dinit@G@@3_NA           1035eedb     Global.obj
 0003:001c2edc       ?Dll@G@@3PAUHINSTANCE__@@A 1035eedc     Global.obj
 0003:001c2ee0       ?Window@G@@3PAUHWND__@@A   1035eee0     Global.obj
 0003:001c2ee4       ?FOV@G@@3MA                1035eee4     Global.obj
 0003:001c2ee8       ?PressedKeys@G@@3PA_NA     1035eee8     Global.obj
 0003:001c2fe8       ?AnimatedClantag@G@@3PADA  1035efe8     Global.obj
 0003:001c2ff8       ?buf3@G@@3PADA             1035eff8     Global.obj
 0003:001c3078       ?extra_flags@G@@3DA        1035f078     Global.obj
 0003:001c3079       ?menuon@G@@3_NA            1035f079     Global.obj
 0003:001c307c       ?hitmarkeralpha@G@@3MA     1035f07c     Global.obj
 0003:001c308c       ?ColorsForPicker1@Global@@3V?$vector@UColorP@@V?$allocator@UColorP@@@std@@@std@@A 1035f08c     Global.obj
 0003:001c30d0       ?fsn@hooks@@3P6GXW4ClientFrameStage_t@@@ZA 1035f0d0     Hooks.obj
 0003:001c30d4       ?create_move@hooks@@3P6EXPAVIBaseClientDLL@@HM_N@ZA 1035f0d4     Hooks.obj
 0003:001c30d8       ?original_prediction@hooks@@3P6E_NPAX@ZA 1035f0d8     Hooks.obj
 0003:001c30dc       ?original_override_view@hooks@@3P6EXPAXPAVCViewSetup@@@ZA 1035f0dc     Hooks.obj
 0003:001c30e0       ?original_get_fov@hooks@@3P6EMPAX@ZA 1035f0e0     Hooks.obj
 0003:001c30e4       ?original_do_post_screen_space_effects@hooks@@3P6E_NPAXPAVCViewSetup@@@ZA 1035f0e4     Hooks.obj
 0003:001c30e8       ?original_paint_traverse@hooks@@3P6EXPAXI_N1@ZA 1035f0e8     Hooks.obj
 0003:001c30ec       ?original_dme@hooks@@3P6EXPAX00ABUModelRenderInfo_t@@PAVmatrix3x4_t@@@ZA 1035f0ec     Hooks.obj
 0003:001c30f0       ?original_SceneEnd@hooks@@3P6EXPAX@ZA 1035f0f0     Hooks.obj
 0003:001c30f4       ?original_play_sound@hooks@@3P6EXPAXPBD@ZA 1035f0f4     Hooks.obj
 0003:001c30f8       ?original_svc_get_bool@hooks@@3P6E_NPAX@ZA 1035f0f8     Hooks.obj
 0003:001c30fc       ?oLockCursor@hooks@@3P6EXPAX@ZA 1035f0fc     Hooks.obj
 0003:001c3100       ?OldLBY@LBYMod@@3MA        1035f100     Hooks.obj
 0003:001c3104       ?LBYBreakerTimer@LBYMod@@3MA 1035f104     Hooks.obj
 0003:001c3108       ?LastLBYUpdateTime@LBYMod@@3MA 1035f108     Hooks.obj
 0003:001c310c       ?bSwitch@LBYMod@@3_NA      1035f10c     Hooks.obj
 0003:001c310d       ?once1@@3_NA               1035f10d     Hooks.obj
 0003:001c310e       ?m_bIsRecording@@3_NA      1035f10e     Hooks.obj
 0003:001c310f       ?m_bIsReplaying@@3_NA      1035f10f     Hooks.obj
 0003:001c3110       ?flColor@@3PAMA            1035f110     Hooks.obj
 0003:001c311c       ?flVColor@@3PAMA           1035f11c     Hooks.obj
 0003:001c3128       ?wlColor@@3PAMA            1035f128     Hooks.obj
 0003:001c3134       ?hlColor@@3PAMA            1035f134     Hooks.obj
 0003:001c3140       ?wwlColor@@3PAMA           1035f140     Hooks.obj
 0003:001c314c       ?width1@@3HA               1035f14c     Hooks.obj
 0003:001c3150       ?height1@@3HA              1035f150     Hooks.obj
 0003:001c3154       ?m_iRecordFrame@@3HA       1035f154     Hooks.obj
 0003:001c3158       ?m_iReplayFrame@@3HA       1035f158     Hooks.obj
 0003:001c315c       ?m_iOldTickCount@@3HA      1035f15c     Hooks.obj
 0003:001c3160       ?g_pDevice@hooks@@3PAUIDirect3DDevice9@@A 1035f160     Hooks.obj
 0003:001c3164       ?Present_o@hooks@@3P6GJPAUIDirect3DDevice9@@PBUtagRECT@@1PAUHWND__@@PBU_RGNDATA@@@ZA 1035f164     Hooks.obj
 0003:001c3168       ?Reset_o@hooks@@3P6GJPAUIDirect3DDevice9@@PAU_D3DPRESENT_PARAMETERS_@@@ZA 1035f168     Hooks.obj
 0003:001c316c       ?oOnScreenSizeChanged@@3P6EXPAVISurface@@HH@ZA 1035f16c     Hooks.obj
 0003:001c3170       ?oFireEventClientSide@@3P6E_NPAXPAVIGameEvent@@@ZA 1035f170     Hooks.obj
 0003:001c3174       ?Kills2@@3HA               1035f174     Hooks.obj
 0003:001c3178       ?Kills@@3HA                1035f178     Hooks.obj
 0003:001c317c       ?RoundInfo@@3_NA           1035f17c     Hooks.obj
 0003:001c317d       ?shouldflip@Globals@@3_NA  1035f17d     Hooks.obj
 0003:001c317e       ?ySwitch@Globals@@3_NA     1035f17e     Hooks.obj
 0003:001c317f       ?error@Globals@@3_NA       1035f17f     Hooks.obj
 0003:001c3180       ?Delay@@3IA                1035f180     Hooks.obj
 0003:001c3184       ?oFindMDL@@3P6EGPAXPBD@ZA  1035f184     Hooks.obj
 0003:001c3188       ?TargetID@Globals@@3HA     1035f188     Hooks.obj
 0003:001c318c       ?Shots@Globals@@3HA        1035f18c     Hooks.obj
 0003:001c3190       ?missedshots@Globals@@3HA  1035f190     Hooks.obj
 0003:001c3194       ?RealAngle@Globals@@3MA    1035f194     Hooks.obj
 0003:001c3198       ?FakeAngle@Globals@@3MA    1035f198     Hooks.obj
 0003:001c319c       ?NextTime@Globals@@3MA     1035f19c     Hooks.obj
 0003:001c31a0       ?fakeAngle@Globals@@3MA    1035f1a0     Hooks.obj
 0003:001c31a8       ?OldSimulationTime@Globals@@3PAMA 1035f1a8     Hooks.obj
 0003:001c32ac       ?modelrender@hooks@@3VVMTHookManager@VMT@@A 1035f2ac     Hooks.obj
 0003:001c32d8       ?m_RecordWaypoints@@3PAURecording_t@@A 1035f2d8     Hooks.obj
 0003:005f5658       ?prediction@hooks@@3VVMTHookManager@VMT@@A 10791658     Hooks.obj
 0003:005f5684       ?eventmanager@hooks@@3VVMTHookManager@VMT@@A 10791684     Hooks.obj
 0003:005f56b0       ?d3d@hooks@@3VVMTHookManager@VMT@@A 107916b0     Hooks.obj
 0003:005f56dc       ?clientmode@hooks@@3VVMTHookManager@VMT@@A 107916dc     Hooks.obj
 0003:005f5708       ?panel@hooks@@3VVMTHookManager@VMT@@A 10791708     Hooks.obj
 0003:005f5734       ?qLastTickAngles@@3VVector@@A 10791734     Hooks.obj
 0003:005f574c       ?engine@hooks@@3VVMTHookManager@VMT@@A 1079174c     Hooks.obj
 0003:005f5778       ?sv_cheats@hooks@@3VVMTHookManager@VMT@@A 10791778     Hooks.obj
 0003:005f57a4       ?ConfigList@@3V?$vector@V?$basic_string@DU?$char_traits@D@std@@V?$allocator@D@2@@std@@V?$allocator@V?$basic_string@DU?$char_traits@D@std@@V?$allocator@D@2@@std@@@2@@std@@A 107917a4     Hooks.obj
 0003:005f57b0       ?viewrender@hooks@@3VVMTHookManager@VMT@@A 107917b0     Hooks.obj
 0003:005f57dc       ?surface@hooks@@3VVMTHookManager@VMT@@A 107917dc     Hooks.obj
 0003:005f5808       ?logs@@3V?$vector@Vcbullet_tracer_info@@V?$allocator@Vcbullet_tracer_info@@@std@@@std@@A 10791808     Hooks.obj
 0003:005f5814       ?client@hooks@@3VVMTHookManager@VMT@@A 10791814     Hooks.obj
 0003:005f5840       ?dwCAM_Think@@3PAEA        10791840     Hooks.obj
 0003:005f5844       ?AimPoint@Globals@@3VVector@@A 10791844     Hooks.obj
 0003:005f5858       ?_SetAngle@?1??SetAngle2@C_BaseEntity@@QAEXVVector@@@Z@4P6EXPAXABV3@@ZA 10791858     Hooks.obj
 0003:005f585c       ?$TSS0@?1??SetAngle2@C_BaseEntity@@QAEXVVector@@@Z@4HA 1079185c     Hooks.obj
 0003:005f5860       ?meme@?1??m_iShotsFired@C_BaseEntity@@QAEHXZ@4HA 10791860     Hooks.obj
 0003:005f5864       ?$TSS0@?1??m_iShotsFired@C_BaseEntity@@QAEHXZ@4HA 10791864     Hooks.obj
 0003:005f5868       ?setaddr@?1??NET_SetConVar@@YAXPBD0@Z@4KA 10791868     Hooks.obj
 0003:005f586c       ?$TSS0@?1??NET_SetConVar@@YAXPBD0@Z@4HA 1079186c     Hooks.obj
 0003:005f58fc       ?instance@?1??singleton@item_purchase@@SAPAV2@XZ@4PAV2@A 107918fc     Hooks.obj
 0003:005f5900       ?$TSS0@?1??singleton@item_purchase@@SAPAV2@XZ@4HA 10791900     Hooks.obj
 0003:005f5904       ?wlog@?1??on_fire_weapons@item_purchase@@QAEXPAVIGameEvent@@_N@Z@4UAppLog@@A 10791904     Hooks.obj
 0003:005f5920       ?$TSS0@?1??on_fire_weapons@item_purchase@@QAEXPAVIGameEvent@@_N@Z@4HA 10791920     Hooks.obj
 0003:005f5924       ?dlog@?1??on_fire_DMG@item_purchase@@QAEXPAVIGameEvent@@_N@Z@4UAppLog@@A 10791924     Hooks.obj
 0003:005f5940       ?$TSS0@?1??on_fire_DMG@item_purchase@@QAEXPAVIGameEvent@@_N@Z@4HA 10791940     Hooks.obj
 0003:005f5b00       ?inst@?1??instance@?$singleton@VCSkin@@@@SAAAVCSkin@@XZ@4V3@A 10791b00     Hooks.obj
 0003:005f5b04       ?$TSS0@?1??instance@?$singleton@VCSkin@@@@SAAAVCSkin@@XZ@4HA 10791b04     Hooks.obj
 0003:005f5b08       ?inst@?1??instance@?$singleton@Vvisuals@@@@SAAAVvisuals@@XZ@4V3@A 10791b08     Hooks.obj
 0003:005f5b18       ?$TSS0@?1??instance@?$singleton@Vvisuals@@@@SAAAVvisuals@@XZ@4HA 10791b18     Hooks.obj
 0003:005f5b20       ?inst@?1??instance@?$singleton@Vlegitbot@@@@SAAAVlegitbot@@XZ@4V3@A 10791b20     Hooks.obj
 0003:005f5b9c       ?$TSS0@?1??instance@?$singleton@Vlegitbot@@@@SAAAVlegitbot@@XZ@4HA 10791b9c     Hooks.obj
 0003:005f5ba0       ?inst@?1??instance@?$singleton@Vragebot@@@@SAAAVragebot@@XZ@4V3@A 10791ba0     Hooks.obj
 0003:005f5bb0       ?$TSS0@?1??instance@?$singleton@Vragebot@@@@SAAAVragebot@@XZ@4HA 10791bb0     Hooks.obj
 0003:005f5bb4       ?inst@?1??instance@?$singleton@Vmisc@@@@SAAAVmisc@@XZ@4V3@A 10791bb4     Hooks.obj
 0003:005f5bb8       ?$TSS0@?1??instance@?$singleton@Vmisc@@@@SAAAVmisc@@XZ@4HA 10791bb8     Hooks.obj
 0003:005f5bbc       ?g_GlowObjManager@Interfaces@@2PAVCGlowObjectManager@@A 10791bbc     Interfaces.obj
 0003:005f5bc0       ?g_ViewRenderBeams@Interfaces@@2PAVIViewRenderBeams@@A 10791bc0     Interfaces.obj
 0003:005f5bc4       ?g_ClientStringTableContainer@Interfaces@@2PAVCNetworkStringTableContainer@@A 10791bc4     Interfaces.obj
 0003:005f5bc8       ?g_MemAlloc@Interfaces@@2PAVIMemAlloc@@A 10791bc8     Interfaces.obj
 0003:005f5bcc       ?g_Prediction@Interfaces@@2PAVIPrediction@@A 10791bcc     Interfaces.obj
 0003:005f5bd0       ?g_CHLClient@Interfaces@@0PAVIBaseClientDLL@@A 10791bd0     Interfaces.obj
 0003:005f5bd4       ?g_Engine@Interfaces@@0PAVIVEngineClient@@A 10791bd4     Interfaces.obj
 0003:005f5bd8       ?g_Panel@Interfaces@@0PAVIPanel@@A 10791bd8     Interfaces.obj
 0003:005f5bdc       ?g_EntityList@Interfaces@@0PAVC_BaseEntityList@@A 10791bdc     Interfaces.obj
 0003:005f5be0       ?g_Surface@Interfaces@@0PAVISurface@@A 10791be0     Interfaces.obj
 0003:005f5be4       ?g_DebugOverlay@Interfaces@@0PAVIVDebugOverlay@@A 10791be4     Interfaces.obj
 0003:005f5be8       ?g_ClientMode@Interfaces@@0PAVIClientMode@@A 10791be8     Interfaces.obj
 0003:005f5bec       ?g_Globals@Interfaces@@0PAVCGlobalVarsBase@@A 10791bec     Interfaces.obj
 0003:005f5bf0       ?g_MaterialSystem@Interfaces@@0PAVCMaterialSystem@@A 10791bf0     Interfaces.obj
 0003:005f5bf4       ?g_RenderView@Interfaces@@0PAVCVRenderView@@A 10791bf4     Interfaces.obj
 0003:005f5bf8       ?g_ModelRender@Interfaces@@0PAVIVModelRender@@A 10791bf8     Interfaces.obj
 0003:005f5bfc       ?g_ModelInfo@Interfaces@@0PAVCModelInfo@@A 10791bfc     Interfaces.obj
 0003:005f5c00       ?g_EngineTrace@Interfaces@@0PAVIEngineTrace@@A 10791c00     Interfaces.obj
 0003:005f5c04       ?g_PhysProps@Interfaces@@0PAVIPhysicsSurfaceProps@@A 10791c04     Interfaces.obj
 0003:005f5c08       ?g_CVar@Interfaces@@0PAVICVar@@A 10791c08     Interfaces.obj
 0003:005f5c0c       ?g_Dlight@Interfaces@@0PAVIVEffects@@A 10791c0c     Interfaces.obj
 0003:005f5c10       ?g_Input@Interfaces@@0PAVCInput@@A 10791c10     Interfaces.obj
 0003:005f5c14       ?g_InputSystem@Interfaces@@0PAVIInputSystem@@A 10791c14     Interfaces.obj
 0003:005f5c18       ?g_EventManager@Interfaces@@0PAVIGameEventManager2@@A 10791c18     Interfaces.obj
 0003:005f5c1c       ?g_pILocalize@Interfaces@@0PAVILocalize@@A 10791c1c     Interfaces.obj
 0003:005f5c20       ?g_pGui@@3PAVCGui@@A       10791c20     Interfaces.obj
 0003:005f5c44       ?backtracking@@3PAVBackTrack@@A 10791c44     LagComp.obj
 0003:005f5c48       ?headPositions@@3PAY0M@UbacktrackData@@A 10791c48     LagComp.obj
 0003:005f8c50       ?shoot@@3_NA               10794c50     LegitBot.obj
 0003:005f8c6c       ?fn@?1??RandomFloat@@YAMMM@Z@4P6AMMM@ZA 10794c6c     LegitBot.obj
 0003:005f8c70       ?$TSS0@?1??RandomFloat@@YAMMM@Z@4HA 10794c70     LegitBot.obj
 0003:005f8cb4       ?g_Netvars@@3PAVOffsetz@@A 10794cb4     memesets.obj
 0003:005f8cc0       ?iLastTime@@3HA            10794cc0     Misc.obj
 0003:005f8cd8       ?ClanTagOffset@?1??setclantag@@YAXPBD@Z@4KA 10794cd8     Misc.obj
 0003:005f8cdc       ?$TSS0@?1??setclantag@@YAXPBD@Z@4HA 10794cdc     Misc.obj
 0003:005f8ce0       ?dankesttSetClanTag@?4??setclantag@@YAXPBD@Z@4P6IX00@ZA 10794ce0     Misc.obj
 0003:005f8ce4       ?$TSS1@?4??setclantag@@YAXPBD@Z@4HA 10794ce4     Misc.obj
 0003:005f8ce8       ?fnServerRankRevealAll@?4??RankReveal@@YAXPAVCUserCmd@CInput@@@Z@4PAEA 10794ce8     Misc.obj
 0003:005f8cec       ?$TSS0@?4??RankReveal@@YAXPAVCUserCmd@CInput@@@Z@4HA 10794cec     Misc.obj
 0003:005f8d50       ?NetVarManager@@3PAVCNetVarManager@@A 10794d50     NetVarManager.obj
 0003:005f8d5c       ?me123@@3_NA               10794d5c     RageBot.obj
 0003:005f8d5d       ?toggledab@@3_NA           10794d5d     RageBot.obj
 0003:005f8db0       ?g_Render@@3PAVRender@@A   10794db0     Render.obj
 0003:005f95e8       ?didhitHS@Resolver@@3_NA   107955e8     Resolver2.obj
 0003:005f9600       ?oGetStickerAttributeBySlotIndexFloat@@3P6EMPAXHW4StickerAttributeType_t@@M@ZA 10795600     SkinChanger.obj
 0003:005f9604       ?oGetStickerAttributeBySlotIndexInt@@3P6EIPAXHW4StickerAttributeType_t@@M@ZA 10795604     SkinChanger.obj
 0003:005f9608       ?worldmodel_handle@@3PAXA  10795608     SkinChanger.obj
 0003:005f960c       ?worldmodel@@3PAVCBaseCombatWeapon@@A 1079560c     SkinChanger.obj
 0003:005f9610       ?k_stickers@@3V?$deque@UKit_t@@V?$allocator@UKit_t@@@std@@@std@@A 10795610     SkinChanger.obj
 0003:005f9630       ?k_gloves@@3V?$deque@UKit_t@@V?$allocator@UKit_t@@@std@@@std@@A 10795630     SkinChanger.obj
 0003:005f9644       ?k_skins@@3V?$deque@UKit_t@@V?$allocator@UKit_t@@@std@@@std@@A 10795644     SkinChanger.obj
 0003:005f9660       ?g_ViewModelCfg@@3V?$unordered_map@HPBDU?$hash@H@std@@U?$equal_to@H@2@V?$allocator@U?$pair@$$CBHPBD@std@@@2@@std@@A 10795660     SkinChanger.obj
 0003:005f9680       ?g_KillIconCfg@@3V?$unordered_map@PBDPBDU?$hash@PBD@std@@U?$equal_to@PBD@2@V?$allocator@U?$pair@QBDPBD@std@@@2@@std@@A 10795680     SkinChanger.obj
 0003:005f96a0       ?killIcons@@3V?$unordered_map@PADPADU?$hash@PAD@std@@U?$equal_to@PAD@2@V?$allocator@U?$pair@QADPAD@std@@@2@@std@@A 107956a0     SkinChanger.obj
 0003:005f96e0       ?shit@@3PADA               107956e0     MiscFunctions.obj
 0003:005f96f0       ?shit2@@3PADA              107956f0     MiscFunctions.obj
 0003:005f9700       ?entCopy@@3PAVC_BaseEntity@@A 10795700     MiscFunctions.obj
 0003:005f9710       ?Trace@@3VCGameTrace@@A    10795710     MiscFunctions.obj
 0003:005f9774       ___scrt_current_native_startup_state 10795774     MSVCRT:utility.obj
 0003:005f9778       ___scrt_native_startup_lock 10795778     MSVCRT:utility.obj
 0003:005f9798       __tls_index                10795798     MSVCRT:tlssup.obj
 0003:005f9ae8       ___isa_available           10795ae8     MSVCRT:_cpu_disp_.obj
 0003:005f9aec       ___favor                   10795aec     MSVCRT:_cpu_disp_.obj
 0003:005f9af0       ___scrt_debugger_hook_flag 10795af0     MSVCRT:utility_desktop.obj
 0003:005f9af8       ?__type_info_root_node@@3U__type_info_node@@A 10795af8     MSVCRT:tncleanup.obj
 0003:005f9b00       ___dyn_tls_init_callback   10795b00     <common>

 entry point at        0001:000c96b4

 Static symbols

 0000:ff855000       .debug$S                   10000000     kernel32:KERNEL32.dll
 0000:ff855000       .debug$S                   10000000     kernel32:KERNEL32.dll
 0000:ff855000       .debug$S                   10000000     kernel32:KERNEL32.dll
 0000:ff855000       .debug$S                   10000000     kernel32:KERNEL32.dll
 0000:ff855000       .debug$S                   10000000     kernel32:KERNEL32.dll
 0000:ff855000       .debug$S                   10000000     kernel32:KERNEL32.dll
 0000:ff855000       .debug$S                   10000000     kernel32:KERNEL32.dll
 0000:ff855000       .debug$S                   10000000     kernel32:KERNEL32.dll
 0000:ff855000       .debug$S                   10000000     kernel32:KERNEL32.dll
 0000:ff855000       .debug$S                   10000000     kernel32:KERNEL32.dll
 0000:ff855000       .debug$S                   10000000     kernel32:KERNEL32.dll
 0000:ff855000       .debug$S                   10000000     kernel32:KERNEL32.dll
 0000:ff855000       .debug$S                   10000000     kernel32:KERNEL32.dll
 0000:ff855000       .debug$S                   10000000     kernel32:KERNEL32.dll
 0000:ff855000       .debug$S                   10000000     kernel32:KERNEL32.dll
 0000:ff855000       .debug$S                   10000000     kernel32:KERNEL32.dll
 0000:ff855000       .debug$S                   10000000     kernel32:KERNEL32.dll
 0000:ff855000       .debug$S                   10000000     kernel32:KERNEL32.dll
 0000:ff855000       .debug$S                   10000000     kernel32:KERNEL32.dll
 0000:ff855000       .debug$S                   10000000     kernel32:KERNEL32.dll
 0000:ff855000       .debug$S                   10000000     msvcprt:MSVCP140.dll
 0000:ff855000       .debug$S                   10000000     kernel32:KERNEL32.dll
 0000:ff855000       .debug$S                   10000000     kernel32:KERNEL32.dll
 0000:ff855000       .debug$S                   10000000     kernel32:KERNEL32.dll
 0000:ff855000       .debug$S                   10000000     kernel32:KERNEL32.dll
 0000:ff855000       .debug$S                   10000000     msvcprt:MSVCP140.dll
 0000:ff855000       .debug$S                   10000000     kernel32:KERNEL32.dll
 0000:ff855000       .debug$S                   10000000     msvcprt:MSVCP140.dll
 0000:ff855000       .debug$S                   10000000     ucrt:api-ms-win-crt-runtime-l1-1-0.dll
 0000:ff855000       .debug$S                   10000000     ucrt:api-ms-win-crt-runtime-l1-1-0.dll
 0000:ff855000       .debug$S                   10000000     ucrt:api-ms-win-crt-runtime-l1-1-0.dll
 0000:ff855000       .debug$S                   10000000     ucrt:api-ms-win-crt-math-l1-1-0.dll
 0000:ff855000       .debug$S                   10000000     ucrt:api-ms-win-crt-runtime-l1-1-0.dll
 0000:ff855000       .debug$S                   10000000     ucrt:api-ms-win-crt-runtime-l1-1-0.dll
 0000:ff855000       .debug$S                   10000000     ucrt:api-ms-win-crt-runtime-l1-1-0.dll
 0000:ff855000       .debug$S                   10000000     ucrt:api-ms-win-crt-runtime-l1-1-0.dll
 0000:ff855000       .debug$S                   10000000     ucrt:api-ms-win-crt-runtime-l1-1-0.dll
 0000:ff855000       .debug$S                   10000000     ucrt:api-ms-win-crt-runtime-l1-1-0.dll
 0000:ff855000       .debug$S                   10000000     ucrt:api-ms-win-crt-runtime-l1-1-0.dll
 0000:ff855000       .debug$S                   10000000     ucrt:api-ms-win-crt-runtime-l1-1-0.dll
 0000:ff855000       .debug$S                   10000000     ucrt:api-ms-win-crt-runtime-l1-1-0.dll
 0000:ff855000       .debug$S                   10000000     ucrt:api-ms-win-crt-heap-l1-1-0.dll
 0000:ff855000       .debug$S                   10000000     ucrt:api-ms-win-crt-string-l1-1-0.dll
 0000:ff855000       .debug$S                   10000000     ucrt:api-ms-win-crt-string-l1-1-0.dll
 0000:ff855000       .debug$S                   10000000     ucrt:api-ms-win-crt-stdio-l1-1-0.dll
 0000:ff855000       .debug$S                   10000000     ucrt:api-ms-win-crt-convert-l1-1-0.dll
 0000:ff855000       .debug$S                   10000000     ucrt:api-ms-win-crt-string-l1-1-0.dll
 0000:ff855000       .debug$S                   10000000     ucrt:api-ms-win-crt-time-l1-1-0.dll
 0000:ff855000       .debug$S                   10000000     ucrt:api-ms-win-crt-time-l1-1-0.dll
 0000:ff855000       .debug$S                   10000000     ucrt:api-ms-win-crt-time-l1-1-0.dll
 0000:ff855000       .debug$S                   10000000     ucrt:api-ms-win-crt-math-l1-1-0.dll
 0000:ff855000       .debug$S                   10000000     ucrt:api-ms-win-crt-math-l1-1-0.dll
 0000:ff855000       .debug$S                   10000000     ucrt:api-ms-win-crt-math-l1-1-0.dll
 0000:ff855000       .debug$S                   10000000     ucrt:api-ms-win-crt-math-l1-1-0.dll
 0000:ff855000       .debug$S                   10000000     ucrt:api-ms-win-crt-math-l1-1-0.dll
 0000:ff855000       .debug$S                   10000000     ucrt:api-ms-win-crt-math-l1-1-0.dll
 0000:ff855000       .debug$S                   10000000     ucrt:api-ms-win-crt-stdio-l1-1-0.dll
 0000:ff855000       .debug$S                   10000000     ucrt:api-ms-win-crt-convert-l1-1-0.dll
 0000:ff855000       .debug$S                   10000000     ucrt:api-ms-win-crt-string-l1-1-0.dll
 0000:ff855000       .debug$S                   10000000     ucrt:api-ms-win-crt-runtime-l1-1-0.dll
 0000:ff855000       .debug$S                   10000000     ucrt:api-ms-win-crt-string-l1-1-0.dll
 0000:ff855000       .debug$S                   10000000     ucrt:api-ms-win-crt-string-l1-1-0.dll
 0000:ff855000       .debug$S                   10000000     ucrt:api-ms-win-crt-math-l1-1-0.dll
 0000:ff855000       .debug$S                   10000000     ucrt:api-ms-win-crt-math-l1-1-0.dll
 0000:ff855000       .debug$S                   10000000     ucrt:api-ms-win-crt-heap-l1-1-0.dll
 0000:ff855000       .debug$S                   10000000     ucrt:api-ms-win-crt-math-l1-1-0.dll
 0000:ff855000       .debug$S                   10000000     ucrt:api-ms-win-crt-math-l1-1-0.dll
 0000:ff855000       .debug$S                   10000000     ucrt:api-ms-win-crt-math-l1-1-0.dll
 0000:ff855000       .debug$S                   10000000     ucrt:api-ms-win-crt-math-l1-1-0.dll
 0000:ff855000       .debug$S                   10000000     ucrt:api-ms-win-crt-math-l1-1-0.dll
 0000:ff855000       .debug$S                   10000000     ucrt:api-ms-win-crt-math-l1-1-0.dll
 0000:ff855000       .debug$S                   10000000     ucrt:api-ms-win-crt-math-l1-1-0.dll
 0000:ff855000       .debug$S                   10000000     ucrt:api-ms-win-crt-math-l1-1-0.dll
 0000:ff855000       .debug$S                   10000000     ucrt:api-ms-win-crt-utility-l1-1-0.dll
 0000:ff855000       .debug$S                   10000000     ucrt:api-ms-win-crt-heap-l1-1-0.dll
 0000:ff855000       .debug$S                   10000000     ucrt:api-ms-win-crt-heap-l1-1-0.dll
 0000:ff855000       .debug$S                   10000000     ucrt:api-ms-win-crt-string-l1-1-0.dll
 0000:ff855000       .debug$S                   10000000     ucrt:api-ms-win-crt-string-l1-1-0.dll
 0000:ff855000       .debug$S                   10000000     ucrt:api-ms-win-crt-stdio-l1-1-0.dll
 0000:ff855000       .debug$S                   10000000     ucrt:api-ms-win-crt-stdio-l1-1-0.dll
 0000:ff855000       .debug$S                   10000000     ucrt:api-ms-win-crt-stdio-l1-1-0.dll
 0000:ff855000       .debug$S                   10000000     ucrt:api-ms-win-crt-stdio-l1-1-0.dll
 0000:ff855000       .debug$S                   10000000     ucrt:api-ms-win-crt-stdio-l1-1-0.dll
 0000:ff855000       .debug$S                   10000000     ucrt:api-ms-win-crt-string-l1-1-0.dll
 0000:ff855000       .debug$S                   10000000     ucrt:api-ms-win-crt-stdio-l1-1-0.dll
 0000:ff855000       .debug$S                   10000000     ucrt:api-ms-win-crt-utility-l1-1-0.dll
 0000:ff855000       .debug$S                   10000000     ucrt:api-ms-win-crt-utility-l1-1-0.dll
 0000:ff855000       .debug$S                   10000000     ucrt:api-ms-win-crt-convert-l1-1-0.dll
 0000:ff855000       .debug$S                   10000000     ucrt:api-ms-win-crt-filesystem-l1-1-0.dll
 0000:ff855000       .debug$S                   10000000     ucrt:api-ms-win-crt-filesystem-l1-1-0.dll
 0000:ff855000       .debug$S                   10000000     ucrt:api-ms-win-crt-stdio-l1-1-0.dll
 0000:ff855000       .debug$S                   10000000     ucrt:api-ms-win-crt-stdio-l1-1-0.dll
 0000:ff855000       .debug$S                   10000000     ucrt:api-ms-win-crt-stdio-l1-1-0.dll
 0000:ff855000       .debug$S                   10000000     ucrt:api-ms-win-crt-stdio-l1-1-0.dll
 0000:ff855000       .debug$S                   10000000     ucrt:api-ms-win-crt-stdio-l1-1-0.dll
 0000:ff855000       .debug$S                   10000000     ucrt:api-ms-win-crt-stdio-l1-1-0.dll
 0000:ff855000       .debug$S                   10000000     ucrt:api-ms-win-crt-stdio-l1-1-0.dll
 0000:ff855000       .debug$S                   10000000     ucrt:api-ms-win-crt-stdio-l1-1-0.dll
 0000:ff855000       .debug$S                   10000000     ucrt:api-ms-win-crt-stdio-l1-1-0.dll
 0000:ff855000       .debug$S                   10000000     ucrt:api-ms-win-crt-stdio-l1-1-0.dll
 0000:ff855000       .debug$S                   10000000     ucrt:api-ms-win-crt-stdio-l1-1-0.dll
 0000:ff855000       .debug$S                   10000000     ucrt:api-ms-win-crt-stdio-l1-1-0.dll
 0000:ff855000       .debug$S                   10000000     ucrt:api-ms-win-crt-stdio-l1-1-0.dll
 0000:ff855000       .debug$S                   10000000     ucrt:api-ms-win-crt-stdio-l1-1-0.dll
 0000:ff855000       .debug$S                   10000000     ucrt:api-ms-win-crt-convert-l1-1-0.dll
 0000:ff855000       .debug$S                   10000000     ucrt:api-ms-win-crt-convert-l1-1-0.dll
 0000:ff855000       .debug$S                   10000000     ucrt:api-ms-win-crt-runtime-l1-1-0.dll
 0000:ff855000       .debug$S                   10000000     kernel32:KERNEL32.dll
 0000:ff855000       .debug$S                   10000000     vcruntime:VCRUNTIME140.dll
 0000:ff855000       .debug$S                   10000000     vcruntime:VCRUNTIME140.dll
 0000:ff855000       .debug$S                   10000000     vcruntime:VCRUNTIME140.dll
 0000:ff855000       .debug$S                   10000000     vcruntime:VCRUNTIME140.dll
 0000:ff855000       .debug$S                   10000000     vcruntime:VCRUNTIME140.dll
 0000:ff855000       .debug$S                   10000000     vcruntime:VCRUNTIME140.dll
 0000:ff855000       .debug$S                   10000000     vcruntime:VCRUNTIME140.dll
 0000:ff855000       .debug$S                   10000000     vcruntime:VCRUNTIME140.dll
 0000:ff855000       .debug$S                   10000000     vcruntime:VCRUNTIME140.dll
 0000:ff855000       .debug$S                   10000000     vcruntime:VCRUNTIME140.dll
 0000:ff855000       .debug$S                   10000000     vcruntime:VCRUNTIME140.dll
 0000:ff855000       .debug$S                   10000000     vcruntime:VCRUNTIME140.dll
 0000:ff855000       .debug$S                   10000000     vcruntime:VCRUNTIME140.dll
 0000:ff855000       .debug$S                   10000000     vcruntime:VCRUNTIME140.dll
 0000:ff855000       .debug$S                   10000000     msvcprt:MSVCP140.dll
 0000:ff855000       .debug$S                   10000000     winmm:WINMM.dll
 0000:ff855000       .debug$S                   10000000     kernel32:KERNEL32.dll
 0000:ff855000       .debug$S                   10000000     imm32:IMM32.dll
 0000:ff855000       .debug$S                   10000000     imm32:IMM32.dll
 0000:ff855000       .debug$S                   10000000     kernel32:KERNEL32.dll
 0000:ff855000       .debug$S                   10000000     kernel32:KERNEL32.dll
 0000:ff855000       .debug$S                   10000000     kernel32:KERNEL32.dll
 0000:ff855000       .debug$S                   10000000     kernel32:KERNEL32.dll
 0000:ff855000       .debug$S                   10000000     kernel32:KERNEL32.dll
 0000:ff855000       .debug$S                   10000000     msvcprt:MSVCP140.dll
 0000:ff855000       .debug$S                   10000000     msvcprt:MSVCP140.dll
 0000:ff855000       .debug$S                   10000000     kernel32:KERNEL32.dll
 0000:ff855000       .debug$S                   10000000     kernel32:KERNEL32.dll
 0000:ff855000       .debug$S                   10000000     kernel32:KERNEL32.dll
 0000:ff855000       .debug$S                   10000000     kernel32:KERNEL32.dll
 0000:ff855000       .debug$S                   10000000     kernel32:KERNEL32.dll
 0000:ff855000       .debug$S                   10000000     kernel32:KERNEL32.dll
 0000:ff855000       .debug$S                   10000000     kernel32:KERNEL32.dll
 0000:ff855000       .debug$S                   10000000     kernel32:KERNEL32.dll
 0000:ff855000       .debug$S                   10000000     kernel32:KERNEL32.dll
 0000:ff855000       .debug$S                   10000000     kernel32:KERNEL32.dll
 0000:ff855000       .debug$S                   10000000     user32:USER32.dll
 0000:ff855000       .debug$S                   10000000     user32:USER32.dll
 0000:ff855000       .debug$S                   10000000     user32:USER32.dll
 0000:ff855000       .debug$S                   10000000     user32:USER32.dll
 0000:ff855000       .debug$S                   10000000     msvcprt:MSVCP140.dll
 0000:ff855000       .debug$S                   10000000     user32:USER32.dll
 0000:ff855000       .debug$S                   10000000     user32:USER32.dll
 0000:ff855000       .debug$S                   10000000     user32:USER32.dll
 0000:ff855000       .debug$S                   10000000     user32:USER32.dll
 0000:ff855000       .debug$S                   10000000     user32:USER32.dll
 0000:ff855000       .debug$S                   10000000     user32:USER32.dll
 0000:ff855000       .debug$S                   10000000     user32:USER32.dll
 0000:ff855000       .debug$S                   10000000     user32:USER32.dll
 0000:ff855000       .debug$S                   10000000     kernel32:KERNEL32.dll
 0000:ff855000       .debug$S                   10000000     msvcprt:MSVCP140.dll
 0000:ff855000       .debug$S                   10000000     msvcprt:MSVCP140.dll
 0000:ff855000       .debug$S                   10000000     msvcprt:MSVCP140.dll
 0000:ff855000       .debug$S                   10000000     advapi32:ADVAPI32.dll
 0000:ff855000       .debug$S                   10000000     advapi32:ADVAPI32.dll
 0000:ff855000       .debug$S                   10000000     advapi32:ADVAPI32.dll
 0000:ff855000       .debug$S                   10000000     kernel32:KERNEL32.dll
 0000:ff855000       .debug$S                   10000000     oleaut32:OLEAUT32.dll
 0000:ff855000       .debug$S                   10000000     oleaut32:OLEAUT32.dll
 0000:ff855000       .debug$S                   10000000     kernel32:KERNEL32.dll
 0000:ff855000       .debug$S                   10000000     msvcprt:MSVCP140.dll
 0000:ff855000       .debug$S                   10000000     msvcprt:MSVCP140.dll
 0000:ff855000       .debug$S                   10000000     msvcprt:MSVCP140.dll
 0000:ff855000       .debug$S                   10000000     msvcprt:MSVCP140.dll
 0000:ff855000       .debug$S                   10000000     msvcprt:MSVCP140.dll
 0000:ff855000       .debug$S                   10000000     msvcprt:MSVCP140.dll
 0000:ff855000       .debug$S                   10000000     kernel32:KERNEL32.dll
 0000:ff855000       .debug$S                   10000000     kernel32:KERNEL32.dll
 0000:ff855000       .debug$S                   10000000     kernel32:KERNEL32.dll
 0000:ff855000       .debug$S                   10000000     kernel32:KERNEL32.dll
 0000:ff855000       .debug$S                   10000000     kernel32:KERNEL32.dll
 0000:ff855000       .debug$S                   10000000     msvcprt:MSVCP140.dll
 0000:ff855000       .debug$S                   10000000     msvcprt:MSVCP140.dll
 0000:ff855000       .debug$S                   10000000     msvcprt:MSVCP140.dll
 0000:ff855000       .debug$S                   10000000     msvcprt:MSVCP140.dll
 0000:ff855000       .debug$S                   10000000     msvcprt:MSVCP140.dll
 0000:ff855000       .debug$S                   10000000     msvcprt:MSVCP140.dll
 0000:ff855000       .debug$S                   10000000     msvcprt:MSVCP140.dll
 0000:ff855000       .debug$S                   10000000     msvcprt:MSVCP140.dll
 0000:ff855000       .debug$S                   10000000     msvcprt:MSVCP140.dll
 0000:ff855000       .debug$S                   10000000     msvcprt:MSVCP140.dll
 0000:ff855000       .debug$S                   10000000     msvcprt:MSVCP140.dll
 0000:ff855000       .debug$S                   10000000     msvcprt:MSVCP140.dll
 0000:ff855000       .debug$S                   10000000     msvcprt:MSVCP140.dll
 0000:ff855000       .debug$S                   10000000     msvcprt:MSVCP140.dll
 0000:ff855000       .debug$S                   10000000     msvcprt:MSVCP140.dll
 0000:ff855000       .debug$S                   10000000     msvcprt:MSVCP140.dll
 0000:ff855000       .debug$S                   10000000     msvcprt:MSVCP140.dll
 0000:ff855000       .debug$S                   10000000     msvcprt:MSVCP140.dll
 0000:ff855000       .debug$S                   10000000     msvcprt:MSVCP140.dll
 0000:ff855000       .debug$S                   10000000     msvcprt:MSVCP140.dll
 0000:ff855000       .debug$S                   10000000     msvcprt:MSVCP140.dll
 0000:ff855000       .debug$S                   10000000     msvcprt:MSVCP140.dll
 0000:ff855000       .debug$S                   10000000     msvcprt:MSVCP140.dll
 0000:ff855000       .debug$S                   10000000     msvcprt:MSVCP140.dll
 0000:ff855000       .debug$S                   10000000     msvcprt:MSVCP140.dll
 0000:ff855000       .debug$S                   10000000     msvcprt:MSVCP140.dll
 0000:ff855000       .debug$S                   10000000     msvcprt:MSVCP140.dll
 0000:ff855000       .debug$S                   10000000     msvcprt:MSVCP140.dll
 0000:ff855000       .debug$S                   10000000     msvcprt:MSVCP140.dll
 0000:ff855000       .debug$S                   10000000     msvcprt:MSVCP140.dll
 0000:ff855000       .debug$S                   10000000     msvcprt:MSVCP140.dll
 0000:ff855000       .debug$S                   10000000     msvcprt:MSVCP140.dll
 0000:ff855000       .debug$S                   10000000     msvcprt:MSVCP140.dll
 0000:ff855000       .debug$S                   10000000     msvcprt:MSVCP140.dll
 0000:ff855000       .debug$S                   10000000     msvcprt:MSVCP140.dll
 0000:ff855000       .debug$S                   10000000     msvcprt:MSVCP140.dll
 0000:ff855000       .debug$S                   10000000     msvcprt:MSVCP140.dll
 0001:00000000       ??__EIniFile@Cvar@CSX@@YAXXZ 10001000 f   CSX_Cvar.obj
 0001:00000020       ??__E?LogFile@Log@CSX@@2V?$basic_string@DU?$char_traits@D@std@@V?$allocator@D@2@@std@@A@@YAXXZ 10001020 f   CSX_Log.obj
 0001:00000110       ??__E?m_Logfile@Log@CSX@@2V?$basic_ofstream@DU?$char_traits@D@std@@@std@@A@@YAXXZ 10001110 f   CSX_Log.obj
 0001:00000280       ??__EItemDefinitionIndexMap@@YAXXZ 10001280 f   Gui.obj
 0001:00001390       ??__EGImDefaultContext@@YAXXZ 10002390 f   imgui.obj
 0001:000013b0       ??__EGImDefaultFontAtlas@@YAXXZ 100023b0 f   imgui.obj
 0001:000013d0       ??__EItemDefinitionIndexMap@@YAXXZ 100023d0 f   recvproxy.obj
 0001:000024e0       ??__EItemDefinitionIndexMap@@YAXXZ 100034e0 f   Autowall.obj
 0001:000035f0       ??__EItemDefinitionIndexMap@@YAXXZ 100045f0 f   Chams.obj
 0001:00004700       ??__EItemDefinitionIndexMap@@YAXXZ 10005700 f   Configuration.obj
 0001:00005810       ??__Eg_Options@@YAXXZ      10006810 f   Configuration.obj
 0001:00005830       ??__EItemDefinitionIndexMap@@YAXXZ 10006830 f   DLLMain.obj
 0001:00006940       ??__EItemDefinitionIndexMap@@YAXXZ 10007940 f   EnginePrediction.obj
 0001:00007a50       ??__EESP_ctx@ColorAlpha@@YAXXZ 10008a50 f   ESP.obj
 0001:00007a60       ??__EItemDefinitionIndexMap@@YAXXZ 10008a60 f   ESP.obj
 0001:00008b70       ??__ELoadNamedSky@@YAXXZ   10009b70 f   ESP.obj
 0001:00008ce0       ??__EColorsForPicker1@Global@@YAXXZ 10009ce0 f   Global.obj
 0001:00008cf0       ??__EItemDefinitionIndexMap@@YAXXZ 10009cf0 f   Global.obj
 0001:00009e00       ??__EItemDefinitionIndexMap@@YAXXZ 1000ae00 f   GrenadePrediction.obj
 0001:0000af10       ??__EAimPoint@Globals@@YAXXZ 1000bf10 f   Hooks.obj
 0001:0000af20       ??__EBaseDir@@YAXXZ        1000bf20 f   Hooks.obj
 0001:0000af40       ??__EConfigList@@YAXXZ     1000bf40 f   Hooks.obj
 0001:0000af50       ??__EGuiFile@@YAXXZ        1000bf50 f   Hooks.obj
 0001:0000af70       ??__EIniFile@@YAXXZ        1000bf70 f   Hooks.obj
 0001:0000afa0       ??__EItemDefinitionIndexMap@@YAXXZ 1000bfa0 f   Hooks.obj
 0001:0000c0b0       ??__ELogFile@@YAXXZ        1000d0b0 f   Hooks.obj
 0001:0000c0d0       ??__Eclient@hooks@@YAXXZ   1000d0d0 f   Hooks.obj
 0001:0000c0f0       ??__Eclientmode@hooks@@YAXXZ 1000d0f0 f   Hooks.obj
 0001:0000c110       ??__Ed3d@hooks@@YAXXZ      1000d110 f   Hooks.obj
 0001:0000c130       ??__EdwCAM_Think@@YAXXZ    1000d130 f   Hooks.obj
 0001:0000c150       ??__Eengine@hooks@@YAXXZ   1000d150 f   Hooks.obj
 0001:0000c170       ??__Eeventmanager@hooks@@YAXXZ 1000d170 f   Hooks.obj
 0001:0000c190       ??__Elogs@@YAXXZ           1000d190 f   Hooks.obj
 0001:0000c1a0       ??__Em_RecordWaypoints@@YAXXZ 1000d1a0 f   Hooks.obj
 0001:0000c1d0       ??__Emodelrender@hooks@@YAXXZ 1000d1d0 f   Hooks.obj
 0001:0000c1f0       ??__Epanel@hooks@@YAXXZ    1000d1f0 f   Hooks.obj
 0001:0000c210       ??__Eprediction@hooks@@YAXXZ 1000d210 f   Hooks.obj
 0001:0000c230       ??__Epurchase@@YAXXZ       1000d230 f   Hooks.obj
 0001:0000c240       ??__EqLastTickAngles@@YAXXZ 1000d240 f   Hooks.obj
 0001:0000c270       ??__Esurface@hooks@@YAXXZ  1000d270 f   Hooks.obj
 0001:0000c290       ??__Esv_cheats@hooks@@YAXXZ 1000d290 f   Hooks.obj
 0001:0000c2b0       ??__Eviewrender@hooks@@YAXXZ 1000d2b0 f   Hooks.obj
 0001:0000c2e0       ??__EItemDefinitionIndexMap@@YAXXZ 1000d2e0 f   Interfaces.obj
 0001:0000d3f0       ??__EItemDefinitionIndexMap@@YAXXZ 1000e3f0 f   LagComp.obj
 0001:0000e500       ??__Ebacktracking@@YAXXZ   1000f500 f   LagComp.obj
 0001:0000e5b0       ??__EheadPositions@@YAXXZ  1000f5b0 f   LagComp.obj
 0001:0000e5e0       ??__EItemDefinitionIndexMap@@YAXXZ 1000f5e0 f   LegitBot.obj
 0001:0000f6f0       ??__EItemDefinitionIndexMap@@YAXXZ 100106f0 f   memesets.obj
 0001:00010800       ??__Eg_Netvars@@YAXXZ      10011800 f   memesets.obj
 0001:00010810       ??__EItemDefinitionIndexMap@@YAXXZ 10011810 f   Misc.obj
 0001:00011920       ??__Eanimatedclantag@@YAXXZ 10012920 f   Misc.obj
 0001:00011930       ??__EItemDefinitionIndexMap@@YAXXZ 10012930 f   NetVarManager.obj
 0001:00012a40       ??__ENetVarManager@@YAXXZ  10013a40 f   NetVarManager.obj
 0001:00012a80       ??__EItemDefinitionIndexMap@@YAXXZ 10013a80 f   RageBot.obj
 0001:00013b90       ??__EItemDefinitionIndexMap@@YAXXZ 10014b90 f   Render.obj
 0001:00014ca0       ??__Eg_Render@@YAXXZ       10015ca0 f   Render.obj
 0001:00014cc0       ??__EItemDefinitionIndexMap@@YAXXZ 10015cc0 f   Resolver2.obj
 0001:00015dd0       ??__EItemDefinitionIndexMap@@YAXXZ 10016dd0 f   SkinChanger.obj
 0001:00016ee0       ??__Eg_KillIconCfg@@YAXXZ  10017ee0 f   SkinChanger.obj
 0001:00016f80       ??__Eg_ViewModelCfg@@YAXXZ 10017f80 f   SkinChanger.obj
 0001:00017020       ??__Ek_gloves@@YAXXZ       10018020 f   SkinChanger.obj
 0001:00017060       ??__Ek_skins@@YAXXZ        10018060 f   SkinChanger.obj
 0001:000170a0       ??__Ek_stickers@@YAXXZ     100180a0 f   SkinChanger.obj
 0001:000170e0       ??__EkillIcons@@YAXXZ      100180e0 f   SkinChanger.obj
 0001:00017180       ??__EItemDefinitionIndexMap@@YAXXZ 10018180 f   SpoofedConvar.obj
 0001:00018290       ??__EItemDefinitionIndexMap@@YAXXZ 10019290 f   MiscFunctions.obj
 0001:000193a0       ??__ETrace@@YAXXZ          1001a3a0 f   MiscFunctions.obj
 0001:000193be       ??__E_Fac_tidy_reg@std@@YAXXZ 1001a3be f   msvcprt:locale0_implib.obj
 0001:00019c50       ??1Text@?1??DrawInfo@visuals@@AAEXUtagRECT@@PAVC_BaseEntity@@1@Z@QAE@XZ 1001ac50 f i ESP.obj
 0001:0001ab15       __catch$??$?6U?$char_traits@D@std@@@std@@YAAAV?$basic_ostream@DU?$char_traits@D@std@@@0@AAV10@PBD@Z$0 1001bb15 f i CSX_Log.obj
 0001:0001ad47       __catch$??$_Insert_string@DU?$char_traits@D@std@@I@std@@YAAAV?$basic_ostream@DU?$char_traits@D@std@@@0@AAV10@QBDI@Z$0 1001bd47 f i CSX_Log.obj
 0001:0001c2c0       ??R<lambda_c3abef6caf7cf95a4c93cda7c652773e>@@QBE?AV?$vector@HV?$allocator@H@std@@@std@@PBD@Z 1001d2c0 f   CSX_Memory.obj
 0001:0001c3c0       ?_Xlength@?$vector@VText@?1??DrawInfo@visuals@@AAEXUtagRECT@@PAVC_BaseEntity@@1@Z@V?$allocator@VText@?1??DrawInfo@visuals@@AAEXUtagRECT@@PAVC_BaseEntity@@1@Z@@std@@@std@@CAXXZ 1001d3c0 f i ESP.obj
 0001:0001f8f4       $LN189                     100208f4     Gui.obj
 0001:0001f920       ?<lambda_invoker_cdecl>@<lambda_d52bd3dd505582ba1a4e14084a1efdc0>@@CA_NPAXHPAPBD@Z 10020920 f   Gui.obj
 0001:0001fd1b       __catch$??$_Insert_hint@AAU?$pair@$$CBW4ItemDefinitionIndexx@@UDefItem_t@@@std@@PAU?$_Tree_node@U?$pair@$$CBW4ItemDefinitionIndexx@@UDefItem_t@@@std@@PAX@2@@?$_Tree@V?$_Tmap_traits@W4ItemDefinitionIndexx@@UDefItem_t@@U?$less@W4ItemDefinitionIndexx@@@std@@V?$allocator@U?$pair@$$CBW4ItemDefinitionIndexx@@UDefItem_t@@@std@@@4@$0A@@std@@@std@@IAE?AV?$_Tree_iterator@V?$_Tree_val@U?$_Tree_simple_types@U?$pair@$$CBW4ItemDefinitionIndexx@@UDefItem_t@@@std@@@std@@@std@@@1@V?$_Tree_const_iterator@V?$_Tree_val@U?$_Tree_simple_types@U?$pair@$$CBW4ItemDefinitionIndexx@@UDefItem_t@@@std@@@std@@@std@@@1@AAU?$pair@$$CBW4ItemDefinitionIndexx@@UDefItem_t@@@1@PAU?$_Tree_node@U?$pair@$$CBW4ItemDefinitionIndexx@@UDefItem_t@@@std@@PAX@1@@Z$0 10020d1b f i Gui.obj
 0001:0001fe36       __catch$??$_Insert_nohint@AAU?$pair@$$CBW4ItemDefinitionIndexx@@UDefItem_t@@@std@@PAU?$_Tree_node@U?$pair@$$CBW4ItemDefinitionIndexx@@UDefItem_t@@@std@@PAX@2@@?$_Tree@V?$_Tmap_traits@W4ItemDefinitionIndexx@@UDefItem_t@@U?$less@W4ItemDefinitionIndexx@@@std@@V?$allocator@U?$pair@$$CBW4ItemDefinitionIndexx@@UDefItem_t@@@std@@@4@$0A@@std@@@std@@IAE?AU?$pair@V?$_Tree_iterator@V?$_Tree_val@U?$_Tree_simple_types@U?$pair@$$CBW4ItemDefinitionIndexx@@UDefItem_t@@@std@@@std@@@std@@@std@@_N@1@_NAAU?$pair@$$CBW4ItemDefinitionIndexx@@UDefItem_t@@@1@PAU?$_Tree_node@U?$pair@$$CBW4ItemDefinitionIndexx@@UDefItem_t@@@std@@PAX@1@@Z$0 10020e36 f i Gui.obj
 0001:00027d14       $LN31                      10028d14     imgui_impl_dx9.obj
 0001:000346a8       $LN240                     100356a8     imgui.obj
 0001:00037e00       $LN191                     10038e00     imgui.obj
 0001:0003a42c       $LN49                      1003b42c     imgui.obj
 0001:0003ac08       $LN15                      1003bc08     imgui.obj
 0001:000449b0       ?GetClipboardTextFn_DefaultImpl@@YAPBDPAX@Z 100459b0 f   imgui.obj
 0001:00044ac0       ?SetClipboardTextFn_DefaultImpl@@YAXPAXPBD@Z 10045ac0 f   imgui.obj
 0001:00044b30       ?ImeSetInputScreenPosFn_DefaultImpl@@YAXHH@Z 10045b30 f   imgui.obj
 0001:00044bc0       ?ChildWindowComparer@@YAHPBX0@Z 10045bc0 f   imgui.obj
 0001:00044c20       ?Plot_ArrayGetter@@YAMPAXH@Z 10045c20 f   imgui.obj
 0001:00044c40       ?Items_ArrayGetter@@YA_NPAXHPAPBD@Z 10045c40 f   imgui.obj
 0001:00044c60       ?Items_SingleStringGetter@@YA_NPAXHPAPBD@Z 10045c60 f   imgui.obj
 0001:000510c0       ?AddDrawListToRenderList@@YAXAAV?$ImVector@PAUImDrawList@@@@PAUImDrawList@@@Z 100520c0 f   imgui.obj
 0001:00051150       ?AddWindowSettings@@YAPAUImGuiIniData@@PBD@Z 10052150 f   imgui.obj
 0001:000512c0       ?AddWindowToRenderList@@YAXAAV?$ImVector@PAUImDrawList@@@@PAUImGuiWindow@@@Z 100522c0 f   imgui.obj
 0001:00051330       ?AddWindowToSortedBuffer@@YAXAAV?$ImVector@PAUImGuiWindow@@@@PAUImGuiWindow@@@Z 10052330 f   imgui.obj
 0001:000513e0       ?ApplySizeFullWithConstraint@@YAXPAUImGuiWindow@@UImVec2@@@Z 100523e0 f   imgui.obj
 0001:00051510       ?BeginChildEx@@YA_NPBDIABUImVec2@@_NH@Z 10052510 f   imgui.obj
 0001:00051730       ?BeginPopupEx@@YA_NPBDH@Z  10052730 f   imgui.obj
 0001:000518e0       ?BeginTooltipEx@@YAX_N@Z   100528e0 f   imgui.obj
 0001:000519a0       ?ClosePopup@@YAXI@Z        100529a0 f   imgui.obj
 0001:000519e0       ?ClosePopupToLevel@@YAXH@Z 100529e0 f   imgui.obj
 0001:00051a50       ?CreateNewWindow@@YAPAUImGuiWindow@@PBDUImVec2@@H@Z 10052a50 f   imgui.obj
 0001:00051d20       ?DataTypeApplyOpFromText@@YA_NPBD0W4ImGuiDataType@@PAX0@Z 10052d20 f   imgui.obj
 0001:00051f80       ?FindBestPopupWindowPos@@YA?AUImVec2@@ABU1@0PAHABUImRect@@@Z 10052f80 f   imgui.obj
 0001:000521b0       ?FindHoveredWindow@@YAPAUImGuiWindow@@UImVec2@@_N@Z 100531b0 f   imgui.obj
 0001:00052270       ?FindWindowSettings@@YAPAUImGuiIniData@@PBD@Z 10053270 f   imgui.obj
 0001:000522c0       ?GetDraggedColumnOffset@@YAMH@Z 100532c0 f   imgui.obj
 0001:00052350       ?GetFrontMostModalRootWindow@@YAPAUImGuiWindow@@XZ 10053350 f   imgui.obj
 0001:00052390       ?GetVisibleRect@@YA?AUImRect@@XZ 10053390 f   imgui.obj
 0001:00052420       ?InputTextFilterCharacter@@YA_NPAIHP6AHPAUImGuiTextEditCallbackData@@@ZPAX@Z 10053420 f   imgui.obj
 0001:00052570       ?IsKeyPressedMap@@YA_NH_N@Z 10053570 f   imgui.obj
 0001:00052650       ?IsPopupOpen@@YA_NI@Z      10053650 f   imgui.obj
 0001:00052680       ?IsWindowContentHoverable@@YA_NPAUImGuiWindow@@@Z 10053680 f   imgui.obj
 0001:000526d0       ?LoadIniSettingsFromDisk@@YAXPBD@Z 100536d0 f   imgui.obj
 0001:00052950       ?LogRenderedText@@YAXABUImVec2@@PBD1@Z 10053950 f   imgui.obj
 0001:00052a50       ?LowerBound@@YAPAUPair@ImGuiStorage@@AAV?$ImVector@UPair@ImGuiStorage@@@@I@Z 10053a50 f   imgui.obj
 0001:00052aa0       ?NodeDrawList@Funcs@?4??ShowMetricsWindow@ImGui@@YAXPA_N@Z@SAXPAUImDrawList@@PBD@Z 10053aa0 f   imgui.obj
 0001:00053160       ?NodeWindow@Funcs@?4??ShowMetricsWindow@ImGui@@YAXPA_N@Z@SAXPAUImGuiWindow@@PBD@Z 10054160 f   imgui.obj
 0001:000532a0       ?NodeWindows@Funcs@?4??ShowMetricsWindow@ImGui@@YAXPA_N@Z@SAXAAV?$ImVector@PAUImGuiWindow@@@@PBD@Z 100542a0 f   imgui.obj
 0001:000534a0       ?PushColumnClipRect@@YAXH@Z 100544a0 f   imgui.obj
 0001:000535b0       ?PushMultiItemsWidths@@YAXHM@Z 100545b0 f   imgui.obj
 0001:00053780       ?STB_TEXTEDIT_DELETECHARS@ImGuiStb@@YAXPAUImGuiTextEditState@@HH@Z 10054780 f   imgui.obj
 0001:000537e0       ?STB_TEXTEDIT_GETWIDTH@ImGuiStb@@YAMPAUImGuiTextEditState@@HH@Z 100547e0 f   imgui.obj
 0001:00053850       ?STB_TEXTEDIT_INSERTCHARS@ImGuiStb@@YA_NPAUImGuiTextEditState@@HPBGH@Z 10054850 f   imgui.obj
 0001:00053900       ?STB_TEXTEDIT_LAYOUTROW@ImGuiStb@@YAXPAUStbTexteditRow@1@PAUImGuiTextEditState@@H@Z 10054900 f   imgui.obj
 0001:000539e0       ?STB_TEXTEDIT_MOVEWORDLEFT_IMPL@ImGuiStb@@YAHPAUImGuiTextEditState@@H@Z 100549e0 f   imgui.obj
 0001:00053ab0       ?STB_TEXTEDIT_MOVEWORDRIGHT_IMPL@ImGuiStb@@YAHPAUImGuiTextEditState@@H@Z 10054ab0 f   imgui.obj
 0001:00053b80       ?SaveIniSettingsToDisk@@YAXPBD@Z 10054b80 f   imgui.obj
 0001:00053d30       ?Scrollbar@@YAXPAUImGuiWindow@@_N@Z 10054d30 f   imgui.obj
 0001:000542f0       ?SetCursorPosYAndSetupDummyPrevLine@@YAXMM@Z 100552f0 f   imgui.obj
 0001:000543a0       ?SetWindowPos@@YAXPAUImGuiWindow@@ABUImVec2@@H@Z 100553a0 f   imgui.obj
 0001:00054460       ?SetWindowSize@@YAXPAUImGuiWindow@@ABUImVec2@@H@Z 10055460 f   imgui.obj
 0001:00054b50       ?stb_text_createundo@ImGuiStb@@YAPAGPAUStbUndoState@1@HHH@Z 10055b50 f   imgui.obj
 0001:00054c40       ?stb_text_locate_coord@ImGuiStb@@YAHPAUImGuiTextEditState@@MM@Z 10055c40 f   imgui.obj
 0001:00054d80       ?stb_text_undo@ImGuiStb@@YAXPAUImGuiTextEditState@@PAUSTB_TexteditState@1@@Z 10055d80 f   imgui.obj
 0001:00054ff0       ?stb_textedit_clamp@ImGuiStb@@YAXPAUImGuiTextEditState@@PAUSTB_TexteditState@1@@Z 10055ff0 f   imgui.obj
 0001:00055030       ?stb_textedit_delete@ImGuiStb@@YAXPAUImGuiTextEditState@@PAUSTB_TexteditState@1@HH@Z 10056030 f   imgui.obj
 0001:00055090       ?stb_textedit_delete_selection@ImGuiStb@@YAXPAUImGuiTextEditState@@PAUSTB_TexteditState@1@@Z 10056090 f   imgui.obj
 0001:00055120       ?stb_textedit_discard_undo@ImGuiStb@@YAXPAUStbUndoState@1@@Z 10056120 f   imgui.obj
 0001:000551e0       ?stb_textedit_find_charpos@ImGuiStb@@YAXPAUStbFindState@1@PAUImGuiTextEditState@@HH@Z 100561e0 f   imgui.obj
 0001:00055370       ?stb_textedit_key@ImGuiStb@@YAXPAUImGuiTextEditState@@PAUSTB_TexteditState@1@H@Z 10056370 f   imgui.obj
 0001:00055be4       $LN231                     10056be4     imgui.obj
 0001:00055c1c       $LN232                     10056c1c     imgui.obj
 0001:00055c50       ?stb_textedit_move_to_first@ImGuiStb@@YAXPAUSTB_TexteditState@1@@Z 10056c50 f   imgui.obj
 0001:00055c80       ?stb_textedit_move_to_last@ImGuiStb@@YAXPAUImGuiTextEditState@@PAUSTB_TexteditState@1@@Z 10056c80 f   imgui.obj
 0001:00055cd0       ?stb_textedit_prep_selection_at_cursor@ImGuiStb@@YAXPAUSTB_TexteditState@1@@Z 10056cd0 f   imgui.obj
 0001:0005c9f0       ?rect_height_compare@@YAHPBX0@Z 1005d9f0 f   imgui_draw.obj
 0001:0005ca30       ?rect_original_order@@YAHPBX0@Z 1005da30 f   imgui_draw.obj
 0001:00065eb0       ?PathBezierToCasteljau@@YAXPAV?$ImVector@UImVec2@@@@MMMMMMMMMH@Z 10066eb0 f   imgui_draw.obj
 0001:00066480       ?stb__lit@@YAXPAEI@Z       10067480 f   imgui_draw.obj
 0001:000664d0       ?stb__match@@YAXPAEI@Z     100674d0 f   imgui_draw.obj
 0001:00066530       ?stb_decompress@@YAIPAE0I@Z 10067530 f   imgui_draw.obj
 0001:000667b0       ?stb_decompress_token@@YAPAEPAE@Z 100677b0 f   imgui_draw.obj
 0001:000669d0       ?stbrp__skyline_find_best_pos@@YA?AUstbrp__findresult@@PAUstbrp_context@@HH@Z 100679d0 f   imgui_draw.obj
 0001:00066b60       ?stbrp__skyline_find_min_y@@YAHPAUstbrp_context@@PAUstbrp_node@@HHPAH@Z 10067b60 f   imgui_draw.obj
 0001:00066c40       ?stbtt_FlattenCurves@@YAPAUstbtt__point@@PAUstbtt_vertex@@HMPAPAHPAHPAX@Z 10067c40 f   imgui_draw.obj
 0001:00067068       $LN67                      10068068     imgui_draw.obj
 0001:00067080       ?stbtt_InitFont_internal@@YAHPAUstbtt_fontinfo@@PAEH@Z 10068080 f   imgui_draw.obj
 0001:000674c0       ?stbtt__GetGlyfOffset@@YAHPBUstbtt_fontinfo@@H@Z 100684c0 f   imgui_draw.obj
 0001:00067580       ?stbtt__GetGlyphShapeT2@@YAHPBUstbtt_fontinfo@@HPAPAUstbtt_vertex@@@Z 10068580 f   imgui_draw.obj
 0001:00067630       ?stbtt__GetGlyphShapeTT@@YAHPBUstbtt_fontinfo@@HPAPAUstbtt_vertex@@@Z 10068630 f   imgui_draw.obj
 0001:00068020       ?stbtt__buf_get8@@YAEPAUstbtt__buf@@@Z 10069020 f   imgui_draw.obj
 0001:00068040       ?stbtt__buf_get@@YAIPAUstbtt__buf@@H@Z 10069040 f   imgui_draw.obj
 0001:00068080       ?stbtt__buf_peek8@@YAEPAUstbtt__buf@@@Z 10069080 f   imgui_draw.obj
 0001:000680a0       ?stbtt__buf_seek@@YAXPAUstbtt__buf@@H@Z 100690a0 f   imgui_draw.obj
 0001:000680c0       ?stbtt__buf_skip@@YAXPAUstbtt__buf@@H@Z 100690c0 f   imgui_draw.obj
 0001:000680f0       ?stbtt__cff_get_index@@YA?AUstbtt__buf@@PAU1@@Z 100690f0 f   imgui_draw.obj
 0001:000681d0       ?stbtt__cff_index_get@@YA?AUstbtt__buf@@U1@H@Z 100691d0 f   imgui_draw.obj
 0001:000682b0       ?stbtt__cff_int@@YAIPAUstbtt__buf@@@Z 100692b0 f   imgui_draw.obj
 0001:00068420       ?stbtt__cid_get_glyph_subrs@@YA?AUstbtt__buf@@PBUstbtt_fontinfo@@H@Z 10069420 f   imgui_draw.obj
 0001:000685a0       ?stbtt__close_shape@@YAHPAUstbtt_vertex@@HHHHHHHHH@Z 100695a0 f   imgui_draw.obj
 0001:00068680       ?stbtt__csctx_close_shape@@YAXPAUstbtt__csctx@@@Z 10069680 f   imgui_draw.obj
 0001:000686d0       ?stbtt__csctx_rccurve_to@@YAXPAUstbtt__csctx@@MMMMMM@Z 100696d0 f   imgui_draw.obj
 0001:00068740       ?stbtt__csctx_rmove_to@@YAXPAUstbtt__csctx@@MM@Z 10069740 f   imgui_draw.obj
 0001:000687e0       ?stbtt__csctx_v@@YAXPAUstbtt__csctx@@EHHHHHH@Z 100697e0 f   imgui_draw.obj
 0001:000688d0       ?stbtt__dict_get@@YA?AUstbtt__buf@@PAU1@H@Z 100698d0 f   imgui_draw.obj
 0001:00068a60       ?stbtt__dict_get_ints@@YAXPAUstbtt__buf@@HHPAI@Z 10069a60 f   imgui_draw.obj
 0001:00068ad0       ?stbtt__fill_active_edges_new@@YAXPAM0HPAUstbtt__active_edge@@M@Z 10069ad0 f   imgui_draw.obj
 0001:00069a50       ?stbtt__find_table@@YAIPAEIPBD@Z 1006aa50 f   imgui_draw.obj
 0001:00069af0       ?stbtt__get_subrs@@YA?AUstbtt__buf@@U1@0@Z 1006aaf0 f   imgui_draw.obj
 0001:00069c50       ?stbtt__h_prefilter@@YAXPAEHHHI@Z 1006ac50 f   imgui_draw.obj
 0001:00069e78       $LN60                      1006ae78     imgui_draw.obj
 0001:00069e90       ?stbtt__handle_clipped_edge@@YAXPAMHPAUstbtt__active_edge@@MMMM@Z 1006ae90 f   imgui_draw.obj
 0001:00069fb0       ?stbtt__isfont@@YAHPAE@Z   1006afb0 f   imgui_draw.obj
 0001:0006a040       ?stbtt__rasterize@@YAXPAUstbtt__bitmap@@PAUstbtt__point@@PAHHMMMMHHHPAX@Z 1006b040 f   imgui_draw.obj
 0001:0006a320       ?stbtt__rasterize_sorted_edges@@YAXPAUstbtt__bitmap@@PAUstbtt__edge@@HHHHPAX@Z 1006b320 f   imgui_draw.obj
 0001:0006a780       ?stbtt__run_charstring@@YAHPBUstbtt_fontinfo@@HPAUstbtt__csctx@@@Z 1006b780 f   imgui_draw.obj
 0001:0006b710       $LN267                     1006c710     imgui_draw.obj
 0001:0006b760       $LN246                     1006c760     imgui_draw.obj
 0001:0006b780       $LN268                     1006c780     imgui_draw.obj
 0001:0006b790       ?stbtt__sort_edges_quicksort@@YAXPAUstbtt__edge@@H@Z 1006c790 f   imgui_draw.obj
 0001:0006b910       ?stbtt__tesselate_cubic@@YAXPAUstbtt__point@@PAHMMMMMMMMMH@Z 1006c910 f   imgui_draw.obj
 0001:0006bd10       ?stbtt__tesselate_curve@@YAHPAUstbtt__point@@PAHMMMMMMMH@Z 1006cd10 f   imgui_draw.obj
 0001:0006bec0       ?stbtt__track_vertex@@YAXPAUstbtt__csctx@@HH@Z 1006cec0 f   imgui_draw.obj
 0001:0006bf10       ?stbtt__v_prefilter@@YAXPAEHHHI@Z 1006cf10 f   imgui_draw.obj
 0001:0006c140       $LN60                      1006d140     imgui_draw.obj
 0001:0006c150       ?ttLONG@@YAHPAE@Z          1006d150 f   imgui_draw.obj
 0001:0006c150       ?ttULONG@@YAIPAE@Z         1006d150 f   imgui_draw.obj
 0001:0006c1c0       _stbrp_init_target         1006d1c0 f   imgui_draw.obj
 0001:0006c340       _stbrp_pack_rects          1006d340 f   imgui_draw.obj
 0001:0006c500       _stbtt_FindGlyphIndex      1006d500 f   imgui_draw.obj
 0001:0006c810       _stbtt_GetFontOffsetForIndex 1006d810 f   imgui_draw.obj
 0001:0006c8a0       _stbtt_GetGlyphBitmapBoxSubpixel 1006d8a0 f   imgui_draw.obj
 0001:0006cad0       _stbtt_GetGlyphShape       1006dad0 f   imgui_draw.obj
 0001:0006cba0       _stbtt_MakeGlyphBitmapSubpixel 1006dba0 f   imgui_draw.obj
 0001:0006cdb0       _stbtt_PackFontRangesGatherRects 1006ddb0 f   imgui_draw.obj
 0001:0006cfa0       _stbtt_PackFontRangesRenderIntoRects 1006dfa0 f   imgui_draw.obj
 0001:0006dc45       __catch$??$_Construct@PA_S@?$basic_string@DU?$char_traits@D@std@@V?$allocator@D@2@@std@@QAEXPA_SQA_SUinput_iterator_tag@1@@Z$0 1006ec45 f i SkinParser.obj
 0001:0006ee68       $LN79                      1006fe68     recvproxy.obj
 0001:0006ee7c       $LN67                      1006fe7c     recvproxy.obj
 0001:0006ee8c       $LN80                      1006fe8c     recvproxy.obj
 0001:0006eea4       $LN68                      1006fea4     recvproxy.obj
 0001:000709ec       $LN11                      100719ec     Autowall.obj
 0001:00070b14       $LN29                      10071b14     Autowall.obj
 0001:00070b30       $LN30                      10071b30     Autowall.obj
 0001:00070ea8       $LN77                      10071ea8     Autowall.obj
 0001:00070ec4       $LN78                      10071ec4     Autowall.obj
 0001:000802d8       $LN1137                    100812d8     ESP.obj
 0001:00080884       $LN138                     10081884     ESP.obj
 0001:000808b4       $LN139                     100818b4     ESP.obj
 0001:000830c8       $LN1055                    100840c8     ESP.obj
 0001:00083170       $LN1045                    10084170     ESP.obj
 0001:000831b0       $LN1056                    100841b0     ESP.obj
 0001:000831b8       $LN1046                    100841b8     ESP.obj
 0001:00087690       ??$_Destroy_range@V?$allocator@VText@?1??DrawInfo@visuals@@AAEXUtagRECT@@PAVC_BaseEntity@@1@Z@@std@@@std@@YAXPAVText@?1??DrawInfo@visuals@@AAEXUtagRECT@@PAVC_BaseEntity@@1@Z@2AAV?$allocator@VText@?1??DrawInfo@visuals@@AAEXUtagRECT@@PAVC_BaseEntity@@1@Z@@0@@Z 10088690 f   ESP.obj
 0001:00087700       ??$_Emplace_reallocate@VText@?1??DrawInfo@visuals@@AAEXUtagRECT@@PAVC_BaseEntity@@1@Z@@?$vector@VText@?1??DrawInfo@visuals@@AAEXUtagRECT@@PAVC_BaseEntity@@1@Z@V?$allocator@VText@?1??DrawInfo@visuals@@AAEXUtagRECT@@PAVC_BaseEntity@@1@Z@@std@@@std@@QAEPAVText@?1??DrawInfo@visuals@@AAEXUtagRECT@@PAVC_BaseEntity@@1@Z@QAV2?1??34@AAEX011@Z@$$QAV2?1??34@AAEX011@Z@@Z 10088700 f   ESP.obj
 0001:000878f0       ??$_Uninitialized_move@PAVText@?1??DrawInfo@visuals@@AAEXUtagRECT@@PAVC_BaseEntity@@1@Z@PAV1?1??23@AAEX011@Z@V?$allocator@VText@?1??DrawInfo@visuals@@AAEXUtagRECT@@PAVC_BaseEntity@@1@Z@@std@@@std@@YAPAVText@?1??DrawInfo@visuals@@AAEXUtagRECT@@PAVC_BaseEntity@@1@Z@QAV1?1??23@AAEX011@Z@2PAV1?1??23@AAEX011@Z@AAV?$allocator@VText@?1??DrawInfo@visuals@@AAEXUtagRECT@@PAVC_BaseEntity@@1@Z@@0@@Z 100888f0 f   ESP.obj
 0001:000879f0       ??0Text@?1??DrawInfo@visuals@@AAEXUtagRECT@@PAVC_BaseEntity@@1@Z@QAE@V?$basic_string@DU?$char_traits@D@std@@V?$allocator@D@2@@std@@HHVColor@@@Z 100889f0 f   ESP.obj
 0001:00087b00       ??1?$vector@VText@?1??DrawInfo@visuals@@AAEXUtagRECT@@PAVC_BaseEntity@@1@Z@V?$allocator@VText@?1??DrawInfo@visuals@@AAEXUtagRECT@@PAVC_BaseEntity@@1@Z@@std@@@std@@QAE@XZ 10088b00 f   ESP.obj
 0001:00087e84       $LN58                      10088e84     ESP.obj
 0001:00087f28       $LN56                      10088f28     ESP.obj
 0001:00087fd0       ?push_back@?$vector@VText@?1??DrawInfo@visuals@@AAEXUtagRECT@@PAVC_BaseEntity@@1@Z@V?$allocator@VText@?1??DrawInfo@visuals@@AAEXUtagRECT@@PAVC_BaseEntity@@1@Z@@std@@@std@@QAEX$$QAVText@?1??DrawInfo@visuals@@AAEXUtagRECT@@PAVC_BaseEntity@@1@Z@@Z 10088fd0 f   ESP.obj
 0001:000889b0       $LN134                     100899b0     GrenadePrediction.obj
 0001:00088aac       $LN21                      10089aac     GrenadePrediction.obj
 0001:0008b854       $LN245                     1008c854     Hooks.obj
 0001:0008ba7c       $LN80                      1008ca7c     Hooks.obj
 0001:0008c468       $LN387                     1008d468     Hooks.obj
 0001:0008c478       $LN388                     1008d478     Hooks.obj
 0001:0008c48c       $LN389                     1008d48c     Hooks.obj
 0001:0008c6dc       $LN91                      1008d6dc     Hooks.obj
 0001:0008c6ec       $LN92                      1008d6ec     Hooks.obj
 0001:0008c70c       $LN93                      1008d70c     Hooks.obj
 0001:0008c72c       $LN94                      1008d72c     Hooks.obj
 0001:0008c74c       $LN95                      1008d74c     Hooks.obj
 0001:0008c76c       $LN96                      1008d76c     Hooks.obj
 0001:0008c78c       $LN97                      1008d78c     Hooks.obj
 0001:0008c7f0       $LN19                      1008d7f0     Hooks.obj
 0001:0008c7f8       $LN17                      1008d7f8     Hooks.obj
 0001:0008cfd8       $LN1151                    1008dfd8     Hooks.obj
 0001:0008cff4       $LN1152                    1008dff4     Hooks.obj
 0001:0008d014       $LN1153                    1008e014     Hooks.obj
 0001:0008d034       $LN1154                    1008e034     Hooks.obj
 0001:0008d054       $LN1155                    1008e054     Hooks.obj
 0001:0008d074       $LN1156                    1008e074     Hooks.obj
 0001:0008d094       $LN1157                    1008e094     Hooks.obj
 0001:0008d0b4       $LN1158                    1008e0b4     Hooks.obj
 0001:0008d0d4       $LN1159                    1008e0d4     Hooks.obj
 0001:0008d0f4       $LN1160                    1008e0f4     Hooks.obj
 0001:0008d114       $LN1161                    1008e114     Hooks.obj
 0001:0008dce4       $LN153                     1008ece4     Hooks.obj
 0001:0008de9c       $LN62                      1008ee9c     Hooks.obj
 0001:0008e000       $LN103                     1008f000     Hooks.obj
 0001:000903ec       $LN104                     100913ec     Hooks.obj
 0001:00090400       $LN93                      10091400     Hooks.obj
 0001:00090ad0       $LN402                     10091ad0     Hooks.obj
 0001:00092c2c       $LN53                      10093c2c     Hooks.obj
 0001:00092cb8       $LN51                      10093cb8     Hooks.obj
 0001:00092cf8       $LN54                      10093cf8     Hooks.obj
 0001:000a37cc       $LN3314                    100a47cc     Hooks.obj
 0001:000a3858       $LN3237                    100a4858     Hooks.obj
 0001:000a3898       $LN3315                    100a4898     Hooks.obj
 0001:000a4cbc       $LN23                      100a5cbc     Hooks.obj
 0001:000a4fb8       $LN26                      100a5fb8     Hooks.obj
 0001:000a5050       ?<lambda_invoker_cdecl>@<lambda_d2f2c4575b54465332915b80d95be818>@@CA_NPAXHPAPBD@Z 100a6050 f   Hooks.obj
 0001:000a5050       ?<lambda_invoker_cdecl>@<lambda_1af370f57337a7812ce5c1429c36d25d>@@CA_NPAXHPAPBD@Z 100a6050 f   Hooks.obj
 0001:000a5050       ?<lambda_invoker_cdecl>@<lambda_d3660802bcd9e9db757e66bde3f862a9>@@CA_NPAXHPAPBD@Z 100a6050 f   Hooks.obj
 0001:000a5050       ?<lambda_invoker_cdecl>@<lambda_c6153b2ebb75bf67285dba4dc1c827e7>@@CA_NPAXHPAPBD@Z 100a6050 f   Hooks.obj
 0001:000a5050       ?<lambda_invoker_cdecl>@<lambda_678651c0d84b494753f1231c35b36898>@@CA_NPAXHPAPBD@Z 100a6050 f   Hooks.obj
 0001:000a527c       __catch$??$_Buynode@ABUpiecewise_construct_t@std@@V?$tuple@ABV?$basic_string@DU?$char_traits@D@std@@V?$allocator@D@2@@std@@@2@V?$tuple@$$V@2@@?$_List_buy@U?$pair@$$CBV?$basic_string@DU?$char_traits@D@std@@V?$allocator@D@2@@std@@UskinInfo@@@std@@V?$allocator@U?$pair@$$CBV?$basic_string@DU?$char_traits@D@std@@V?$allocator@D@2@@std@@UskinInfo@@@std@@@2@@std@@QAEPAU?$_List_node@U?$pair@$$CBV?$basic_string@DU?$char_traits@D@std@@V?$allocator@D@2@@std@@UskinInfo@@@std@@PAX@1@PAU21@0ABUpiecewise_construct_t@1@$$QAV?$tuple@ABV?$basic_string@DU?$char_traits@D@std@@V?$allocator@D@2@@std@@@1@$$QAV?$tuple@$$V@1@@Z$0 100a627c f i Hooks.obj
 0001:000a531a       __catch$??$_Buynode@ABUpiecewise_construct_t@std@@V?$tuple@ABV?$basic_string@DU?$char_traits@D@std@@V?$allocator@D@2@@std@@@2@V?$tuple@$$V@2@@?$_List_buy@U?$pair@$$CBV?$basic_string@DU?$char_traits@D@std@@V?$allocator@D@2@@std@@V12@@std@@V?$allocator@U?$pair@$$CBV?$basic_string@DU?$char_traits@D@std@@V?$allocator@D@2@@std@@V12@@std@@@2@@std@@QAEPAU?$_List_node@U?$pair@$$CBV?$basic_string@DU?$char_traits@D@std@@V?$allocator@D@2@@std@@V12@@std@@PAX@1@PAU21@0ABUpiecewise_construct_t@1@$$QAV?$tuple@ABV?$basic_string@DU?$char_traits@D@std@@V?$allocator@D@2@@std@@@1@$$QAV?$tuple@$$V@1@@Z$0 100a631a f i Hooks.obj
 0001:000a53cd       __catch$??$_Buynode@ABUpiecewise_construct_t@std@@V?$tuple@ABV?$basic_string@DU?$char_traits@D@std@@V?$allocator@D@2@@std@@@2@V?$tuple@$$V@2@@?$_List_buy@U?$pair@$$CBV?$basic_string@DU?$char_traits@D@std@@V?$allocator@D@2@@std@@V?$set@V?$basic_string@DU?$char_traits@D@std@@V?$allocator@D@2@@std@@U?$less@V?$basic_string@DU?$char_traits@D@std@@V?$allocator@D@2@@std@@@2@V?$allocator@V?$basic_string@DU?$char_traits@D@std@@V?$allocator@D@2@@std@@@2@@2@@std@@V?$allocator@U?$pair@$$CBV?$basic_string@DU?$char_traits@D@std@@V?$allocator@D@2@@std@@V?$set@V?$basic_string@DU?$char_traits@D@std@@V?$allocator@D@2@@std@@U?$less@V?$basic_string@DU?$char_traits@D@std@@V?$allocator@D@2@@std@@@2@V?$allocator@V?$basic_string@DU?$char_traits@D@std@@V?$allocator@D@2@@std@@@2@@2@@std@@@2@@std@@QAEPAU?$_List_node@U?$pair@$$CBV?$basic_string@DU?$char_traits@D@std@@V?$allocator@D@2@@std@@V?$set@V?$basic_string@DU?$char_traits@D@std@@V?$allocator@D@2@@std@@U?$less@V?$basic_string@DU?$char_traits@D@std@@V?$allocator@D@2@@std@@@2@V?$allocator@V?$basic_string@DU?$char_traits@D@std@@V?$allocator@D@2@@std@@@2@@2@@std@@PAX@1@PAU21@0ABUpiecewise_construct_t@1@$$QAV?$tuple@ABV?$basic_string@DU?$char_traits@D@std@@V?$allocator@D@2@@std@@@1@$$QAV?$tuple@$$V@1@@Z$0 100a63cd f i Hooks.obj
 0001:000a5a47       __catch$??$_Insert@AAU?$pair@$$CBHPAX@std@@V?$_List_unchecked_iterator@V?$_List_val@U?$_List_simple_types@U?$pair@$$CBHPAX@std@@@std@@@std@@@2@@?$_Hash@V?$_Umap_traits@HPAXV?$_Uhash_compare@HU?$hash@H@std@@U?$equal_to@H@2@@std@@V?$allocator@U?$pair@$$CBHPAX@std@@@2@$0A@@std@@@std@@IAE?AU?$pair@V?$_List_iterator@V?$_List_val@U?$_List_simple_types@U?$pair@$$CBHPAX@std@@@std@@@std@@@std@@_N@1@AAU?$pair@$$CBHPAX@1@V?$_List_unchecked_iterator@V?$_List_val@U?$_List_simple_types@U?$pair@$$CBHPAX@std@@@std@@@std@@@1@@Z$2 100a6a47 f i Hooks.obj
 0001:000a5a47       __catch$??$_Insert@AAU?$pair@QBDPBD@std@@V?$_List_unchecked_iterator@V?$_List_val@U?$_List_simple_types@U?$pair@QBDPBD@std@@@std@@@std@@@2@@?$_Hash@V?$_Umap_traits@PBDPBDV?$_Uhash_compare@PBDU?$hash@PBD@std@@U?$equal_to@PBD@2@@std@@V?$allocator@U?$pair@QBDPBD@std@@@2@$0A@@std@@@std@@IAE?AU?$pair@V?$_List_iterator@V?$_List_val@U?$_List_simple_types@U?$pair@QBDPBD@std@@@std@@@std@@@std@@_N@1@AAU?$pair@QBDPBD@1@V?$_List_unchecked_iterator@V?$_List_val@U?$_List_simple_types@U?$pair@QBDPBD@std@@@std@@@std@@@1@@Z$2 100a6a47 f i SkinChanger.obj
 0001:000a5c99       __catch$??$_Insert@AAU?$pair@$$CBV?$basic_string@DU?$char_traits@D@std@@V?$allocator@D@2@@std@@UskinInfo@@@std@@V?$_List_unchecked_iterator@V?$_List_val@U?$_List_simple_types@U?$pair@$$CBV?$basic_string@DU?$char_traits@D@std@@V?$allocator@D@2@@std@@UskinInfo@@@std@@@std@@@std@@@2@@?$_Hash@V?$_Umap_traits@V?$basic_string@DU?$char_traits@D@std@@V?$allocator@D@2@@std@@UskinInfo@@V?$_Uhash_compare@V?$basic_string@DU?$char_traits@D@std@@V?$allocator@D@2@@std@@U?$hash@V?$basic_string@DU?$char_traits@D@std@@V?$allocator@D@2@@std@@@2@U?$equal_to@V?$basic_string@DU?$char_traits@D@std@@V?$allocator@D@2@@std@@@2@@2@V?$allocator@U?$pair@$$CBV?$basic_string@DU?$char_traits@D@std@@V?$allocator@D@2@@std@@UskinInfo@@@std@@@2@$0A@@std@@@std@@IAE?AU?$pair@V?$_List_iterator@V?$_List_val@U?$_List_simple_types@U?$pair@$$CBV?$basic_string@DU?$char_traits@D@std@@V?$allocator@D@2@@std@@UskinInfo@@@std@@@std@@@std@@@std@@_N@1@AAU?$pair@$$CBV?$basic_string@DU?$char_traits@D@std@@V?$allocator@D@2@@std@@UskinInfo@@@1@V?$_List_unchecked_iterator@V?$_List_val@U?$_List_simple_types@U?$pair@$$CBV?$basic_string@DU?$char_traits@D@std@@V?$allocator@D@2@@std@@UskinInfo@@@std@@@std@@@std@@@1@@Z$2 100a6c99 f i Hooks.obj
 0001:000a5ee9       __catch$??$_Insert@AAU?$pair@$$CBV?$basic_string@DU?$char_traits@D@std@@V?$allocator@D@2@@std@@V12@@std@@V?$_List_unchecked_iterator@V?$_List_val@U?$_List_simple_types@U?$pair@$$CBV?$basic_string@DU?$char_traits@D@std@@V?$allocator@D@2@@std@@V12@@std@@@std@@@std@@@2@@?$_Hash@V?$_Umap_traits@V?$basic_string@DU?$char_traits@D@std@@V?$allocator@D@2@@std@@V12@V?$_Uhash_compare@V?$basic_string@DU?$char_traits@D@std@@V?$allocator@D@2@@std@@U?$hash@V?$basic_string@DU?$char_traits@D@std@@V?$allocator@D@2@@std@@@2@U?$equal_to@V?$basic_string@DU?$char_traits@D@std@@V?$allocator@D@2@@std@@@2@@2@V?$allocator@U?$pair@$$CBV?$basic_string@DU?$char_traits@D@std@@V?$allocator@D@2@@std@@V12@@std@@@2@$0A@@std@@@std@@IAE?AU?$pair@V?$_List_iterator@V?$_List_val@U?$_List_simple_types@U?$pair@$$CBV?$basic_string@DU?$char_traits@D@std@@V?$allocator@D@2@@std@@V12@@std@@@std@@@std@@@std@@_N@1@AAU?$pair@$$CBV?$basic_string@DU?$char_traits@D@std@@V?$allocator@D@2@@std@@V12@@1@V?$_List_unchecked_iterator@V?$_List_val@U?$_List_simple_types@U?$pair@$$CBV?$basic_string@DU?$char_traits@D@std@@V?$allocator@D@2@@std@@V12@@std@@@std@@@std@@@1@@Z$2 100a6ee9 f i Hooks.obj
 0001:000a6139       __catch$??$_Insert@AAU?$pair@$$CBV?$basic_string@DU?$char_traits@D@std@@V?$allocator@D@2@@std@@V?$set@V?$basic_string@DU?$char_traits@D@std@@V?$allocator@D@2@@std@@U?$less@V?$basic_string@DU?$char_traits@D@std@@V?$allocator@D@2@@std@@@2@V?$allocator@V?$basic_string@DU?$char_traits@D@std@@V?$allocator@D@2@@std@@@2@@2@@std@@V?$_List_unchecked_iterator@V?$_List_val@U?$_List_simple_types@U?$pair@$$CBV?$basic_string@DU?$char_traits@D@std@@V?$allocator@D@2@@std@@V?$set@V?$basic_string@DU?$char_traits@D@std@@V?$allocator@D@2@@std@@U?$less@V?$basic_string@DU?$char_traits@D@std@@V?$allocator@D@2@@std@@@2@V?$allocator@V?$basic_string@DU?$char_traits@D@std@@V?$allocator@D@2@@std@@@2@@2@@std@@@std@@@std@@@2@@?$_Hash@V?$_Umap_traits@V?$basic_string@DU?$char_traits@D@std@@V?$allocator@D@2@@std@@V?$set@V?$basic_string@DU?$char_traits@D@std@@V?$allocator@D@2@@std@@U?$less@V?$basic_string@DU?$char_traits@D@std@@V?$allocator@D@2@@std@@@2@V?$allocator@V?$basic_string@DU?$char_traits@D@std@@V?$allocator@D@2@@std@@@2@@2@V?$_Uhash_compare@V?$basic_string@DU?$char_traits@D@std@@V?$allocator@D@2@@std@@U?$hash@V?$basic_string@DU?$char_traits@D@std@@V?$allocator@D@2@@std@@@2@U?$equal_to@V?$basic_string@DU?$char_traits@D@std@@V?$allocator@D@2@@std@@@2@@2@V?$allocator@U?$pair@$$CBV?$basic_string@DU?$char_traits@D@std@@V?$allocator@D@2@@std@@V?$set@V?$basic_string@DU?$char_traits@D@std@@V?$allocator@D@2@@std@@U?$less@V?$basic_string@DU?$char_traits@D@std@@V?$allocator@D@2@@std@@@2@V?$allocator@V?$basic_string@DU?$char_traits@D@std@@V?$allocator@D@2@@std@@@2@@2@@std@@@2@$0A@@std@@@std@@IAE?AU?$pair@V?$_List_iterator@V?$_List_val@U?$_List_simple_types@U?$pair@$$CBV?$basic_string@DU?$char_traits@D@std@@V?$allocator@D@2@@std@@V?$set@V?$basic_string@DU?$char_traits@D@std@@V?$allocator@D@2@@std@@U?$less@V?$basic_string@DU?$char_traits@D@std@@V?$allocator@D@2@@std@@@2@V?$allocator@V?$basic_string@DU?$char_traits@D@std@@V?$allocator@D@2@@std@@@2@@2@@std@@@std@@@std@@@std@@_N@1@AAU?$pair@$$CBV?$basic_string@DU?$char_traits@D@std@@V?$allocator@D@2@@std@@V?$set@V?$basic_string@DU?$char_traits@D@std@@V?$allocator@D@2@@std@@U?$less@V?$basic_string@DU?$char_traits@D@std@@V?$allocator@D@2@@std@@@2@V?$allocator@V?$basic_string@DU?$char_traits@D@std@@V?$allocator@D@2@@std@@@2@@2@@1@V?$_List_unchecked_iterator@V?$_List_val@U?$_List_simple_types@U?$pair@$$CBV?$basic_string@DU?$char_traits@D@std@@V?$allocator@D@2@@std@@V?$set@V?$basic_string@DU?$char_traits@D@std@@V?$allocator@D@2@@std@@U?$less@V?$basic_string@DU?$char_traits@D@std@@V?$allocator@D@2@@std@@@2@V?$allocator@V?$basic_string@DU?$char_traits@D@std@@V?$allocator@D@2@@std@@@2@@2@@std@@@std@@@std@@@1@@Z$2 100a7139 f i Hooks.obj
 0001:000a6475       __catch$??$_Insert_nohint@V?$basic_string@DU?$char_traits@D@std@@V?$allocator@D@2@@std@@U_Not_a_node_tag@2@@?$_Tree@V?$_Tset_traits@V?$basic_string@DU?$char_traits@D@std@@V?$allocator@D@2@@std@@U?$less@V?$basic_string@DU?$char_traits@D@std@@V?$allocator@D@2@@std@@@2@V?$allocator@V?$basic_string@DU?$char_traits@D@std@@V?$allocator@D@2@@std@@@2@$0A@@std@@@std@@IAE?AU?$pair@V?$_Tree_const_iterator@V?$_Tree_val@U?$_Tree_simple_types@V?$basic_string@DU?$char_traits@D@std@@V?$allocator@D@2@@std@@@std@@@std@@@std@@_N@1@_N$$QAV?$basic_string@DU?$char_traits@D@std@@V?$allocator@D@2@@1@U_Not_a_node_tag@1@@Z$0 100a7475 f i Hooks.obj
 0001:000a6552       __catch$??$_Range_construct_or_tidy@PBV?$basic_string@DU?$char_traits@D@std@@V?$allocator@D@2@@std@@@?$vector@V?$basic_string@DU?$char_traits@D@std@@V?$allocator@D@2@@std@@V?$allocator@V?$basic_string@DU?$char_traits@D@std@@V?$allocator@D@2@@std@@@2@@std@@AAEXPBV?$basic_string@DU?$char_traits@D@std@@V?$allocator@D@2@@1@0Uforward_iterator_tag@1@@Z$0 100a7552 f i Hooks.obj
 0001:000a95b4       $LN543                     100aa5b4     Hooks.obj
 0001:000a95d4       $LN544                     100aa5d4     Hooks.obj
 0001:000a95f4       $LN545                     100aa5f4     Hooks.obj
 0001:000a9614       $LN546                     100aa614     Hooks.obj
 0001:000a9634       $LN547                     100aa634     Hooks.obj
 0001:000a9654       $LN548                     100aa654     Hooks.obj
 0001:000a9674       $LN549                     100aa674     Hooks.obj
 0001:000a9694       $LN550                     100aa694     Hooks.obj
 0001:000a96b4       $LN551                     100aa6b4     Hooks.obj
 0001:000a96d4       $LN552                     100aa6d4     Hooks.obj
 0001:000a96f4       $LN553                     100aa6f4     Hooks.obj
 0001:000a9714       $LN554                     100aa714     Hooks.obj
 0001:000a9734       $LN555                     100aa734     Hooks.obj
 0001:000a9754       $LN556                     100aa754     Hooks.obj
 0001:000a97d0       ?Invoke_NET_SetConVar@@YAXPAXPBD1@Z 100aa7d0 f   Hooks.obj
 0001:000a99b0       ?MovementRecorder@@YAXPAVCUserCmd@CInput@@@Z 100aa9b0 f   Hooks.obj
 0001:000abaf8       $LN97                      100acaf8     Hooks.obj
 0001:000b0050       $LN974                     100b1050     LegitBot.obj
 0001:000b06ec       $LN53                      100b16ec     LegitBot.obj
 0001:000b511c       $LN3029                    100b611c     Misc.obj
 0001:000b513c       $LN3030                    100b613c     Misc.obj
 0001:000b5198       $LN3031                    100b6198     Misc.obj
 0001:000b51fc       $LN3032                    100b61fc     Misc.obj
 0001:000b6160       ?Normalize_y@@YAMM@Z       100b7160 f   Misc.obj
 0001:000b935c       $LN1832                    100ba35c     RageBot.obj
 0001:000ba14c       $LN183                     100bb14c     RageBot.obj
 0001:000bb4b8       $LN429                     100bc4b8     RageBot.obj
 0001:000bb4d8       $LN430                     100bc4d8     RageBot.obj
 0001:000bb500       $LN431                     100bc500     RageBot.obj
 0001:000bf64c       $LN67                      100c064c     Resolver2.obj
 0001:000bf968       $LN50                      100c0968     Resolver2.obj
 0001:000c03c0       $LN518                     100c13c0     Resolver2.obj
 0001:000c03d0       $LN519                     100c13d0     Resolver2.obj
 0001:000c06bd       __catch$??$_Buynode@ABUpiecewise_construct_t@std@@V?$tuple@$$QAH@2@V?$tuple@$$V@2@@?$_Tree_comp_alloc@V?$_Tmap_traits@HVVector@@U?$less@H@std@@V?$allocator@U?$pair@$$CBHVVector@@@std@@@3@$0A@@std@@@std@@QAEPAU?$_Tree_node@U?$pair@$$CBHVVector@@@std@@PAX@1@ABUpiecewise_construct_t@1@$$QAV?$tuple@$$QAH@1@$$QAV?$tuple@$$V@1@@Z$0 100c16bd f i Resolver2.obj
 0001:000c0b9d       __catch$??$_Insert_hint@AAU?$pair@$$CBHM@std@@PAU?$_Tree_node@U?$pair@$$CBHM@std@@PAX@2@@?$_Tree@V?$_Tmap_traits@HMU?$less@H@std@@V?$allocator@U?$pair@$$CBHM@std@@@2@$0A@@std@@@std@@IAE?AV?$_Tree_iterator@V?$_Tree_val@U?$_Tree_simple_types@U?$pair@$$CBHM@std@@@std@@@std@@@1@V?$_Tree_const_iterator@V?$_Tree_val@U?$_Tree_simple_types@U?$pair@$$CBHM@std@@@std@@@std@@@1@AAU?$pair@$$CBHM@1@PAU?$_Tree_node@U?$pair@$$CBHM@std@@PAX@1@@Z$0 100c1b9d f i Resolver2.obj
 0001:000c0dbf       __catch$??$_Insert_hint@AAU?$pair@$$CBHVVector@@@std@@PAU?$_Tree_node@U?$pair@$$CBHVVector@@@std@@PAX@2@@?$_Tree@V?$_Tmap_traits@HVVector@@U?$less@H@std@@V?$allocator@U?$pair@$$CBHVVector@@@std@@@3@$0A@@std@@@std@@IAE?AV?$_Tree_iterator@V?$_Tree_val@U?$_Tree_simple_types@U?$pair@$$CBHVVector@@@std@@@std@@@std@@@1@V?$_Tree_const_iterator@V?$_Tree_val@U?$_Tree_simple_types@U?$pair@$$CBHVVector@@@std@@@std@@@std@@@1@AAU?$pair@$$CBHVVector@@@1@PAU?$_Tree_node@U?$pair@$$CBHVVector@@@std@@PAX@1@@Z$0 100c1dbf f i Resolver2.obj
 0001:000c0ee2       __catch$??$_Insert_nohint@AAU?$pair@$$CBHM@std@@PAU?$_Tree_node@U?$pair@$$CBHM@std@@PAX@2@@?$_Tree@V?$_Tmap_traits@HMU?$less@H@std@@V?$allocator@U?$pair@$$CBHM@std@@@2@$0A@@std@@@std@@IAE?AU?$pair@V?$_Tree_iterator@V?$_Tree_val@U?$_Tree_simple_types@U?$pair@$$CBHM@std@@@std@@@std@@@std@@_N@1@_NAAU?$pair@$$CBHM@1@PAU?$_Tree_node@U?$pair@$$CBHM@std@@PAX@1@@Z$0 100c1ee2 f i Resolver2.obj
 0001:000c1002       __catch$??$_Insert_nohint@AAU?$pair@$$CBHVVector@@@std@@PAU?$_Tree_node@U?$pair@$$CBHVVector@@@std@@PAX@2@@?$_Tree@V?$_Tmap_traits@HVVector@@U?$less@H@std@@V?$allocator@U?$pair@$$CBHVVector@@@std@@@3@$0A@@std@@@std@@IAE?AU?$pair@V?$_Tree_iterator@V?$_Tree_val@U?$_Tree_simple_types@U?$pair@$$CBHVVector@@@std@@@std@@@std@@@std@@_N@1@_NAAU?$pair@$$CBHVVector@@@1@PAU?$_Tree_node@U?$pair@$$CBHVVector@@@std@@PAX@1@@Z$0 100c2002 f i Resolver2.obj
 0001:000c2430       $LN17                      100c3430     SkinChanger.obj
 0001:000c254c       $LN18                      100c354c     SkinChanger.obj
 0001:000c830c       ?find_pe_section@@YAPAU_IMAGE_SECTION_HEADER@@QAEI@Z 100c930c f   MSVCRT:utility.obj
 0001:000c8890       $$000000                   100c9890     MSVCRT:_ftol3_.obj
 0001:000c8d79       ?__scrt_initialize_thread_safe_statics@@YAHXZ 100c9d79 f   MSVCRT:thread_safe_statics.obj
 0001:000c8dbd       ?__scrt_initialize_thread_safe_statics_platform_specific@@YAXXZ 100c9dbd f   MSVCRT:thread_safe_statics.obj
 0001:000c8eac       ?__scrt_uninitialize_thread_safe_statics@@YAXXZ 100c9eac f   MSVCRT:thread_safe_statics.obj
 0001:000c9030       $$000000                   100ca030     MSVCRT:_svml_dcos2_dispatch_.obj
 0001:000c9040       $$000000                   100ca040     MSVCRT:_svml_dsin2_dispatch_.obj
 0001:000c90a0       $$000000                   100ca0a0     MSVCRT:alloca16.obj
 0001:000c90d0       $$000000                   100ca0d0     MSVCRT:_ftol2_.obj
 0001:000c9190       $$000000                   100ca190     MSVCRT:chkstk.obj
 0001:000c91d0       $$000000                   100ca1d0     MSVCRT:lldiv.obj
 0001:000c9280       $$000000                   100ca280     MSVCRT:lldvrm.obj
 0001:000c9360       $$000000                   100ca360     MSVCRT:llmul.obj
 0001:000c9394       ?dllmain_crt_dispatch@@YGHQAUHINSTANCE__@@KQAX@Z 100ca394 f   MSVCRT:dll_dllmain.obj
 0001:000c93e7       ?dllmain_crt_process_attach@@YAHQAUHINSTANCE__@@QAX@Z 100ca3e7 f   MSVCRT:dll_dllmain.obj
 0001:000c94f1       ?dllmain_crt_process_detach@@YAH_N@Z 100ca4f1 f   MSVCRT:dll_dllmain.obj
 0001:000c9583       ?dllmain_dispatch@@YAHQAUHINSTANCE__@@KQAX@Z 100ca583 f   MSVCRT:dll_dllmain.obj
 0001:000c9689       ?dllmain_raw@@YGHQAUHINSTANCE__@@KQAX@Z 100ca689 f   MSVCRT:dll_dllmain.obj
 0001:000c9a80       $$000000                   100caa80     MSVCRT:_sehprolg4_.obj
 0001:000c9b00       $$000000                   100cab00     MSVCRT:_svml_dcos2_sse2_.obj
 0001:000c9ca0       $$000000                   100caca0     MSVCRT:_svml_dsin2_sse2_.obj
 0001:000c9e60       ___get_entropy             100cae60 f   MSVCRT:gs_support.obj
 0001:000c9f90       $$000000                   100caf90     MSVCRT:_svml_dtrig_.obj
 0001:000ca280       ___common_srl              100cb280 f   MSVCRT:_svml_dtrig_.obj
 0001:000ca2b0       ___common_sll              100cb2b0 f   MSVCRT:_svml_dtrig_.obj
 0001:000ca9f0       __unwindfunclet$?LoadCvar@Cvar@CSX@@YA?AV?$basic_string@DU?$char_traits@D@std@@V?$allocator@D@2@@std@@PAD0V34@@Z$0 100cb9f0 f   CSX_Cvar.obj
 0001:000ca9f8       __ehhandler$?LoadCvar@Cvar@CSX@@YA?AV?$basic_string@DU?$char_traits@D@std@@V?$allocator@D@2@@std@@PAD0V34@@Z 100cb9f8 f   CSX_Cvar.obj
 0001:000caa20       __unwindfunclet$??$?6U?$char_traits@D@std@@@std@@YAAAV?$basic_ostream@DU?$char_traits@D@std@@@0@AAV10@PBD@Z$3 100cba20 f   CSX_Log.obj
 0001:000caa28       __unwindfunclet$??$?6U?$char_traits@D@std@@@std@@YAAAV?$basic_ostream@DU?$char_traits@D@std@@@0@AAV10@PBD@Z$2 100cba28 f   CSX_Log.obj
 0001:000caa30       __ehhandler$??$?6U?$char_traits@D@std@@@std@@YAAAV?$basic_ostream@DU?$char_traits@D@std@@@0@AAV10@PBD@Z 100cba30 f   CSX_Log.obj
 0001:000caa50       __unwindfunclet$??$_Insert_string@DU?$char_traits@D@std@@I@std@@YAAAV?$basic_ostream@DU?$char_traits@D@std@@@0@AAV10@QBDI@Z$3 100cba50 f   CSX_Log.obj
 0001:000caa58       __unwindfunclet$??$_Insert_string@DU?$char_traits@D@std@@I@std@@YAAAV?$basic_ostream@DU?$char_traits@D@std@@@0@AAV10@QBDI@Z$2 100cba58 f   CSX_Log.obj
 0001:000caa60       __ehhandler$??$_Insert_string@DU?$char_traits@D@std@@I@std@@YAAAV?$basic_ostream@DU?$char_traits@D@std@@@0@AAV10@QBDI@Z 100cba60 f   CSX_Log.obj
 0001:000caa80       __unwindfunclet$??$use_facet@V?$codecvt@DDU_Mbstatet@@@std@@@std@@YAABV?$codecvt@DDU_Mbstatet@@@0@ABVlocale@0@@Z$0 100cba80 f   CSX_Log.obj
 0001:000caa89       __unwindfunclet$??$use_facet@V?$codecvt@DDU_Mbstatet@@@std@@@std@@YAABV?$codecvt@DDU_Mbstatet@@@0@ABVlocale@0@@Z$1 100cba89 f   CSX_Log.obj
 0001:000caa91       __ehhandler$??$use_facet@V?$codecvt@DDU_Mbstatet@@@std@@@std@@YAABV?$codecvt@DDU_Mbstatet@@@0@ABVlocale@0@@Z 100cba91 f   CSX_Log.obj
 0001:000caab0       __ehhandler$??1?$ImVector@G@@QAE@XZ 100cbab0 f   imgui.obj
 0001:000caab0       __ehhandler$??1?$ImVector@UImDrawCmd@@@@QAE@XZ 100cbab0 f   imgui.obj
 0001:000caab0       __ehhandler$??1?$ImVector@D@@QAE@XZ 100cbab0 f   imgui.obj
 0001:000caab0       __ehhandler$??1?$ImVector@UGlyph@ImFont@@@@QAE@XZ 100cbab0 f   imgui_draw.obj
 0001:000caab0       __ehhandler$??1?$ImVector@UImVec4@@@@QAE@XZ 100cbab0 f   imgui.obj
 0001:000caab0       __ehhandler$??1?$ImVector@UTextRange@ImGuiTextFilter@@@@QAE@XZ 100cbab0 f   imgui.obj
 0001:000caab0       __ehhandler$??1?$ImVector@UImVec2@@@@QAE@XZ 100cbab0 f   imgui.obj
 0001:000caab0       __ehhandler$??1?$ImVector@UImDrawChannel@@@@QAE@XZ 100cbab0 f   imgui.obj
 0001:000caab0       __ehhandler$??1?$ImVector@PAUImFont@@@@QAE@XZ 100cbab0 f   imgui.obj
 0001:000caab0       __ehhandler$??1?$ImVector@M@@QAE@XZ 100cbab0 f   imgui_draw.obj
 0001:000caab0       __ehhandler$??1?$ImVector@UImDrawVert@@@@QAE@XZ 100cbab0 f   imgui.obj
 0001:000caab0       __ehhandler$??1?$ImVector@Ustbrp_rect@@@@QAE@XZ 100cbab0 f   imgui_draw.obj
 0001:000caab0       __ehhandler$??1locale@std@@QAE@XZ 100cbab0 f   CSX_Log.obj
 0001:000caab0       __ehhandler$??1?$ImVector@PAUImGuiWindow@@@@QAE@XZ 100cbab0 f   imgui.obj
 0001:000caab0       __ehhandler$??1?$ImVector@PAX@@QAE@XZ 100cbab0 f   imgui.obj
 0001:000caab0       __ehhandler$??1?$ImVector@UImGuiIniData@@@@QAE@XZ 100cbab0 f   imgui.obj
 0001:000caab0       __ehhandler$??1?$ImVector@I@@QAE@XZ 100cbab0 f   imgui.obj
 0001:000caab0       __ehhandler$??1?$ImVector@PAUImDrawList@@@@QAE@XZ 100cbab0 f   imgui.obj
 0001:000caab0       __ehhandler$??1?$ImVector@UImGuiPopupRef@@@@QAE@XZ 100cbab0 f   imgui.obj
 0001:000caab0       __ehhandler$??1_Sentry_base@?$basic_ostream@DU?$char_traits@D@std@@@std@@QAE@XZ 100cbab0 f   CSX_Log.obj
 0001:000caab0       __ehhandler$??1?$ImVector@UImGuiStyleMod@@@@QAE@XZ 100cbab0 f   imgui.obj
 0001:000caab0       __ehhandler$??1?$ImVector@UImGuiColMod@@@@QAE@XZ 100cbab0 f   imgui.obj
 0001:000caad0       __ehhandler$??1sentry@?$basic_ostream@DU?$char_traits@D@std@@@std@@QAE@XZ 100cbad0 f   CSX_Log.obj
 0001:000caad0       __ehhandler$??1?$wstring_convert@V?$codecvt_utf8_utf16@_W$0BAPPPP@$0A@@std@@_WV?$allocator@_W@2@V?$allocator@D@2@@std@@UAE@XZ 100cbad0 f   SkinChanger.obj
 0001:000caaf0       __ehhandler$??1?$pair@$$CBV?$basic_string@DU?$char_traits@D@std@@V?$allocator@D@2@@std@@V?$set@V?$basic_string@DU?$char_traits@D@std@@V?$allocator@D@2@@std@@U?$less@V?$basic_string@DU?$char_traits@D@std@@V?$allocator@D@2@@std@@@2@V?$allocator@V?$basic_string@DU?$char_traits@D@std@@V?$allocator@D@2@@std@@@2@@2@@std@@QAE@XZ 100cbaf0 f   Hooks.obj
 0001:000caaf0       __ehhandler$??_D?$basic_ofstream@DU?$char_traits@D@std@@@std@@QAEXXZ 100cbaf0 f   CSX_Log.obj
 0001:000cab10       __ehhandler$??_G?$basic_filebuf@DU?$char_traits@D@std@@@std@@UAEPAXI@Z 100cbb10 f   CSX_Log.obj
 0001:000cab30       __unwindfunclet$??__E?LogFile@Log@CSX@@2V?$basic_string@DU?$char_traits@D@std@@V?$allocator@D@2@@std@@A@@YAXXZ$0 100cbb30 f   CSX_Log.obj
 0001:000cab38       __ehhandler$??__E?LogFile@Log@CSX@@2V?$basic_string@DU?$char_traits@D@std@@V?$allocator@D@2@@std@@A@@YAXXZ 100cbb38 f   CSX_Log.obj
 0001:000cab60       __unwindfunclet$??__E?m_Logfile@Log@CSX@@2V?$basic_ofstream@DU?$char_traits@D@std@@@std@@A@@YAXXZ$0 100cbb60 f   CSX_Log.obj
 0001:000cab7c       __unwindfunclet$??__E?m_Logfile@Log@CSX@@2V?$basic_ofstream@DU?$char_traits@D@std@@@std@@A@@YAXXZ$1 100cbb7c f   CSX_Log.obj
 0001:000cab87       __ehhandler$??__E?m_Logfile@Log@CSX@@2V?$basic_ofstream@DU?$char_traits@D@std@@@std@@A@@YAXXZ 100cbb87 f   CSX_Log.obj
 0001:000cabb0       __unwindfunclet$?open@?$basic_ofstream@DU?$char_traits@D@std@@@std@@QAEXPBDHH@Z$0 100cbbb0 f   CSX_Log.obj
 0001:000cabb8       __ehhandler$?open@?$basic_ofstream@DU?$char_traits@D@std@@@std@@QAEXPBDHH@Z 100cbbb8 f   CSX_Log.obj
 0001:000cabe0       __unwindfunclet$?uflow@?$basic_filebuf@DU?$char_traits@D@std@@@std@@MAEHXZ$0 100cbbe0 f   CSX_Log.obj
 0001:000cabe8       __ehhandler$?uflow@?$basic_filebuf@DU?$char_traits@D@std@@@std@@MAEHXZ 100cbbe8 f   CSX_Log.obj
 0001:000cac10       __unwindfunclet$??R<lambda_c3abef6caf7cf95a4c93cda7c652773e>@@QBE?AV?$vector@HV?$allocator@H@std@@@std@@PBD@Z$0 100cbc10 f   CSX_Memory.obj
 0001:000cac29       __ehhandler$??R<lambda_c3abef6caf7cf95a4c93cda7c652773e>@@QBE?AV?$vector@HV?$allocator@H@std@@@std@@PBD@Z 100cbc29 f   CSX_Memory.obj
 0001:000cac50       __unwindfunclet$?GetCurrentProcessPath@Utils@CSX@@YA?AV?$basic_string@DU?$char_traits@D@std@@V?$allocator@D@2@@std@@XZ$0 100cbc50 f   CSX_Utils.obj
 0001:000cac72       __ehhandler$?GetCurrentProcessPath@Utils@CSX@@YA?AV?$basic_string@DU?$char_traits@D@std@@V?$allocator@D@2@@std@@XZ 100cbc72 f   CSX_Utils.obj
 0001:000cac9a       __unwindfunclet$?GetCurrentProcessName@Utils@CSX@@YA?AV?$basic_string@DU?$char_traits@D@std@@V?$allocator@D@2@@std@@XZ$0 100cbc9a f   CSX_Utils.obj
 0001:000caca2       __ehhandler$?GetCurrentProcessName@Utils@CSX@@YA?AV?$basic_string@DU?$char_traits@D@std@@V?$allocator@D@2@@std@@XZ 100cbca2 f   CSX_Utils.obj
 0001:000cacc7       __unwindfunclet$?GetModuleFilePath@Utils@CSX@@YA?AV?$basic_string@DU?$char_traits@D@std@@V?$allocator@D@2@@std@@PAUHINSTANCE__@@@Z$0 100cbcc7 f   CSX_Utils.obj
 0001:000cace9       __ehhandler$?GetModuleFilePath@Utils@CSX@@YA?AV?$basic_string@DU?$char_traits@D@std@@V?$allocator@D@2@@std@@PAUHINSTANCE__@@@Z 100cbce9 f   CSX_Utils.obj
 0001:000cad11       __unwindfunclet$?GetModuleBaseDir@Utils@CSX@@YA?AV?$basic_string@DU?$char_traits@D@std@@V?$allocator@D@2@@std@@PAUHINSTANCE__@@@Z$0 100cbd11 f   CSX_Utils.obj
 0001:000cad19       __ehhandler$?GetModuleBaseDir@Utils@CSX@@YA?AV?$basic_string@DU?$char_traits@D@std@@V?$allocator@D@2@@std@@PAUHINSTANCE__@@@Z 100cbd19 f   CSX_Utils.obj
 0001:000cad40       __ehhandler$??1CGui@@QAE@XZ 100cbd40 f   Gui.obj
 0001:000cad5b       __unwindfunclet$?GUI_WndProc@@YGJPAUHWND__@@IIJ@Z$0 100cbd5b f   Gui.obj
 0001:000cad63       __unwindfunclet$?GUI_WndProc@@YGJPAUHWND__@@IIJ@Z$1 100cbd63 f   Gui.obj
 0001:000cad6b       __unwindfunclet$?GUI_WndProc@@YGJPAUHWND__@@IIJ@Z$2 100cbd6b f   Gui.obj
 0001:000cad73       __unwindfunclet$?GUI_WndProc@@YGJPAUHWND__@@IIJ@Z$3 100cbd73 f   Gui.obj
 0001:000cad7b       __ehhandler$?GUI_WndProc@@YGJPAUHWND__@@IIJ@Z 100cbd7b f   Gui.obj
 0001:000cada0       __ehhandler$??$_Insert_hint@AAU?$pair@$$CBW4ItemDefinitionIndexx@@UDefItem_t@@@std@@PAU?$_Tree_node@U?$pair@$$CBW4ItemDefinitionIndexx@@UDefItem_t@@@std@@PAX@2@@?$_Tree@V?$_Tmap_traits@W4ItemDefinitionIndexx@@UDefItem_t@@U?$less@W4ItemDefinitionIndexx@@@std@@V?$allocator@U?$pair@$$CBW4ItemDefinitionIndexx@@UDefItem_t@@@std@@@4@$0A@@std@@@std@@IAE?AV?$_Tree_iterator@V?$_Tree_val@U?$_Tree_simple_types@U?$pair@$$CBW4ItemDefinitionIndexx@@UDefItem_t@@@std@@@std@@@std@@@1@V?$_Tree_const_iterator@V?$_Tree_val@U?$_Tree_simple_types@U?$pair@$$CBW4ItemDefinitionIndexx@@UDefItem_t@@@std@@@std@@@std@@@1@AAU?$pair@$$CBW4ItemDefinitionIndexx@@UDefItem_t@@@1@PAU?$_Tree_node@U?$pair@$$CBW4ItemDefinitionIndexx@@UDefItem_t@@@std@@PAX@1@@Z 100cbda0 f   Gui.obj
 0001:000cadc0       __ehhandler$??$_Insert_nohint@AAU?$pair@$$CBW4ItemDefinitionIndexx@@UDefItem_t@@@std@@PAU?$_Tree_node@U?$pair@$$CBW4ItemDefinitionIndexx@@UDefItem_t@@@std@@PAX@2@@?$_Tree@V?$_Tmap_traits@W4ItemDefinitionIndexx@@UDefItem_t@@U?$less@W4ItemDefinitionIndexx@@@std@@V?$allocator@U?$pair@$$CBW4ItemDefinitionIndexx@@UDefItem_t@@@std@@@4@$0A@@std@@@std@@IAE?AU?$pair@V?$_Tree_iterator@V?$_Tree_val@U?$_Tree_simple_types@U?$pair@$$CBW4ItemDefinitionIndexx@@UDefItem_t@@@std@@@std@@@std@@@std@@_N@1@_NAAU?$pair@$$CBW4ItemDefinitionIndexx@@UDefItem_t@@@1@PAU?$_Tree_node@U?$pair@$$CBW4ItemDefinitionIndexx@@UDefItem_t@@@std@@PAX@1@@Z 100cbdc0 f   Gui.obj
 0001:000cade0       __ehhandler$??1?$_Tree@V?$_Tmap_traits@W4ItemDefinitionIndexx@@UDefItem_t@@U?$less@W4ItemDefinitionIndexx@@@std@@V?$allocator@U?$pair@$$CBW4ItemDefinitionIndexx@@UDefItem_t@@@std@@@4@$0A@@std@@@std@@QAE@XZ 100cbde0 f   Gui.obj
 0001:000cae00       __unwindfunclet$??__EItemDefinitionIndexMap@@YAXXZ$0 100cbe00 f   Gui.obj
 0001:000cae0a       __ehhandler$??__EItemDefinitionIndexMap@@YAXXZ 100cbe0a f   Gui.obj
 0001:000cae40       __unwindfunclet$??0nqdzhxb@@QAE@XZ$0 100cbe40 f   imguicolorpicker.obj
 0001:000cae4b       __unwindfunclet$??0nqdzhxb@@QAE@XZ$3 100cbe4b f   imguicolorpicker.obj
 0001:000cae53       __unwindfunclet$??0nqdzhxb@@QAE@XZ$4 100cbe53 f   imguicolorpicker.obj
 0001:000cae5b       __unwindfunclet$??0nqdzhxb@@QAE@XZ$34 100cbe5b f   imguicolorpicker.obj
 0001:000cae63       __unwindfunclet$??0nqdzhxb@@QAE@XZ$35 100cbe63 f   imguicolorpicker.obj
 0001:000cae6b       __unwindfunclet$??0nqdzhxb@@QAE@XZ$8 100cbe6b f   imguicolorpicker.obj
 0001:000cae73       __unwindfunclet$??0nqdzhxb@@QAE@XZ$9 100cbe73 f   imguicolorpicker.obj
 0001:000cae7b       __unwindfunclet$??0nqdzhxb@@QAE@XZ$13 100cbe7b f   imguicolorpicker.obj
 0001:000cae83       __unwindfunclet$??0nqdzhxb@@QAE@XZ$70 100cbe83 f   imguicolorpicker.obj
 0001:000cae8b       __unwindfunclet$??0nqdzhxb@@QAE@XZ$17 100cbe8b f   imguicolorpicker.obj
 0001:000cae93       __unwindfunclet$??0nqdzhxb@@QAE@XZ$18 100cbe93 f   imguicolorpicker.obj
 0001:000cae9b       __unwindfunclet$??0nqdzhxb@@QAE@XZ$80 100cbe9b f   imguicolorpicker.obj
 0001:000caea3       __unwindfunclet$??0nqdzhxb@@QAE@XZ$90 100cbea3 f   imguicolorpicker.obj
 0001:000caeab       __unwindfunclet$??0nqdzhxb@@QAE@XZ$100 100cbeab f   imguicolorpicker.obj
 0001:000caeb3       __unwindfunclet$??0nqdzhxb@@QAE@XZ$101 100cbeb3 f   imguicolorpicker.obj
 0001:000caebb       __ehhandler$??0nqdzhxb@@QAE@XZ 100cbebb f   imguicolorpicker.obj
 0001:000caee0       __unwindfunclet$?sdboblirvxru@nqdzhxb@@QAE?AV?$basic_string@DU?$char_traits@D@std@@V?$allocator@D@2@@std@@N_N0V23@N@Z$0 100cbee0 f   imguicolorpicker.obj
 0001:000caee8       __unwindfunclet$?sdboblirvxru@nqdzhxb@@QAE?AV?$basic_string@DU?$char_traits@D@std@@V?$allocator@D@2@@std@@N_N0V23@N@Z$1 100cbee8 f   imguicolorpicker.obj
 0001:000caef0       __unwindfunclet$?sdboblirvxru@nqdzhxb@@QAE?AV?$basic_string@DU?$char_traits@D@std@@V?$allocator@D@2@@std@@N_N0V23@N@Z$2 100cbef0 f   imguicolorpicker.obj
 0001:000caef8       __unwindfunclet$?sdboblirvxru@nqdzhxb@@QAE?AV?$basic_string@DU?$char_traits@D@std@@V?$allocator@D@2@@std@@N_N0V23@N@Z$3 100cbef8 f   imguicolorpicker.obj
 0001:000caf00       __ehhandler$?sdboblirvxru@nqdzhxb@@QAE?AV?$basic_string@DU?$char_traits@D@std@@V?$allocator@D@2@@std@@N_N0V23@N@Z 100cbf00 f   imguicolorpicker.obj
 0001:000caf25       __unwindfunclet$?xeecflibbn@nqdzhxb@@QAEHV?$basic_string@DU?$char_traits@D@std@@V?$allocator@D@2@@std@@0_N10NHN@Z$0 100cbf25 f   imguicolorpicker.obj
 0001:000caf2d       __unwindfunclet$?xeecflibbn@nqdzhxb@@QAEHV?$basic_string@DU?$char_traits@D@std@@V?$allocator@D@2@@std@@0_N10NHN@Z$1 100cbf2d f   imguicolorpicker.obj
 0001:000caf35       __unwindfunclet$?xeecflibbn@nqdzhxb@@QAEHV?$basic_string@DU?$char_traits@D@std@@V?$allocator@D@2@@std@@0_N10NHN@Z$2 100cbf35 f   imguicolorpicker.obj
 0001:000caf3d       __ehhandler$?xeecflibbn@nqdzhxb@@QAEHV?$basic_string@DU?$char_traits@D@std@@V?$allocator@D@2@@std@@0_N10NHN@Z 100cbf3d f   imguicolorpicker.obj
 0001:000caf62       __unwindfunclet$?fukrdppnogdsmfqqjmydqdoc@nqdzhxb@@QAEHNV?$basic_string@DU?$char_traits@D@std@@V?$allocator@D@2@@std@@NNHH_NH@Z$0 100cbf62 f   imguicolorpicker.obj
 0001:000caf6a       __unwindfunclet$?fukrdppnogdsmfqqjmydqdoc@nqdzhxb@@QAEHNV?$basic_string@DU?$char_traits@D@std@@V?$allocator@D@2@@std@@NNHH_NH@Z$1 100cbf6a f   imguicolorpicker.obj
 0001:000caf72       __ehhandler$?fukrdppnogdsmfqqjmydqdoc@nqdzhxb@@QAEHNV?$basic_string@DU?$char_traits@D@std@@V?$allocator@D@2@@std@@NNHH_NH@Z 100cbf72 f   imguicolorpicker.obj
 0001:000caf97       __unwindfunclet$?yceytinjorezpfewtrasx@nqdzhxb@@QAEHH_NHV?$basic_string@DU?$char_traits@D@std@@V?$allocator@D@2@@std@@1HN01@Z$0 100cbf97 f   imguicolorpicker.obj
 0001:000caf9f       __unwindfunclet$?yceytinjorezpfewtrasx@nqdzhxb@@QAEHH_NHV?$basic_string@DU?$char_traits@D@std@@V?$allocator@D@2@@std@@1HN01@Z$1 100cbf9f f   imguicolorpicker.obj
 0001:000cafa7       __unwindfunclet$?yceytinjorezpfewtrasx@nqdzhxb@@QAEHH_NHV?$basic_string@DU?$char_traits@D@std@@V?$allocator@D@2@@std@@1HN01@Z$2 100cbfa7 f   imguicolorpicker.obj
 0001:000cafaf       __ehhandler$?yceytinjorezpfewtrasx@nqdzhxb@@QAEHH_NHV?$basic_string@DU?$char_traits@D@std@@V?$allocator@D@2@@std@@1HN01@Z 100cbfaf f   imguicolorpicker.obj
 0001:000cafd4       __unwindfunclet$?ratopzqiusntuamyocdjrzszd@nqdzhxb@@QAE?AV?$basic_string@DU?$char_traits@D@std@@V?$allocator@D@2@@std@@NHH_N00NH@Z$0 100cbfd4 f   imguicolorpicker.obj
 0001:000cafdf       __unwindfunclet$?ratopzqiusntuamyocdjrzszd@nqdzhxb@@QAE?AV?$basic_string@DU?$char_traits@D@std@@V?$allocator@D@2@@std@@NHH_N00NH@Z$1 100cbfdf f   imguicolorpicker.obj
 0001:000cafe7       __unwindfunclet$?ratopzqiusntuamyocdjrzszd@nqdzhxb@@QAE?AV?$basic_string@DU?$char_traits@D@std@@V?$allocator@D@2@@std@@NHH_N00NH@Z$2 100cbfe7 f   imguicolorpicker.obj
 0001:000cafef       __unwindfunclet$?ratopzqiusntuamyocdjrzszd@nqdzhxb@@QAE?AV?$basic_string@DU?$char_traits@D@std@@V?$allocator@D@2@@std@@NHH_N00NH@Z$3 100cbfef f   imguicolorpicker.obj
 0001:000caff7       __ehhandler$?ratopzqiusntuamyocdjrzszd@nqdzhxb@@QAE?AV?$basic_string@DU?$char_traits@D@std@@V?$allocator@D@2@@std@@NHH_N00NH@Z 100cbff7 f   imguicolorpicker.obj
 0001:000cb01f       __unwindfunclet$?mnagmdljvlhekgvg@nqdzhxb@@QAEHXZ$0 100cc01f f   imguicolorpicker.obj
 0001:000cb02a       __unwindfunclet$?mnagmdljvlhekgvg@nqdzhxb@@QAEHXZ$1 100cc02a f   imguicolorpicker.obj
 0001:000cb032       __unwindfunclet$?mnagmdljvlhekgvg@nqdzhxb@@QAEHXZ$2 100cc032 f   imguicolorpicker.obj
 0001:000cb03a       __unwindfunclet$?mnagmdljvlhekgvg@nqdzhxb@@QAEHXZ$3 100cc03a f   imguicolorpicker.obj
 0001:000cb042       __ehhandler$?mnagmdljvlhekgvg@nqdzhxb@@QAEHXZ 100cc042 f   imguicolorpicker.obj
 0001:000cb067       __unwindfunclet$?xtuiabahlfztrhjj@nqdzhxb@@IAEXV?$basic_string@DU?$char_traits@D@std@@V?$allocator@D@2@@std@@@Z$0 100cc067 f   imguicolorpicker.obj
 0001:000cb06f       __unwindfunclet$?xtuiabahlfztrhjj@nqdzhxb@@IAEXV?$basic_string@DU?$char_traits@D@std@@V?$allocator@D@2@@std@@@Z$1 100cc06f f   imguicolorpicker.obj
 0001:000cb077       __unwindfunclet$?xtuiabahlfztrhjj@nqdzhxb@@IAEXV?$basic_string@DU?$char_traits@D@std@@V?$allocator@D@2@@std@@@Z$2 100cc077 f   imguicolorpicker.obj
 0001:000cb07f       __ehhandler$?xtuiabahlfztrhjj@nqdzhxb@@IAEXV?$basic_string@DU?$char_traits@D@std@@V?$allocator@D@2@@std@@@Z 100cc07f f   imguicolorpicker.obj
 0001:000cb0a4       __unwindfunclet$?bsocjrbevqaxyumb@nqdzhxb@@IAEXH_N@Z$0 100cc0a4 f   imguicolorpicker.obj
 0001:000cb0ac       __unwindfunclet$?bsocjrbevqaxyumb@nqdzhxb@@IAEXH_N@Z$1 100cc0ac f   imguicolorpicker.obj
 0001:000cb0b4       __unwindfunclet$?bsocjrbevqaxyumb@nqdzhxb@@IAEXH_N@Z$2 100cc0b4 f   imguicolorpicker.obj
 0001:000cb0bc       __ehhandler$?bsocjrbevqaxyumb@nqdzhxb@@IAEXH_N@Z 100cc0bc f   imguicolorpicker.obj
 0001:000cb0e1       __unwindfunclet$?mpdckvizihitri@nqdzhxb@@IAE?AV?$basic_string@DU?$char_traits@D@std@@V?$allocator@D@2@@std@@H_NH0H@Z$0 100cc0e1 f   imguicolorpicker.obj
 0001:000cb0ec       __unwindfunclet$?mpdckvizihitri@nqdzhxb@@IAE?AV?$basic_string@DU?$char_traits@D@std@@V?$allocator@D@2@@std@@H_NH0H@Z$1 100cc0ec f   imguicolorpicker.obj
 0001:000cb0f4       __unwindfunclet$?mpdckvizihitri@nqdzhxb@@IAE?AV?$basic_string@DU?$char_traits@D@std@@V?$allocator@D@2@@std@@H_NH0H@Z$2 100cc0f4 f   imguicolorpicker.obj
 0001:000cb0fc       __unwindfunclet$?mpdckvizihitri@nqdzhxb@@IAE?AV?$basic_string@DU?$char_traits@D@std@@V?$allocator@D@2@@std@@H_NH0H@Z$3 100cc0fc f   imguicolorpicker.obj
 0001:000cb104       __unwindfunclet$?mpdckvizihitri@nqdzhxb@@IAE?AV?$basic_string@DU?$char_traits@D@std@@V?$allocator@D@2@@std@@H_NH0H@Z$5 100cc104 f   imguicolorpicker.obj
 0001:000cb10c       __ehhandler$?mpdckvizihitri@nqdzhxb@@IAE?AV?$basic_string@DU?$char_traits@D@std@@V?$allocator@D@2@@std@@H_NH0H@Z 100cc10c f   imguicolorpicker.obj
 0001:000cb134       __unwindfunclet$?dmgcrznjyuucfg@nqdzhxb@@IAEXH@Z$0 100cc134 f   imguicolorpicker.obj
 0001:000cb13c       __ehhandler$?dmgcrznjyuucfg@nqdzhxb@@IAEXH@Z 100cc13c f   imguicolorpicker.obj
 0001:000cb161       __unwindfunclet$?onmzlrgkophhcqteeygce@nqdzhxb@@IAE_NNHNHHNV?$basic_string@DU?$char_traits@D@std@@V?$allocator@D@2@@std@@N00@Z$0 100cc161 f   imguicolorpicker.obj
 0001:000cb169       __unwindfunclet$?onmzlrgkophhcqteeygce@nqdzhxb@@IAE_NNHNHHNV?$basic_string@DU?$char_traits@D@std@@V?$allocator@D@2@@std@@N00@Z$1 100cc169 f   imguicolorpicker.obj
 0001:000cb171       __unwindfunclet$?onmzlrgkophhcqteeygce@nqdzhxb@@IAE_NNHNHHNV?$basic_string@DU?$char_traits@D@std@@V?$allocator@D@2@@std@@N00@Z$2 100cc171 f   imguicolorpicker.obj
 0001:000cb179       __unwindfunclet$?onmzlrgkophhcqteeygce@nqdzhxb@@IAE_NNHNHHNV?$basic_string@DU?$char_traits@D@std@@V?$allocator@D@2@@std@@N00@Z$3 100cc179 f   imguicolorpicker.obj
 0001:000cb184       __unwindfunclet$?onmzlrgkophhcqteeygce@nqdzhxb@@IAE_NNHNHHNV?$basic_string@DU?$char_traits@D@std@@V?$allocator@D@2@@std@@N00@Z$4 100cc184 f   imguicolorpicker.obj
 0001:000cb18f       __unwindfunclet$?onmzlrgkophhcqteeygce@nqdzhxb@@IAE_NNHNHHNV?$basic_string@DU?$char_traits@D@std@@V?$allocator@D@2@@std@@N00@Z$5 100cc18f f   imguicolorpicker.obj
 0001:000cb19a       __unwindfunclet$?onmzlrgkophhcqteeygce@nqdzhxb@@IAE_NNHNHHNV?$basic_string@DU?$char_traits@D@std@@V?$allocator@D@2@@std@@N00@Z$6 100cc19a f   imguicolorpicker.obj
 0001:000cb1a5       __unwindfunclet$?onmzlrgkophhcqteeygce@nqdzhxb@@IAE_NNHNHHNV?$basic_string@DU?$char_traits@D@std@@V?$allocator@D@2@@std@@N00@Z$7 100cc1a5 f   imguicolorpicker.obj
 0001:000cb1b0       __unwindfunclet$?onmzlrgkophhcqteeygce@nqdzhxb@@IAE_NNHNHHNV?$basic_string@DU?$char_traits@D@std@@V?$allocator@D@2@@std@@N00@Z$8 100cc1b0 f   imguicolorpicker.obj
 0001:000cb1b8       __unwindfunclet$?onmzlrgkophhcqteeygce@nqdzhxb@@IAE_NNHNHHNV?$basic_string@DU?$char_traits@D@std@@V?$allocator@D@2@@std@@N00@Z$9 100cc1b8 f   imguicolorpicker.obj
 0001:000cb1c0       __unwindfunclet$?onmzlrgkophhcqteeygce@nqdzhxb@@IAE_NNHNHHNV?$basic_string@DU?$char_traits@D@std@@V?$allocator@D@2@@std@@N00@Z$10 100cc1c0 f   imguicolorpicker.obj
 0001:000cb1c8       __unwindfunclet$?onmzlrgkophhcqteeygce@nqdzhxb@@IAE_NNHNHHNV?$basic_string@DU?$char_traits@D@std@@V?$allocator@D@2@@std@@N00@Z$12 100cc1c8 f   imguicolorpicker.obj
 0001:000cb1d0       __unwindfunclet$?onmzlrgkophhcqteeygce@nqdzhxb@@IAE_NNHNHHNV?$basic_string@DU?$char_traits@D@std@@V?$allocator@D@2@@std@@N00@Z$14 100cc1d0 f   imguicolorpicker.obj
 0001:000cb1d8       __ehhandler$?onmzlrgkophhcqteeygce@nqdzhxb@@IAE_NNHNHHNV?$basic_string@DU?$char_traits@D@std@@V?$allocator@D@2@@std@@N00@Z 100cc1d8 f   imguicolorpicker.obj
 0001:000cb200       __unwindfunclet$?iqntklvllzfkmxnkyjlgludil@nqdzhxb@@IAEXNHNV?$basic_string@DU?$char_traits@D@std@@V?$allocator@D@2@@std@@N@Z$0 100cc200 f   imguicolorpicker.obj
 0001:000cb208       __ehhandler$?iqntklvllzfkmxnkyjlgludil@nqdzhxb@@IAEXNHNV?$basic_string@DU?$char_traits@D@std@@V?$allocator@D@2@@std@@N@Z 100cc208 f   imguicolorpicker.obj
 0001:000cb22d       __unwindfunclet$?igckgccemwfavupzdnxblal@nqdzhxb@@IAENHNV?$basic_string@DU?$char_traits@D@std@@V?$allocator@D@2@@std@@@Z$0 100cc22d f   imguicolorpicker.obj
 0001:000cb235       __unwindfunclet$?igckgccemwfavupzdnxblal@nqdzhxb@@IAENHNV?$basic_string@DU?$char_traits@D@std@@V?$allocator@D@2@@std@@@Z$1 100cc235 f   imguicolorpicker.obj
 0001:000cb240       __unwindfunclet$?igckgccemwfavupzdnxblal@nqdzhxb@@IAENHNV?$basic_string@DU?$char_traits@D@std@@V?$allocator@D@2@@std@@@Z$2 100cc240 f   imguicolorpicker.obj
 0001:000cb248       __unwindfunclet$?igckgccemwfavupzdnxblal@nqdzhxb@@IAENHNV?$basic_string@DU?$char_traits@D@std@@V?$allocator@D@2@@std@@@Z$3 100cc248 f   imguicolorpicker.obj
 0001:000cb250       __unwindfunclet$?igckgccemwfavupzdnxblal@nqdzhxb@@IAENHNV?$basic_string@DU?$char_traits@D@std@@V?$allocator@D@2@@std@@@Z$4 100cc250 f   imguicolorpicker.obj
 0001:000cb258       __ehhandler$?igckgccemwfavupzdnxblal@nqdzhxb@@IAENHNV?$basic_string@DU?$char_traits@D@std@@V?$allocator@D@2@@std@@@Z 100cc258 f   imguicolorpicker.obj
 0001:000cb27d       __unwindfunclet$?yientsppixlqe@nqdzhxb@@AAEHV?$basic_string@DU?$char_traits@D@std@@V?$allocator@D@2@@std@@@Z$0 100cc27d f   imguicolorpicker.obj
 0001:000cb285       __ehhandler$?yientsppixlqe@nqdzhxb@@AAEHV?$basic_string@DU?$char_traits@D@std@@V?$allocator@D@2@@std@@@Z 100cc285 f   imguicolorpicker.obj
 0001:000cb2aa       __unwindfunclet$?oapdjpmqnrpbokcnhzf@nqdzhxb@@AAEXNN@Z$0 100cc2aa f   imguicolorpicker.obj
 0001:000cb2b2       __unwindfunclet$?oapdjpmqnrpbokcnhzf@nqdzhxb@@AAEXNN@Z$1 100cc2b2 f   imguicolorpicker.obj
 0001:000cb2ba       __ehhandler$?oapdjpmqnrpbokcnhzf@nqdzhxb@@AAEXNN@Z 100cc2ba f   imguicolorpicker.obj
 0001:000cb2df       __unwindfunclet$?xfbkewndokgbmva@nqdzhxb@@AAEHHV?$basic_string@DU?$char_traits@D@std@@V?$allocator@D@2@@std@@@Z$0 100cc2df f   imguicolorpicker.obj
 0001:000cb2e7       __unwindfunclet$?xfbkewndokgbmva@nqdzhxb@@AAEHHV?$basic_string@DU?$char_traits@D@std@@V?$allocator@D@2@@std@@@Z$1 100cc2e7 f   imguicolorpicker.obj
 0001:000cb2ef       __unwindfunclet$?xfbkewndokgbmva@nqdzhxb@@AAEHHV?$basic_string@DU?$char_traits@D@std@@V?$allocator@D@2@@std@@@Z$2 100cc2ef f   imguicolorpicker.obj
 0001:000cb2f7       __ehhandler$?xfbkewndokgbmva@nqdzhxb@@AAEHHV?$basic_string@DU?$char_traits@D@std@@V?$allocator@D@2@@std@@@Z 100cc2f7 f   imguicolorpicker.obj
 0001:000cb31c       __unwindfunclet$??0gpgqxpb@@QAE@XZ$0 100cc31c f   imguicolorpicker.obj
 0001:000cb32a       __unwindfunclet$??0gpgqxpb@@QAE@XZ$1 100cc32a f   imguicolorpicker.obj
 0001:000cb338       __unwindfunclet$??0gpgqxpb@@QAE@XZ$2 100cc338 f   imguicolorpicker.obj
 0001:000cb340       __unwindfunclet$??0gpgqxpb@@QAE@XZ$4 100cc340 f   imguicolorpicker.obj
 0001:000cb348       __unwindfunclet$??0gpgqxpb@@QAE@XZ$5 100cc348 f   imguicolorpicker.obj
 0001:000cb350       __unwindfunclet$??0gpgqxpb@@QAE@XZ$7 100cc350 f   imguicolorpicker.obj
 0001:000cb358       __unwindfunclet$??0gpgqxpb@@QAE@XZ$8 100cc358 f   imguicolorpicker.obj
 0001:000cb360       __unwindfunclet$??0gpgqxpb@@QAE@XZ$9 100cc360 f   imguicolorpicker.obj
 0001:000cb368       __unwindfunclet$??0gpgqxpb@@QAE@XZ$11 100cc368 f   imguicolorpicker.obj
 0001:000cb370       __unwindfunclet$??0gpgqxpb@@QAE@XZ$12 100cc370 f   imguicolorpicker.obj
 0001:000cb378       __unwindfunclet$??0gpgqxpb@@QAE@XZ$13 100cc378 f   imguicolorpicker.obj
 0001:000cb380       __unwindfunclet$??0gpgqxpb@@QAE@XZ$16 100cc380 f   imguicolorpicker.obj
 0001:000cb388       __unwindfunclet$??0gpgqxpb@@QAE@XZ$17 100cc388 f   imguicolorpicker.obj
 0001:000cb390       __unwindfunclet$??0gpgqxpb@@QAE@XZ$18 100cc390 f   imguicolorpicker.obj
 0001:000cb398       __unwindfunclet$??0gpgqxpb@@QAE@XZ$20 100cc398 f   imguicolorpicker.obj
 0001:000cb3a0       __unwindfunclet$??0gpgqxpb@@QAE@XZ$22 100cc3a0 f   imguicolorpicker.obj
 0001:000cb3a8       __unwindfunclet$??0gpgqxpb@@QAE@XZ$49 100cc3a8 f   imguicolorpicker.obj
 0001:000cb3b0       __unwindfunclet$??0gpgqxpb@@QAE@XZ$50 100cc3b0 f   imguicolorpicker.obj
 0001:000cb3b8       __unwindfunclet$??0gpgqxpb@@QAE@XZ$51 100cc3b8 f   imguicolorpicker.obj
 0001:000cb3c0       __unwindfunclet$??0gpgqxpb@@QAE@XZ$25 100cc3c0 f   imguicolorpicker.obj
 0001:000cb3c8       __unwindfunclet$??0gpgqxpb@@QAE@XZ$26 100cc3c8 f   imguicolorpicker.obj
 0001:000cb3d0       __unwindfunclet$??0gpgqxpb@@QAE@XZ$27 100cc3d0 f   imguicolorpicker.obj
 0001:000cb3d8       __unwindfunclet$??0gpgqxpb@@QAE@XZ$29 100cc3d8 f   imguicolorpicker.obj
 0001:000cb3e0       __unwindfunclet$??0gpgqxpb@@QAE@XZ$31 100cc3e0 f   imguicolorpicker.obj
 0001:000cb3e8       __unwindfunclet$??0gpgqxpb@@QAE@XZ$93 100cc3e8 f   imguicolorpicker.obj
 0001:000cb3f0       __unwindfunclet$??0gpgqxpb@@QAE@XZ$34 100cc3f0 f   imguicolorpicker.obj
 0001:000cb3f8       __unwindfunclet$??0gpgqxpb@@QAE@XZ$35 100cc3f8 f   imguicolorpicker.obj
 0001:000cb400       __unwindfunclet$??0gpgqxpb@@QAE@XZ$36 100cc400 f   imguicolorpicker.obj
 0001:000cb408       __unwindfunclet$??0gpgqxpb@@QAE@XZ$38 100cc408 f   imguicolorpicker.obj
 0001:000cb410       __unwindfunclet$??0gpgqxpb@@QAE@XZ$39 100cc410 f   imguicolorpicker.obj
 0001:000cb418       __unwindfunclet$??0gpgqxpb@@QAE@XZ$104 100cc418 f   imguicolorpicker.obj
 0001:000cb420       __ehhandler$??0gpgqxpb@@QAE@XZ 100cc420 f   imguicolorpicker.obj
 0001:000cb445       __unwindfunclet$?swpbnjerrijz@gpgqxpb@@QAEHHHHV?$basic_string@DU?$char_traits@D@std@@V?$allocator@D@2@@std@@0HNN@Z$0 100cc445 f   imguicolorpicker.obj
 0001:000cb44d       __unwindfunclet$?swpbnjerrijz@gpgqxpb@@QAEHHHHV?$basic_string@DU?$char_traits@D@std@@V?$allocator@D@2@@std@@0HNN@Z$1 100cc44d f   imguicolorpicker.obj
 0001:000cb455       __unwindfunclet$?swpbnjerrijz@gpgqxpb@@QAEHHHHV?$basic_string@DU?$char_traits@D@std@@V?$allocator@D@2@@std@@0HNN@Z$2 100cc455 f   imguicolorpicker.obj
 0001:000cb45d       __unwindfunclet$?swpbnjerrijz@gpgqxpb@@QAEHHHHV?$basic_string@DU?$char_traits@D@std@@V?$allocator@D@2@@std@@0HNN@Z$3 100cc45d f   imguicolorpicker.obj
 0001:000cb465       __unwindfunclet$?swpbnjerrijz@gpgqxpb@@QAEHHHHV?$basic_string@DU?$char_traits@D@std@@V?$allocator@D@2@@std@@0HNN@Z$4 100cc465 f   imguicolorpicker.obj
 0001:000cb46d       __unwindfunclet$?swpbnjerrijz@gpgqxpb@@QAEHHHHV?$basic_string@DU?$char_traits@D@std@@V?$allocator@D@2@@std@@0HNN@Z$6 100cc46d f   imguicolorpicker.obj
 0001:000cb475       __unwindfunclet$?swpbnjerrijz@gpgqxpb@@QAEHHHHV?$basic_string@DU?$char_traits@D@std@@V?$allocator@D@2@@std@@0HNN@Z$8 100cc475 f   imguicolorpicker.obj
 0001:000cb47d       __ehhandler$?swpbnjerrijz@gpgqxpb@@QAEHHHHV?$basic_string@DU?$char_traits@D@std@@V?$allocator@D@2@@std@@0HNN@Z 100cc47d f   imguicolorpicker.obj
 0001:000cb4a2       __unwindfunclet$?zvkdqlitrstoi@gpgqxpb@@QAEHV?$basic_string@DU?$char_traits@D@std@@V?$allocator@D@2@@std@@N_NN100@Z$0 100cc4a2 f   imguicolorpicker.obj
 0001:000cb4aa       __unwindfunclet$?zvkdqlitrstoi@gpgqxpb@@QAEHV?$basic_string@DU?$char_traits@D@std@@V?$allocator@D@2@@std@@N_NN100@Z$1 100cc4aa f   imguicolorpicker.obj
 0001:000cb4b2       __unwindfunclet$?zvkdqlitrstoi@gpgqxpb@@QAEHV?$basic_string@DU?$char_traits@D@std@@V?$allocator@D@2@@std@@N_NN100@Z$2 100cc4b2 f   imguicolorpicker.obj
 0001:000cb4ba       __ehhandler$?zvkdqlitrstoi@gpgqxpb@@QAEHV?$basic_string@DU?$char_traits@D@std@@V?$allocator@D@2@@std@@N_NN100@Z 100cc4ba f   imguicolorpicker.obj
 0001:000cb4df       __unwindfunclet$?odxmcgsbdtmmcsfdf@gpgqxpb@@QAEXNV?$basic_string@DU?$char_traits@D@std@@V?$allocator@D@2@@std@@_NH1NN000@Z$0 100cc4df f   imguicolorpicker.obj
 0001:000cb4e7       __unwindfunclet$?odxmcgsbdtmmcsfdf@gpgqxpb@@QAEXNV?$basic_string@DU?$char_traits@D@std@@V?$allocator@D@2@@std@@_NH1NN000@Z$1 100cc4e7 f   imguicolorpicker.obj
 0001:000cb4ef       __unwindfunclet$?odxmcgsbdtmmcsfdf@gpgqxpb@@QAEXNV?$basic_string@DU?$char_traits@D@std@@V?$allocator@D@2@@std@@_NH1NN000@Z$2 100cc4ef f   imguicolorpicker.obj
 0001:000cb4f7       __unwindfunclet$?odxmcgsbdtmmcsfdf@gpgqxpb@@QAEXNV?$basic_string@DU?$char_traits@D@std@@V?$allocator@D@2@@std@@_NH1NN000@Z$3 100cc4f7 f   imguicolorpicker.obj
 0001:000cb4ff       __ehhandler$?odxmcgsbdtmmcsfdf@gpgqxpb@@QAEXNV?$basic_string@DU?$char_traits@D@std@@V?$allocator@D@2@@std@@_NH1NN000@Z 100cc4ff f   imguicolorpicker.obj
 0001:000cb524       __unwindfunclet$?jeysykegyrwwiupbc@gpgqxpb@@QAE?AV?$basic_string@DU?$char_traits@D@std@@V?$allocator@D@2@@std@@V23@NHN000_NH@Z$0 100cc524 f   imguicolorpicker.obj
 0001:000cb52c       __unwindfunclet$?jeysykegyrwwiupbc@gpgqxpb@@QAE?AV?$basic_string@DU?$char_traits@D@std@@V?$allocator@D@2@@std@@V23@NHN000_NH@Z$1 100cc52c f   imguicolorpicker.obj
 0001:000cb534       __unwindfunclet$?jeysykegyrwwiupbc@gpgqxpb@@QAE?AV?$basic_string@DU?$char_traits@D@std@@V?$allocator@D@2@@std@@V23@NHN000_NH@Z$2 100cc534 f   imguicolorpicker.obj
 0001:000cb53c       __unwindfunclet$?jeysykegyrwwiupbc@gpgqxpb@@QAE?AV?$basic_string@DU?$char_traits@D@std@@V?$allocator@D@2@@std@@V23@NHN000_NH@Z$3 100cc53c f   imguicolorpicker.obj
 0001:000cb544       __unwindfunclet$?jeysykegyrwwiupbc@gpgqxpb@@QAE?AV?$basic_string@DU?$char_traits@D@std@@V?$allocator@D@2@@std@@V23@NHN000_NH@Z$4 100cc544 f   imguicolorpicker.obj
 0001:000cb54c       __unwindfunclet$?jeysykegyrwwiupbc@gpgqxpb@@QAE?AV?$basic_string@DU?$char_traits@D@std@@V?$allocator@D@2@@std@@V23@NHN000_NH@Z$5 100cc54c f   imguicolorpicker.obj
 0001:000cb554       __ehhandler$?jeysykegyrwwiupbc@gpgqxpb@@QAE?AV?$basic_string@DU?$char_traits@D@std@@V?$allocator@D@2@@std@@V23@NHN000_NH@Z 100cc554 f   imguicolorpicker.obj
 0001:000cb579       __unwindfunclet$?eklpisgscix@gpgqxpb@@QAE_N_NV?$basic_string@DU?$char_traits@D@std@@V?$allocator@D@2@@std@@101N1@Z$0 100cc579 f   imguicolorpicker.obj
 0001:000cb581       __unwindfunclet$?eklpisgscix@gpgqxpb@@QAE_N_NV?$basic_string@DU?$char_traits@D@std@@V?$allocator@D@2@@std@@101N1@Z$1 100cc581 f   imguicolorpicker.obj
 0001:000cb589       __unwindfunclet$?eklpisgscix@gpgqxpb@@QAE_N_NV?$basic_string@DU?$char_traits@D@std@@V?$allocator@D@2@@std@@101N1@Z$2 100cc589 f   imguicolorpicker.obj
 0001:000cb591       __unwindfunclet$?eklpisgscix@gpgqxpb@@QAE_N_NV?$basic_string@DU?$char_traits@D@std@@V?$allocator@D@2@@std@@101N1@Z$3 100cc591 f   imguicolorpicker.obj
 0001:000cb599       __ehhandler$?eklpisgscix@gpgqxpb@@QAE_N_NV?$basic_string@DU?$char_traits@D@std@@V?$allocator@D@2@@std@@101N1@Z 100cc599 f   imguicolorpicker.obj
 0001:000cb5be       __unwindfunclet$?yuvkrgdsiphfeegwpxoriide@gpgqxpb@@QAEHV?$basic_string@DU?$char_traits@D@std@@V?$allocator@D@2@@std@@HHH0NHHH@Z$0 100cc5be f   imguicolorpicker.obj
 0001:000cb5c6       __unwindfunclet$?yuvkrgdsiphfeegwpxoriide@gpgqxpb@@QAEHV?$basic_string@DU?$char_traits@D@std@@V?$allocator@D@2@@std@@HHH0NHHH@Z$1 100cc5c6 f   imguicolorpicker.obj
 0001:000cb5ce       __unwindfunclet$?yuvkrgdsiphfeegwpxoriide@gpgqxpb@@QAEHV?$basic_string@DU?$char_traits@D@std@@V?$allocator@D@2@@std@@HHH0NHHH@Z$2 100cc5ce f   imguicolorpicker.obj
 0001:000cb5d9       __unwindfunclet$?yuvkrgdsiphfeegwpxoriide@gpgqxpb@@QAEHV?$basic_string@DU?$char_traits@D@std@@V?$allocator@D@2@@std@@HHH0NHHH@Z$3 100cc5d9 f   imguicolorpicker.obj
 0001:000cb5e1       __unwindfunclet$?yuvkrgdsiphfeegwpxoriide@gpgqxpb@@QAEHV?$basic_string@DU?$char_traits@D@std@@V?$allocator@D@2@@std@@HHH0NHHH@Z$4 100cc5e1 f   imguicolorpicker.obj
 0001:000cb5e9       __unwindfunclet$?yuvkrgdsiphfeegwpxoriide@gpgqxpb@@QAEHV?$basic_string@DU?$char_traits@D@std@@V?$allocator@D@2@@std@@HHH0NHHH@Z$5 100cc5e9 f   imguicolorpicker.obj
 0001:000cb5f1       __unwindfunclet$?yuvkrgdsiphfeegwpxoriide@gpgqxpb@@QAEHV?$basic_string@DU?$char_traits@D@std@@V?$allocator@D@2@@std@@HHH0NHHH@Z$7 100cc5f1 f   imguicolorpicker.obj
 0001:000cb5f9       __ehhandler$?yuvkrgdsiphfeegwpxoriide@gpgqxpb@@QAEHV?$basic_string@DU?$char_traits@D@std@@V?$allocator@D@2@@std@@HHH0NHHH@Z 100cc5f9 f   imguicolorpicker.obj
 0001:000cb61e       __unwindfunclet$?aiwsmgljifkonqvmzvahsx@gpgqxpb@@QAE?AV?$basic_string@DU?$char_traits@D@std@@V?$allocator@D@2@@std@@NV23@0H@Z$0 100cc61e f   imguicolorpicker.obj
 0001:000cb626       __unwindfunclet$?aiwsmgljifkonqvmzvahsx@gpgqxpb@@QAE?AV?$basic_string@DU?$char_traits@D@std@@V?$allocator@D@2@@std@@NV23@0H@Z$1 100cc626 f   imguicolorpicker.obj
 0001:000cb62e       __unwindfunclet$?aiwsmgljifkonqvmzvahsx@gpgqxpb@@QAE?AV?$basic_string@DU?$char_traits@D@std@@V?$allocator@D@2@@std@@NV23@0H@Z$2 100cc62e f   imguicolorpicker.obj
 0001:000cb636       __ehhandler$?aiwsmgljifkonqvmzvahsx@gpgqxpb@@QAE?AV?$basic_string@DU?$char_traits@D@std@@V?$allocator@D@2@@std@@NV23@0H@Z 100cc636 f   imguicolorpicker.obj
 0001:000cb65b       __unwindfunclet$?xwkzblowabfjrzlp@gpgqxpb@@IAEN_NV?$basic_string@DU?$char_traits@D@std@@V?$allocator@D@2@@std@@NN1N00@Z$0 100cc65b f   imguicolorpicker.obj
 0001:000cb663       __unwindfunclet$?xwkzblowabfjrzlp@gpgqxpb@@IAEN_NV?$basic_string@DU?$char_traits@D@std@@V?$allocator@D@2@@std@@NN1N00@Z$1 100cc663 f   imguicolorpicker.obj
 0001:000cb66b       __unwindfunclet$?xwkzblowabfjrzlp@gpgqxpb@@IAEN_NV?$basic_string@DU?$char_traits@D@std@@V?$allocator@D@2@@std@@NN1N00@Z$2 100cc66b f   imguicolorpicker.obj
 0001:000cb676       __unwindfunclet$?xwkzblowabfjrzlp@gpgqxpb@@IAEN_NV?$basic_string@DU?$char_traits@D@std@@V?$allocator@D@2@@std@@NN1N00@Z$3 100cc676 f   imguicolorpicker.obj
 0001:000cb67e       __unwindfunclet$?xwkzblowabfjrzlp@gpgqxpb@@IAEN_NV?$basic_string@DU?$char_traits@D@std@@V?$allocator@D@2@@std@@NN1N00@Z$4 100cc67e f   imguicolorpicker.obj
 0001:000cb686       __unwindfunclet$?xwkzblowabfjrzlp@gpgqxpb@@IAEN_NV?$basic_string@DU?$char_traits@D@std@@V?$allocator@D@2@@std@@NN1N00@Z$5 100cc686 f   imguicolorpicker.obj
 0001:000cb68e       __ehhandler$?xwkzblowabfjrzlp@gpgqxpb@@IAEN_NV?$basic_string@DU?$char_traits@D@std@@V?$allocator@D@2@@std@@NN1N00@Z 100cc68e f   imguicolorpicker.obj
 0001:000cb6b3       __unwindfunclet$?tbaedyfgdypclfkyfxgc@gpgqxpb@@IAENHN_NHV?$basic_string@DU?$char_traits@D@std@@V?$allocator@D@2@@std@@NN@Z$0 100cc6b3 f   imguicolorpicker.obj
 0001:000cb6bb       __ehhandler$?tbaedyfgdypclfkyfxgc@gpgqxpb@@IAENHN_NHV?$basic_string@DU?$char_traits@D@std@@V?$allocator@D@2@@std@@NN@Z 100cc6bb f   imguicolorpicker.obj
 0001:000cb6e0       __unwindfunclet$?bjjvsjqdsmmpjdsg@gpgqxpb@@IAENNV?$basic_string@DU?$char_traits@D@std@@V?$allocator@D@2@@std@@0HH0H0_NN@Z$0 100cc6e0 f   imguicolorpicker.obj
 0001:000cb6e8       __unwindfunclet$?bjjvsjqdsmmpjdsg@gpgqxpb@@IAENNV?$basic_string@DU?$char_traits@D@std@@V?$allocator@D@2@@std@@0HH0H0_NN@Z$1 100cc6e8 f   imguicolorpicker.obj
 0001:000cb6f0       __unwindfunclet$?bjjvsjqdsmmpjdsg@gpgqxpb@@IAENNV?$basic_string@DU?$char_traits@D@std@@V?$allocator@D@2@@std@@0HH0H0_NN@Z$2 100cc6f0 f   imguicolorpicker.obj
 0001:000cb6f8       __unwindfunclet$?bjjvsjqdsmmpjdsg@gpgqxpb@@IAENNV?$basic_string@DU?$char_traits@D@std@@V?$allocator@D@2@@std@@0HH0H0_NN@Z$3 100cc6f8 f   imguicolorpicker.obj
 0001:000cb700       __unwindfunclet$?bjjvsjqdsmmpjdsg@gpgqxpb@@IAENNV?$basic_string@DU?$char_traits@D@std@@V?$allocator@D@2@@std@@0HH0H0_NN@Z$4 100cc700 f   imguicolorpicker.obj
 0001:000cb708       __ehhandler$?bjjvsjqdsmmpjdsg@gpgqxpb@@IAENNV?$basic_string@DU?$char_traits@D@std@@V?$allocator@D@2@@std@@0HH0H0_NN@Z 100cc708 f   imguicolorpicker.obj
 0001:000cb72d       __unwindfunclet$?ffkcoguklotxz@gpgqxpb@@IAEXHNV?$basic_string@DU?$char_traits@D@std@@V?$allocator@D@2@@std@@_N01H0@Z$0 100cc72d f   imguicolorpicker.obj
 0001:000cb735       __unwindfunclet$?ffkcoguklotxz@gpgqxpb@@IAEXHNV?$basic_string@DU?$char_traits@D@std@@V?$allocator@D@2@@std@@_N01H0@Z$1 100cc735 f   imguicolorpicker.obj
 0001:000cb73d       __unwindfunclet$?ffkcoguklotxz@gpgqxpb@@IAEXHNV?$basic_string@DU?$char_traits@D@std@@V?$allocator@D@2@@std@@_N01H0@Z$2 100cc73d f   imguicolorpicker.obj
 0001:000cb745       __ehhandler$?ffkcoguklotxz@gpgqxpb@@IAEXHNV?$basic_string@DU?$char_traits@D@std@@V?$allocator@D@2@@std@@_N01H0@Z 100cc745 f   imguicolorpicker.obj
 0001:000cb76a       __unwindfunclet$?mblbdlhoubrozqdnpxzqerqsd@gpgqxpb@@IAENHH_N00V?$basic_string@DU?$char_traits@D@std@@V?$allocator@D@2@@std@@0H0@Z$0 100cc76a f   imguicolorpicker.obj
 0001:000cb772       __unwindfunclet$?mblbdlhoubrozqdnpxzqerqsd@gpgqxpb@@IAENHH_N00V?$basic_string@DU?$char_traits@D@std@@V?$allocator@D@2@@std@@0H0@Z$1 100cc772 f   imguicolorpicker.obj
 0001:000cb77a       __unwindfunclet$?mblbdlhoubrozqdnpxzqerqsd@gpgqxpb@@IAENHH_N00V?$basic_string@DU?$char_traits@D@std@@V?$allocator@D@2@@std@@0H0@Z$2 100cc77a f   imguicolorpicker.obj
 0001:000cb782       __ehhandler$?mblbdlhoubrozqdnpxzqerqsd@gpgqxpb@@IAENHH_N00V?$basic_string@DU?$char_traits@D@std@@V?$allocator@D@2@@std@@0H0@Z 100cc782 f   imguicolorpicker.obj
 0001:000cb7a7       __unwindfunclet$?ydfngpnauqaygls@gpgqxpb@@AAEHN_N0NV?$basic_string@DU?$char_traits@D@std@@V?$allocator@D@2@@std@@@Z$0 100cc7a7 f   imguicolorpicker.obj
 0001:000cb7af       __ehhandler$?ydfngpnauqaygls@gpgqxpb@@AAEHN_N0NV?$basic_string@DU?$char_traits@D@std@@V?$allocator@D@2@@std@@@Z 100cc7af f   imguicolorpicker.obj
 0001:000cb7e0       __unwindfunclet$??0qlhutuf@@QAE@XZ$0 100cc7e0 f   imgui_impl_dx9.obj
 0001:000cb7eb       __unwindfunclet$??0qlhutuf@@QAE@XZ$15 100cc7eb f   imgui_impl_dx9.obj
 0001:000cb7f3       __unwindfunclet$??0qlhutuf@@QAE@XZ$16 100cc7f3 f   imgui_impl_dx9.obj
 0001:000cb7fb       __unwindfunclet$??0qlhutuf@@QAE@XZ$2 100cc7fb f   imgui_impl_dx9.obj
 0001:000cb803       __unwindfunclet$??0qlhutuf@@QAE@XZ$3 100cc803 f   imgui_impl_dx9.obj
 0001:000cb80b       __unwindfunclet$??0qlhutuf@@QAE@XZ$42 100cc80b f   imgui_impl_dx9.obj
 0001:000cb813       __unwindfunclet$??0qlhutuf@@QAE@XZ$43 100cc813 f   imgui_impl_dx9.obj
 0001:000cb81b       __unwindfunclet$??0qlhutuf@@QAE@XZ$57 100cc81b f   imgui_impl_dx9.obj
 0001:000cb823       __unwindfunclet$??0qlhutuf@@QAE@XZ$6 100cc823 f   imgui_impl_dx9.obj
 0001:000cb82b       __unwindfunclet$??0qlhutuf@@QAE@XZ$9 100cc82b f   imgui_impl_dx9.obj
 0001:000cb833       __unwindfunclet$??0qlhutuf@@QAE@XZ$11 100cc833 f   imgui_impl_dx9.obj
 0001:000cb83b       __unwindfunclet$??0qlhutuf@@QAE@XZ$79 100cc83b f   imgui_impl_dx9.obj
 0001:000cb843       __unwindfunclet$??0qlhutuf@@QAE@XZ$80 100cc843 f   imgui_impl_dx9.obj
 0001:000cb84b       __ehhandler$??0qlhutuf@@QAE@XZ 100cc84b f   imgui_impl_dx9.obj
 0001:000cb870       __unwindfunclet$?ldtturonitzyovd@qlhutuf@@QAEN_N0H@Z$0 100cc870 f   imgui_impl_dx9.obj
 0001:000cb878       __unwindfunclet$?ldtturonitzyovd@qlhutuf@@QAEN_N0H@Z$1 100cc878 f   imgui_impl_dx9.obj
 0001:000cb880       __unwindfunclet$?ldtturonitzyovd@qlhutuf@@QAEN_N0H@Z$2 100cc880 f   imgui_impl_dx9.obj
 0001:000cb888       __ehhandler$?ldtturonitzyovd@qlhutuf@@QAEN_N0H@Z 100cc888 f   imgui_impl_dx9.obj
 0001:000cb8ad       __unwindfunclet$?rekvwecvyn@qlhutuf@@QAEX_NH@Z$0 100cc8ad f   imgui_impl_dx9.obj
 0001:000cb8b5       __unwindfunclet$?rekvwecvyn@qlhutuf@@QAEX_NH@Z$1 100cc8b5 f   imgui_impl_dx9.obj
 0001:000cb8bd       __ehhandler$?rekvwecvyn@qlhutuf@@QAEX_NH@Z 100cc8bd f   imgui_impl_dx9.obj
 0001:000cb8e2       __unwindfunclet$?kldzdvpqopkyyrmncbxyvqnvr@qlhutuf@@QAEHHH@Z$0 100cc8e2 f   imgui_impl_dx9.obj
 0001:000cb8ea       __unwindfunclet$?kldzdvpqopkyyrmncbxyvqnvr@qlhutuf@@QAEHHH@Z$1 100cc8ea f   imgui_impl_dx9.obj
 0001:000cb8f2       __unwindfunclet$?kldzdvpqopkyyrmncbxyvqnvr@qlhutuf@@QAEHHH@Z$2 100cc8f2 f   imgui_impl_dx9.obj
 0001:000cb8fa       __unwindfunclet$?kldzdvpqopkyyrmncbxyvqnvr@qlhutuf@@QAEHHH@Z$4 100cc8fa f   imgui_impl_dx9.obj
 0001:000cb902       __unwindfunclet$?kldzdvpqopkyyrmncbxyvqnvr@qlhutuf@@QAEHHH@Z$6 100cc902 f   imgui_impl_dx9.obj
 0001:000cb90a       __ehhandler$?kldzdvpqopkyyrmncbxyvqnvr@qlhutuf@@QAEHHH@Z 100cc90a f   imgui_impl_dx9.obj
 0001:000cb92f       __unwindfunclet$?ysnbopemkis@qlhutuf@@QAENV?$basic_string@DU?$char_traits@D@std@@V?$allocator@D@2@@std@@@Z$0 100cc92f f   imgui_impl_dx9.obj
 0001:000cb937       __unwindfunclet$?ysnbopemkis@qlhutuf@@QAENV?$basic_string@DU?$char_traits@D@std@@V?$allocator@D@2@@std@@@Z$1 100cc937 f   imgui_impl_dx9.obj
 0001:000cb93f       __unwindfunclet$?ysnbopemkis@qlhutuf@@QAENV?$basic_string@DU?$char_traits@D@std@@V?$allocator@D@2@@std@@@Z$2 100cc93f f   imgui_impl_dx9.obj
 0001:000cb947       __unwindfunclet$?ysnbopemkis@qlhutuf@@QAENV?$basic_string@DU?$char_traits@D@std@@V?$allocator@D@2@@std@@@Z$4 100cc947 f   imgui_impl_dx9.obj
 0001:000cb94f       __ehhandler$?ysnbopemkis@qlhutuf@@QAENV?$basic_string@DU?$char_traits@D@std@@V?$allocator@D@2@@std@@@Z 100cc94f f   imgui_impl_dx9.obj
 0001:000cb974       __unwindfunclet$?yjeeyhnizjuumjeqsghlluppo@qlhutuf@@QAE_NH_NHHH@Z$0 100cc974 f   imgui_impl_dx9.obj
 0001:000cb97f       __unwindfunclet$?yjeeyhnizjuumjeqsghlluppo@qlhutuf@@QAE_NH_NHHH@Z$1 100cc97f f   imgui_impl_dx9.obj
 0001:000cb987       __unwindfunclet$?yjeeyhnizjuumjeqsghlluppo@qlhutuf@@QAE_NH_NHHH@Z$2 100cc987 f   imgui_impl_dx9.obj
 0001:000cb98f       __unwindfunclet$?yjeeyhnizjuumjeqsghlluppo@qlhutuf@@QAE_NH_NHHH@Z$3 100cc98f f   imgui_impl_dx9.obj
 0001:000cb997       __ehhandler$?yjeeyhnizjuumjeqsghlluppo@qlhutuf@@QAE_NH_NHHH@Z 100cc997 f   imgui_impl_dx9.obj
 0001:000cb9bc       __unwindfunclet$?hkqmibablajehkepdeuzkqfao@qlhutuf@@QAEH_NNHHN@Z$0 100cc9bc f   imgui_impl_dx9.obj
 0001:000cb9c4       __unwindfunclet$?hkqmibablajehkepdeuzkqfao@qlhutuf@@QAEH_NNHHN@Z$1 100cc9c4 f   imgui_impl_dx9.obj
 0001:000cb9cc       __ehhandler$?hkqmibablajehkepdeuzkqfao@qlhutuf@@QAEH_NNHHN@Z 100cc9cc f   imgui_impl_dx9.obj
 0001:000cb9f1       __unwindfunclet$?apestemrfgjt@qlhutuf@@IAE?AV?$basic_string@DU?$char_traits@D@std@@V?$allocator@D@2@@std@@XZ$0 100cc9f1 f   imgui_impl_dx9.obj
 0001:000cb9f9       __ehhandler$?apestemrfgjt@qlhutuf@@IAE?AV?$basic_string@DU?$char_traits@D@std@@V?$allocator@D@2@@std@@XZ 100cc9f9 f   imgui_impl_dx9.obj
 0001:000cba1e       __unwindfunclet$?kfbeathrilwu@qlhutuf@@AAEHHNV?$basic_string@DU?$char_traits@D@std@@V?$allocator@D@2@@std@@H0@Z$0 100cca1e f   imgui_impl_dx9.obj
 0001:000cba26       __unwindfunclet$?kfbeathrilwu@qlhutuf@@AAEHHNV?$basic_string@DU?$char_traits@D@std@@V?$allocator@D@2@@std@@H0@Z$1 100cca26 f   imgui_impl_dx9.obj
 0001:000cba2e       __unwindfunclet$?kfbeathrilwu@qlhutuf@@AAEHHNV?$basic_string@DU?$char_traits@D@std@@V?$allocator@D@2@@std@@H0@Z$2 100cca2e f   imgui_impl_dx9.obj
 0001:000cba36       __unwindfunclet$?kfbeathrilwu@qlhutuf@@AAEHHNV?$basic_string@DU?$char_traits@D@std@@V?$allocator@D@2@@std@@H0@Z$3 100cca36 f   imgui_impl_dx9.obj
 0001:000cba3e       __unwindfunclet$?kfbeathrilwu@qlhutuf@@AAEHHNV?$basic_string@DU?$char_traits@D@std@@V?$allocator@D@2@@std@@H0@Z$4 100cca3e f   imgui_impl_dx9.obj
 0001:000cba46       __ehhandler$?kfbeathrilwu@qlhutuf@@AAEHHNV?$basic_string@DU?$char_traits@D@std@@V?$allocator@D@2@@std@@H0@Z 100cca46 f   imgui_impl_dx9.obj
 0001:000cba6b       __unwindfunclet$?jnyguxsiueaytdgl@qlhutuf@@AAE_NXZ$0 100cca6b f   imgui_impl_dx9.obj
 0001:000cba73       __unwindfunclet$?jnyguxsiueaytdgl@qlhutuf@@AAE_NXZ$1 100cca73 f   imgui_impl_dx9.obj
 0001:000cba7b       __unwindfunclet$?jnyguxsiueaytdgl@qlhutuf@@AAE_NXZ$2 100cca7b f   imgui_impl_dx9.obj
 0001:000cba83       __unwindfunclet$?jnyguxsiueaytdgl@qlhutuf@@AAE_NXZ$4 100cca83 f   imgui_impl_dx9.obj
 0001:000cba8b       __ehhandler$?jnyguxsiueaytdgl@qlhutuf@@AAE_NXZ 100cca8b f   imgui_impl_dx9.obj
 0001:000cbab0       __unwindfunclet$?zodlhmttrpgtpeb@qlhutuf@@AAE?AV?$basic_string@DU?$char_traits@D@std@@V?$allocator@D@2@@std@@_NH00V23@H1@Z$0 100ccab0 f   imgui_impl_dx9.obj
 0001:000cbab8       __unwindfunclet$?zodlhmttrpgtpeb@qlhutuf@@AAE?AV?$basic_string@DU?$char_traits@D@std@@V?$allocator@D@2@@std@@_NH00V23@H1@Z$1 100ccab8 f   imgui_impl_dx9.obj
 0001:000cbac0       __ehhandler$?zodlhmttrpgtpeb@qlhutuf@@AAE?AV?$basic_string@DU?$char_traits@D@std@@V?$allocator@D@2@@std@@_NH00V23@H1@Z 100ccac0 f   imgui_impl_dx9.obj
 0001:000cbae0       __unwindfunclet$?NewFrame@ImGui@@YAXXZ$0 100ccae0 f   imgui.obj
 0001:000cbafe       __unwindfunclet$?NewFrame@ImGui@@YAXXZ$1 100ccafe f   imgui.obj
 0001:000cbb06       __ehhandler$?NewFrame@ImGui@@YAXXZ 100ccb06 f   imgui.obj
 0001:000cbb21       __ehhandler$?Shutdown@ImGui@@YAXXZ 100ccb21 f   imgui.obj
 0001:000cbb3c       __unwindfunclet$?CreateContext@ImGui@@YAPAUImGuiContext@@P6APAXI@ZP6AXPAX@Z@Z$0 100ccb3c f   imgui.obj
 0001:000cbb54       __ehhandler$?CreateContext@ImGui@@YAPAUImGuiContext@@P6APAXI@ZP6AXPAX@Z@Z 100ccb54 f   imgui.obj
 0001:000cbb6f       __unwindfunclet$??0ImGuiTextFilter@@QAE@PBD@Z$0 100ccb6f f   imgui.obj
 0001:000cbb7d       __ehhandler$??0ImGuiTextFilter@@QAE@PBD@Z 100ccb7d f   imgui.obj
 0001:000cbb98       __unwindfunclet$?ImFileOpen@@YAPAU_iobuf@@PBD0@Z$0 100ccb98 f   imgui.obj
 0001:000cbba0       __ehhandler$?ImFileOpen@@YAPAU_iobuf@@PBD0@Z 100ccba0 f   imgui.obj
 0001:000cbbbb       __unwindfunclet$??0ImGuiWindow@@QAE@PBD@Z$0 100ccbbb f   imgui.obj
 0001:000cbbc9       __unwindfunclet$??0ImGuiWindow@@QAE@PBD@Z$1 100ccbc9 f   imgui.obj
 0001:000cbbd7       __unwindfunclet$??0ImGuiWindow@@QAE@PBD@Z$2 100ccbd7 f   imgui.obj
 0001:000cbbe5       __unwindfunclet$??0ImGuiWindow@@QAE@PBD@Z$3 100ccbe5 f   imgui.obj
 0001:000cbc03       __ehhandler$??0ImGuiWindow@@QAE@PBD@Z 100ccc03 f   imgui.obj
 0001:000cbc1e       __ehhandler$??1ImGuiWindow@@QAE@XZ 100ccc1e f   imgui.obj
 0001:000cbc39       __unwindfunclet$??0yhtquje@@QAE@XZ$0 100ccc39 f   imgui.obj
 0001:000cbc44       __unwindfunclet$??0yhtquje@@QAE@XZ$1 100ccc44 f   imgui.obj
 0001:000cbc4c       __unwindfunclet$??0yhtquje@@QAE@XZ$26 100ccc4c f   imgui.obj
 0001:000cbc54       __unwindfunclet$??0yhtquje@@QAE@XZ$27 100ccc54 f   imgui.obj
 0001:000cbc5c       __unwindfunclet$??0yhtquje@@QAE@XZ$8 100ccc5c f   imgui.obj
 0001:000cbc64       __unwindfunclet$??0yhtquje@@QAE@XZ$9 100ccc64 f   imgui.obj
 0001:000cbc6c       __ehhandler$??0yhtquje@@QAE@XZ 100ccc6c f   imgui.obj
 0001:000cbc91       __unwindfunclet$?idsdyhhbvhdrzhqiyiqiogvmu@yhtquje@@QAENXZ$0 100ccc91 f   imgui.obj
 0001:000cbc99       __unwindfunclet$?idsdyhhbvhdrzhqiyiqiogvmu@yhtquje@@QAENXZ$1 100ccc99 f   imgui.obj
 0001:000cbca1       __unwindfunclet$?idsdyhhbvhdrzhqiyiqiogvmu@yhtquje@@QAENXZ$2 100ccca1 f   imgui.obj
 0001:000cbca9       __unwindfunclet$?idsdyhhbvhdrzhqiyiqiogvmu@yhtquje@@QAENXZ$4 100ccca9 f   imgui.obj
 0001:000cbcb1       __ehhandler$?idsdyhhbvhdrzhqiyiqiogvmu@yhtquje@@QAENXZ 100cccb1 f   imgui.obj
 0001:000cbcd6       __unwindfunclet$?yytmassrzd@yhtquje@@QAEXH_NH0V?$basic_string@DU?$char_traits@D@std@@V?$allocator@D@2@@std@@01@Z$0 100cccd6 f   imgui.obj
 0001:000cbcde       __unwindfunclet$?yytmassrzd@yhtquje@@QAEXH_NH0V?$basic_string@DU?$char_traits@D@std@@V?$allocator@D@2@@std@@01@Z$1 100cccde f   imgui.obj
 0001:000cbce6       __unwindfunclet$?yytmassrzd@yhtquje@@QAEXH_NH0V?$basic_string@DU?$char_traits@D@std@@V?$allocator@D@2@@std@@01@Z$2 100ccce6 f   imgui.obj
 0001:000cbcf1       __unwindfunclet$?yytmassrzd@yhtquje@@QAEXH_NH0V?$basic_string@DU?$char_traits@D@std@@V?$allocator@D@2@@std@@01@Z$3 100cccf1 f   imgui.obj
 0001:000cbcfc       __unwindfunclet$?yytmassrzd@yhtquje@@QAEXH_NH0V?$basic_string@DU?$char_traits@D@std@@V?$allocator@D@2@@std@@01@Z$4 100cccfc f   imgui.obj
 0001:000cbd04       __unwindfunclet$?yytmassrzd@yhtquje@@QAEXH_NH0V?$basic_string@DU?$char_traits@D@std@@V?$allocator@D@2@@std@@01@Z$5 100ccd04 f   imgui.obj
 0001:000cbd0c       __unwindfunclet$?yytmassrzd@yhtquje@@QAEXH_NH0V?$basic_string@DU?$char_traits@D@std@@V?$allocator@D@2@@std@@01@Z$6 100ccd0c f   imgui.obj
 0001:000cbd14       __ehhandler$?yytmassrzd@yhtquje@@QAEXH_NH0V?$basic_string@DU?$char_traits@D@std@@V?$allocator@D@2@@std@@01@Z 100ccd14 f   imgui.obj
 0001:000cbd3c       __unwindfunclet$?rovicdgdixlmfaoezficgbk@yhtquje@@QAE?AV?$basic_string@DU?$char_traits@D@std@@V?$allocator@D@2@@std@@HV23@NNN@Z$0 100ccd3c f   imgui.obj
 0001:000cbd44       __unwindfunclet$?rovicdgdixlmfaoezficgbk@yhtquje@@QAE?AV?$basic_string@DU?$char_traits@D@std@@V?$allocator@D@2@@std@@HV23@NNN@Z$1 100ccd44 f   imgui.obj
 0001:000cbd4c       __unwindfunclet$?rovicdgdixlmfaoezficgbk@yhtquje@@QAE?AV?$basic_string@DU?$char_traits@D@std@@V?$allocator@D@2@@std@@HV23@NNN@Z$2 100ccd4c f   imgui.obj
 0001:000cbd54       __ehhandler$?rovicdgdixlmfaoezficgbk@yhtquje@@QAE?AV?$basic_string@DU?$char_traits@D@std@@V?$allocator@D@2@@std@@HV23@NNN@Z 100ccd54 f   imgui.obj
 0001:000cbd79       __unwindfunclet$?aefozkalsvmadebzix@yhtquje@@AAE?AV?$basic_string@DU?$char_traits@D@std@@V?$allocator@D@2@@std@@HNV23@_NHNH@Z$0 100ccd79 f   imgui.obj
 0001:000cbd81       __unwindfunclet$?aefozkalsvmadebzix@yhtquje@@AAE?AV?$basic_string@DU?$char_traits@D@std@@V?$allocator@D@2@@std@@HNV23@_NHNH@Z$1 100ccd81 f   imgui.obj
 0001:000cbd89       __ehhandler$?aefozkalsvmadebzix@yhtquje@@AAE?AV?$basic_string@DU?$char_traits@D@std@@V?$allocator@D@2@@std@@HNV23@_NHNH@Z 100ccd89 f   imgui.obj
 0001:000cbdae       __unwindfunclet$?qdmnvylrlevyxlqafb@yhtquje@@AAEX_N0V?$basic_string@DU?$char_traits@D@std@@V?$allocator@D@2@@std@@11N0@Z$0 100ccdae f   imgui.obj
 0001:000cbdb6       __unwindfunclet$?qdmnvylrlevyxlqafb@yhtquje@@AAEX_N0V?$basic_string@DU?$char_traits@D@std@@V?$allocator@D@2@@std@@11N0@Z$1 100ccdb6 f   imgui.obj
 0001:000cbdbe       __unwindfunclet$?qdmnvylrlevyxlqafb@yhtquje@@AAEX_N0V?$basic_string@DU?$char_traits@D@std@@V?$allocator@D@2@@std@@11N0@Z$2 100ccdbe f   imgui.obj
 0001:000cbdc6       __unwindfunclet$?qdmnvylrlevyxlqafb@yhtquje@@AAEX_N0V?$basic_string@DU?$char_traits@D@std@@V?$allocator@D@2@@std@@11N0@Z$3 100ccdc6 f   imgui.obj
 0001:000cbdce       __ehhandler$?qdmnvylrlevyxlqafb@yhtquje@@AAEX_N0V?$basic_string@DU?$char_traits@D@std@@V?$allocator@D@2@@std@@11N0@Z 100ccdce f   imgui.obj
 0001:000cbdf3       __unwindfunclet$?srugdsylql@yhtquje@@AAE?AV?$basic_string@DU?$char_traits@D@std@@V?$allocator@D@2@@std@@_NN0@Z$0 100ccdf3 f   imgui.obj
 0001:000cbdfe       __unwindfunclet$?srugdsylql@yhtquje@@AAE?AV?$basic_string@DU?$char_traits@D@std@@V?$allocator@D@2@@std@@_NN0@Z$1 100ccdfe f   imgui.obj
 0001:000cbe06       __unwindfunclet$?srugdsylql@yhtquje@@AAE?AV?$basic_string@DU?$char_traits@D@std@@V?$allocator@D@2@@std@@_NN0@Z$2 100cce06 f   imgui.obj
 0001:000cbe0e       __unwindfunclet$?srugdsylql@yhtquje@@AAE?AV?$basic_string@DU?$char_traits@D@std@@V?$allocator@D@2@@std@@_NN0@Z$3 100cce0e f   imgui.obj
 0001:000cbe16       __ehhandler$?srugdsylql@yhtquje@@AAE?AV?$basic_string@DU?$char_traits@D@std@@V?$allocator@D@2@@std@@_NN0@Z 100cce16 f   imgui.obj
 0001:000cbe3e       __unwindfunclet$??0lnagolw@@QAE@XZ$0 100cce3e f   imgui.obj
 0001:000cbe49       __unwindfunclet$??0lnagolw@@QAE@XZ$1 100cce49 f   imgui.obj
 0001:000cbe54       __unwindfunclet$??0lnagolw@@QAE@XZ$2 100cce54 f   imgui.obj
 0001:000cbe5c       __unwindfunclet$??0lnagolw@@QAE@XZ$27 100cce5c f   imgui.obj
 0001:000cbe64       __unwindfunclet$??0lnagolw@@QAE@XZ$28 100cce64 f   imgui.obj
 0001:000cbe6c       __unwindfunclet$??0lnagolw@@QAE@XZ$4 100cce6c f   imgui.obj
 0001:000cbe74       __unwindfunclet$??0lnagolw@@QAE@XZ$5 100cce74 f   imgui.obj
 0001:000cbe7c       __unwindfunclet$??0lnagolw@@QAE@XZ$6 100cce7c f   imgui.obj
 0001:000cbe84       __unwindfunclet$??0lnagolw@@QAE@XZ$7 100cce84 f   imgui.obj
 0001:000cbe8c       __unwindfunclet$??0lnagolw@@QAE@XZ$8 100cce8c f   imgui.obj
 0001:000cbe94       __unwindfunclet$??0lnagolw@@QAE@XZ$10 100cce94 f   imgui.obj
 0001:000cbe9c       __unwindfunclet$??0lnagolw@@QAE@XZ$11 100cce9c f   imgui.obj
 0001:000cbea4       __unwindfunclet$??0lnagolw@@QAE@XZ$13 100ccea4 f   imgui.obj
 0001:000cbeac       __unwindfunclet$??0lnagolw@@QAE@XZ$14 100cceac f   imgui.obj
 0001:000cbeb4       __unwindfunclet$??0lnagolw@@QAE@XZ$15 100cceb4 f   imgui.obj
 0001:000cbebc       __unwindfunclet$??0lnagolw@@QAE@XZ$17 100ccebc f   imgui.obj
 0001:000cbec4       __unwindfunclet$??0lnagolw@@QAE@XZ$18 100ccec4 f   imgui.obj
 0001:000cbecc       __unwindfunclet$??0lnagolw@@QAE@XZ$20 100ccecc f   imgui.obj
 0001:000cbed4       __unwindfunclet$??0lnagolw@@QAE@XZ$21 100cced4 f   imgui.obj
 0001:000cbedc       __ehhandler$??0lnagolw@@QAE@XZ 100ccedc f   imgui.obj
